(dp1
S'output'
p2
S"<class 'sqlite3.OperationalError'> Cannot add a UNIQUE column"
p3
sS'layer'
p4
S'c:\\Users\\rochacbruno\\aula7_mar12\\web2py\\applications\\loja\\models\\300_datamodels.py'
p5
sS'code'
p6
S'# coding: utf-8\n\n# id criado obrigatoriamente\n# format\n# notnull, unique, default\n# compute, represent, widget, writable, readable\n# Virtual, Lazy field\n# validator (quantidade maxima por item)\n\nCategoria = db.define_table("categoria",\n        # Field("cod", "id")\n        Field("nome", "string", notnull=True),\n        Field("descricao", "text"),\n        Field("foto", "upload"), # caminho\n        format="%(nome)s",\n        migrate=True,\n        #primarykey=["cod"]\n    )\n\nProduto = db.define_table("produto",\n        Field("categoria", "reference categoria"),\n        Field("name", notnull=True),\n        Field("SKU", unique=True),\n        # Field("descricao", "text"),\n        # Field("peso", "double"), #float\n        # Field("preco", "decimal"), # Decimal\n        # Field("estoque", "integer"),\n        # Field("foto", "upload"),\n        # Field("miniatura", "upload"), # thumbnail\n        # Field("destaque", "boolean", default=False), # T / F\n        # Field("email_enviado", "boolean", default=False),\n        #Field("quantidade_maxima", "integer", default=5)\n        #format = lambda row: "%(nome)s" % row\n    )\n\n# virtual peso total e preco total\n\nPedido = db.define_table("pedido",\n        Field("comprador", "reference auth_user"),\n        # Field("itens", "integer"),\n        # Field("valor", "decimal"),\n        # Field("enviar_para", "reference endereco"),\n        # Field("statuses"),\n    )\n\nPedidoItens = db.define_table("pedido_itens",\n        Field("pedido_id", "reference pedido"),\n        # Field("produto_id", "reference produto"), # db.pedido\n        # Field("quantidade", "integer"),\n        # Field("preco_atual", "decimal"),\n        # Field("valor_total", "decimal"),\n    )\n\nEndereco = db.define_table("endereco",\n        Field("cliente_id", "reference auth_user"),\n        Field("cep"),\n        Field("pais"),\n        Field("estado"),\n        Field("cidade"),\n        Field("logradouro"),\n        Field("numero"),\n        Field("complemento"),\n    )\n\n'
p7
sS'snapshot'
p8
(dp9
S'exception'
p10
(dp11
S'__module__'
p12
S"'sqlite3'"
p13
sS'__getslice__'
p14
S"<method-wrapper '__getslice__' of OperationalError object>"
p15
sS'__str__'
p16
S"<method-wrapper '__str__' of OperationalError object>"
p17
sS'__reduce__'
p18
S'<built-in method __reduce__ of OperationalError object>'
p19
sS'__dict__'
p20
S'{}'
p21
sS'__sizeof__'
p22
S'<built-in method __sizeof__ of OperationalError object>'
p23
sS'__weakref__'
p24
S'None'
p25
sS'__init__'
p26
S"<method-wrapper '__init__' of OperationalError object>"
p27
sS'__setattr__'
p28
S"<method-wrapper '__setattr__' of OperationalError object>"
p29
sS'__reduce_ex__'
p30
S'<built-in method __reduce_ex__ of OperationalError object>'
p31
sS'__new__'
p32
S'<built-in method __new__ of type object>'
p33
sS'__format__'
p34
S'<built-in method __format__ of OperationalError object>'
p35
sS'__class__'
p36
S"<class 'sqlite3.OperationalError'>"
p37
sS'__doc__'
p38
S'None'
p39
sS'__getitem__'
p40
S"<method-wrapper '__getitem__' of OperationalError object>"
p41
sS'__setstate__'
p42
S'<built-in method __setstate__ of OperationalError object>'
p43
sS'__getattribute__'
p44
S"<method-wrapper '__getattribute__' of OperationalError object>"
p45
sS'args'
p46
S"('Cannot add a UNIQUE column',)"
p47
sS'__subclasshook__'
p48
S'<built-in method __subclasshook__ of type object>'
p49
sS'__unicode__'
p50
S'<built-in method __unicode__ of OperationalError object>'
p51
sS'__delattr__'
p52
S"<method-wrapper '__delattr__' of OperationalError object>"
p53
sS'__repr__'
p54
S"<method-wrapper '__repr__' of OperationalError object>"
p55
sS'__hash__'
p56
S"<method-wrapper '__hash__' of OperationalError object>"
p57
ssS'evalue'
p58
S'Cannot add a UNIQUE column'
p59
sS'request'
p60
ccopy_reg
_reconstructor
p61
(cgluon.html
BEAUTIFY
p62
c__builtin__
object
p63
NtRp64
(dp65
S'attributes'
p66
(dp67
sS'components'
p68
(lp69
g61
(cgluon.html
TABLE
p70
g63
NtRp71
(dp72
g66
(dp73
S'level'
p74
I5
ssS'parent'
p75
Nsg68
(lp76
g61
(cgluon.html
TR
p77
g63
NtRp78
(dp79
g66
(dp80
sg75
g71
sg68
(lp81
g61
(cgluon.html
TD
p82
g63
NtRp83
(dp84
g66
(dp85
S'_style'
p86
S'font-weight:bold;vertical-align:top'
p87
ssg75
g78
sg68
(lp88
S'ajax'
p89
asbag61
(g82
g63
NtRp90
(dp91
g66
(dp92
S'_valign'
p93
S'top'
p94
ssg75
g78
sg68
(lp95
S':'
asbag61
(g82
g63
NtRp96
(dp97
g66
(dp98
sg75
g78
sg68
(lp99
g61
(g62
g63
NtRp100
(dp101
g66
(dp102
g74
I5
ssg75
g96
sg68
(lp103
S'False'
p104
asbasbasbag61
(g77
g63
NtRp105
(dp106
g66
(dp107
sg75
g71
sg68
(lp108
g61
(g82
g63
NtRp109
(dp110
g66
(dp111
g86
g87
ssg75
g105
sg68
(lp112
S'application'
p113
asbag61
(g82
g63
NtRp114
(dp115
g66
(dp116
g93
g94
ssg75
g105
sg68
(lp117
S':'
asbag61
(g82
g63
NtRp118
(dp119
g66
(dp120
sg75
g105
sg68
(lp121
g61
(g62
g63
NtRp122
(dp123
g66
(dp124
g74
I5
ssg75
g118
sg68
(lp125
S'loja'
p126
asbasbasbag61
(g77
g63
NtRp127
(dp128
g66
(dp129
sg75
g71
sg68
(lp130
g61
(g82
g63
NtRp131
(dp132
g66
(dp133
g86
g87
ssg75
g127
sg68
(lp134
g46
asbag61
(g82
g63
NtRp135
(dp136
g66
(dp137
g93
g94
ssg75
g127
sg68
(lp138
S':'
asbag61
(g82
g63
NtRp139
(dp140
g66
(dp141
sg75
g127
sg68
(lp142
g61
(g62
g63
NtRp143
(dp144
g66
(dp145
g74
I5
ssg75
g139
sg68
(lp146
g61
(g70
g63
NtRp147
(dp148
g66
(dp149
g74
I4
ssg75
Nsg68
(lp150
sbasbasbasbag61
(g77
g63
NtRp151
(dp152
g66
(dp153
sg75
g71
sg68
(lp154
g61
(g82
g63
NtRp155
(dp156
g66
(dp157
g86
g87
ssg75
g151
sg68
(lp158
S'body'
p159
asbag61
(g82
g63
NtRp160
(dp161
g66
(dp162
g93
g94
ssg75
g151
sg68
(lp163
S':'
asbag61
(g82
g63
NtRp164
(dp165
g66
(dp166
sg75
g151
sg68
(lp167
g61
(g62
g63
NtRp168
(dp169
g66
(dp170
g74
I5
ssg75
g164
sg68
(lp171
S'<cStringIO.StringO object at 0x0529A2E0>'
p172
asbasbasbag61
(g77
g63
NtRp173
(dp174
g66
(dp175
sg75
g71
sg68
(lp176
g61
(g82
g63
NtRp177
(dp178
g66
(dp179
g86
g87
ssg75
g173
sg68
(lp180
S'client'
p181
asbag61
(g82
g63
NtRp182
(dp183
g66
(dp184
g93
g94
ssg75
g173
sg68
(lp185
S':'
asbag61
(g82
g63
NtRp186
(dp187
g66
(dp188
sg75
g173
sg68
(lp189
g61
(g62
g63
NtRp190
(dp191
g66
(dp192
g74
I5
ssg75
g186
sg68
(lp193
S'127.0.0.1'
p194
asbasbasbag61
(g77
g63
NtRp195
(dp196
g66
(dp197
sg75
g71
sg68
(lp198
g61
(g82
g63
NtRp199
(dp200
g66
(dp201
g86
g87
ssg75
g195
sg68
(lp202
S'controller'
p203
asbag61
(g82
g63
NtRp204
(dp205
g66
(dp206
g93
g94
ssg75
g195
sg68
(lp207
S':'
asbag61
(g82
g63
NtRp208
(dp209
g66
(dp210
sg75
g195
sg68
(lp211
g61
(g62
g63
NtRp212
(dp213
g66
(dp214
g74
I5
ssg75
g208
sg68
(lp215
S'home'
p216
asbasbasbag61
(g77
g63
NtRp217
(dp218
g66
(dp219
sg75
g71
sg68
(lp220
g61
(g82
g63
NtRp221
(dp222
g66
(dp223
g86
g87
ssg75
g217
sg68
(lp224
S'cookies'
p225
asbag61
(g82
g63
NtRp226
(dp227
g66
(dp228
g93
g94
ssg75
g217
sg68
(lp229
S':'
asbag61
(g82
g63
NtRp230
(dp231
g66
(dp232
sg75
g217
sg68
(lp233
g61
(g62
g63
NtRp234
(dp235
g66
(dp236
g74
I5
ssg75
g230
sg68
(lp237
g61
(g70
g63
NtRp238
(dp239
g66
(dp240
g74
I4
ssg75
Nsg68
(lp241
g61
(g77
g63
NtRp242
(dp243
g66
(dp244
sg75
g238
sg68
(lp245
g61
(g82
g63
NtRp246
(dp247
g66
(dp248
g86
g87
ssg75
g242
sg68
(lp249
S'session_id_admin'
p250
asbag61
(g82
g63
NtRp251
(dp252
g66
(dp253
g93
g94
ssg75
g242
sg68
(lp254
S':'
asbag61
(g82
g63
NtRp255
(dp256
g66
(dp257
sg75
g242
sg68
(lp258
g61
(g62
g63
NtRp259
(dp260
g66
(dp261
g74
I4
ssg75
g255
sg68
(lp262
g61
(g70
g63
NtRp263
(dp264
g66
(dp265
g74
I3
ssg75
Nsg68
(lp266
g61
(g77
g63
NtRp267
(dp268
g66
(dp269
sg75
g263
sg68
(lp270
g61
(g82
g63
NtRp271
(dp272
g66
(dp273
g86
g87
ssg75
g267
sg68
(lp274
S'comment'
p275
asbag61
(g82
g63
NtRp276
(dp277
g66
(dp278
g93
g94
ssg75
g267
sg68
(lp279
S':'
asbag61
(g82
g63
NtRp280
(dp281
g66
(dp282
sg75
g267
sg68
(lp283
g61
(g62
g63
NtRp284
(dp285
g66
(dp286
g74
I3
ssg75
g280
sg68
(lp287
S''
asbasbasbag61
(g77
g63
NtRp288
(dp289
g66
(dp290
sg75
g263
sg68
(lp291
g61
(g82
g63
NtRp292
(dp293
g66
(dp294
g86
g87
ssg75
g288
sg68
(lp295
S'domain'
p296
asbag61
(g82
g63
NtRp297
(dp298
g66
(dp299
g93
g94
ssg75
g288
sg68
(lp300
S':'
asbag61
(g82
g63
NtRp301
(dp302
g66
(dp303
sg75
g288
sg68
(lp304
g61
(g62
g63
NtRp305
(dp306
g66
(dp307
g74
I3
ssg75
g301
sg68
(lp308
S''
asbasbasbag61
(g77
g63
NtRp309
(dp310
g66
(dp311
sg75
g263
sg68
(lp312
g61
(g82
g63
NtRp313
(dp314
g66
(dp315
g86
g87
ssg75
g309
sg68
(lp316
S'expires'
p317
asbag61
(g82
g63
NtRp318
(dp319
g66
(dp320
g93
g94
ssg75
g309
sg68
(lp321
S':'
asbag61
(g82
g63
NtRp322
(dp323
g66
(dp324
sg75
g309
sg68
(lp325
g61
(g62
g63
NtRp326
(dp327
g66
(dp328
g74
I3
ssg75
g322
sg68
(lp329
S''
asbasbasbag61
(g77
g63
NtRp330
(dp331
g66
(dp332
sg75
g263
sg68
(lp333
g61
(g82
g63
NtRp334
(dp335
g66
(dp336
g86
g87
ssg75
g330
sg68
(lp337
S'httponly'
p338
asbag61
(g82
g63
NtRp339
(dp340
g66
(dp341
g93
g94
ssg75
g330
sg68
(lp342
S':'
asbag61
(g82
g63
NtRp343
(dp344
g66
(dp345
sg75
g330
sg68
(lp346
g61
(g62
g63
NtRp347
(dp348
g66
(dp349
g74
I3
ssg75
g343
sg68
(lp350
S''
asbasbasbag61
(g77
g63
NtRp351
(dp352
g66
(dp353
sg75
g263
sg68
(lp354
g61
(g82
g63
NtRp355
(dp356
g66
(dp357
g86
g87
ssg75
g351
sg68
(lp358
S'max-age'
p359
asbag61
(g82
g63
NtRp360
(dp361
g66
(dp362
g93
g94
ssg75
g351
sg68
(lp363
S':'
asbag61
(g82
g63
NtRp364
(dp365
g66
(dp366
sg75
g351
sg68
(lp367
g61
(g62
g63
NtRp368
(dp369
g66
(dp370
g74
I3
ssg75
g364
sg68
(lp371
S''
asbasbasbag61
(g77
g63
NtRp372
(dp373
g66
(dp374
sg75
g263
sg68
(lp375
g61
(g82
g63
NtRp376
(dp377
g66
(dp378
g86
g87
ssg75
g372
sg68
(lp379
S'path'
p380
asbag61
(g82
g63
NtRp381
(dp382
g66
(dp383
g93
g94
ssg75
g372
sg68
(lp384
S':'
asbag61
(g82
g63
NtRp385
(dp386
g66
(dp387
sg75
g372
sg68
(lp388
g61
(g62
g63
NtRp389
(dp390
g66
(dp391
g74
I3
ssg75
g385
sg68
(lp392
S''
asbasbasbag61
(g77
g63
NtRp393
(dp394
g66
(dp395
sg75
g263
sg68
(lp396
g61
(g82
g63
NtRp397
(dp398
g66
(dp399
g86
g87
ssg75
g393
sg68
(lp400
S'secure'
p401
asbag61
(g82
g63
NtRp402
(dp403
g66
(dp404
g93
g94
ssg75
g393
sg68
(lp405
S':'
asbag61
(g82
g63
NtRp406
(dp407
g66
(dp408
sg75
g393
sg68
(lp409
g61
(g62
g63
NtRp410
(dp411
g66
(dp412
g74
I3
ssg75
g406
sg68
(lp413
S''
asbasbasbag61
(g77
g63
NtRp414
(dp415
g66
(dp416
sg75
g263
sg68
(lp417
g61
(g82
g63
NtRp418
(dp419
g66
(dp420
g86
g87
ssg75
g414
sg68
(lp421
S'version'
p422
asbag61
(g82
g63
NtRp423
(dp424
g66
(dp425
g93
g94
ssg75
g414
sg68
(lp426
S':'
asbag61
(g82
g63
NtRp427
(dp428
g66
(dp429
sg75
g414
sg68
(lp430
g61
(g62
g63
NtRp431
(dp432
g66
(dp433
g74
I3
ssg75
g427
sg68
(lp434
S''
asbasbasbasbasbasbasbag61
(g77
g63
NtRp435
(dp436
g66
(dp437
sg75
g238
sg68
(lp438
g61
(g82
g63
NtRp439
(dp440
g66
(dp441
g86
g87
ssg75
g435
sg68
(lp442
S'session_id_loja'
p443
asbag61
(g82
g63
NtRp444
(dp445
g66
(dp446
g93
g94
ssg75
g435
sg68
(lp447
S':'
asbag61
(g82
g63
NtRp448
(dp449
g66
(dp450
sg75
g435
sg68
(lp451
g61
(g62
g63
NtRp452
(dp453
g66
(dp454
g74
I4
ssg75
g448
sg68
(lp455
g61
(g70
g63
NtRp456
(dp457
g66
(dp458
g74
I3
ssg75
Nsg68
(lp459
g61
(g77
g63
NtRp460
(dp461
g66
(dp462
sg75
g456
sg68
(lp463
g61
(g82
g63
NtRp464
(dp465
g66
(dp466
g86
g87
ssg75
g460
sg68
(lp467
g275
asbag61
(g82
g63
NtRp468
(dp469
g66
(dp470
g93
g94
ssg75
g460
sg68
(lp471
S':'
asbag61
(g82
g63
NtRp472
(dp473
g66
(dp474
sg75
g460
sg68
(lp475
g61
(g62
g63
NtRp476
(dp477
g66
(dp478
g74
I3
ssg75
g472
sg68
(lp479
S''
asbasbasbag61
(g77
g63
NtRp480
(dp481
g66
(dp482
sg75
g456
sg68
(lp483
g61
(g82
g63
NtRp484
(dp485
g66
(dp486
g86
g87
ssg75
g480
sg68
(lp487
g296
asbag61
(g82
g63
NtRp488
(dp489
g66
(dp490
g93
g94
ssg75
g480
sg68
(lp491
S':'
asbag61
(g82
g63
NtRp492
(dp493
g66
(dp494
sg75
g480
sg68
(lp495
g61
(g62
g63
NtRp496
(dp497
g66
(dp498
g74
I3
ssg75
g492
sg68
(lp499
S''
asbasbasbag61
(g77
g63
NtRp500
(dp501
g66
(dp502
sg75
g456
sg68
(lp503
g61
(g82
g63
NtRp504
(dp505
g66
(dp506
g86
g87
ssg75
g500
sg68
(lp507
g317
asbag61
(g82
g63
NtRp508
(dp509
g66
(dp510
g93
g94
ssg75
g500
sg68
(lp511
S':'
asbag61
(g82
g63
NtRp512
(dp513
g66
(dp514
sg75
g500
sg68
(lp515
g61
(g62
g63
NtRp516
(dp517
g66
(dp518
g74
I3
ssg75
g512
sg68
(lp519
S''
asbasbasbag61
(g77
g63
NtRp520
(dp521
g66
(dp522
sg75
g456
sg68
(lp523
g61
(g82
g63
NtRp524
(dp525
g66
(dp526
g86
g87
ssg75
g520
sg68
(lp527
g338
asbag61
(g82
g63
NtRp528
(dp529
g66
(dp530
g93
g94
ssg75
g520
sg68
(lp531
S':'
asbag61
(g82
g63
NtRp532
(dp533
g66
(dp534
sg75
g520
sg68
(lp535
g61
(g62
g63
NtRp536
(dp537
g66
(dp538
g74
I3
ssg75
g532
sg68
(lp539
S''
asbasbasbag61
(g77
g63
NtRp540
(dp541
g66
(dp542
sg75
g456
sg68
(lp543
g61
(g82
g63
NtRp544
(dp545
g66
(dp546
g86
g87
ssg75
g540
sg68
(lp547
g359
asbag61
(g82
g63
NtRp548
(dp549
g66
(dp550
g93
g94
ssg75
g540
sg68
(lp551
S':'
asbag61
(g82
g63
NtRp552
(dp553
g66
(dp554
sg75
g540
sg68
(lp555
g61
(g62
g63
NtRp556
(dp557
g66
(dp558
g74
I3
ssg75
g552
sg68
(lp559
S''
asbasbasbag61
(g77
g63
NtRp560
(dp561
g66
(dp562
sg75
g456
sg68
(lp563
g61
(g82
g63
NtRp564
(dp565
g66
(dp566
g86
g87
ssg75
g560
sg68
(lp567
g380
asbag61
(g82
g63
NtRp568
(dp569
g66
(dp570
g93
g94
ssg75
g560
sg68
(lp571
S':'
asbag61
(g82
g63
NtRp572
(dp573
g66
(dp574
sg75
g560
sg68
(lp575
g61
(g62
g63
NtRp576
(dp577
g66
(dp578
g74
I3
ssg75
g572
sg68
(lp579
S''
asbasbasbag61
(g77
g63
NtRp580
(dp581
g66
(dp582
sg75
g456
sg68
(lp583
g61
(g82
g63
NtRp584
(dp585
g66
(dp586
g86
g87
ssg75
g580
sg68
(lp587
g401
asbag61
(g82
g63
NtRp588
(dp589
g66
(dp590
g93
g94
ssg75
g580
sg68
(lp591
S':'
asbag61
(g82
g63
NtRp592
(dp593
g66
(dp594
sg75
g580
sg68
(lp595
g61
(g62
g63
NtRp596
(dp597
g66
(dp598
g74
I3
ssg75
g592
sg68
(lp599
S''
asbasbasbag61
(g77
g63
NtRp600
(dp601
g66
(dp602
sg75
g456
sg68
(lp603
g61
(g82
g63
NtRp604
(dp605
g66
(dp606
g86
g87
ssg75
g600
sg68
(lp607
g422
asbag61
(g82
g63
NtRp608
(dp609
g66
(dp610
g93
g94
ssg75
g600
sg68
(lp611
S':'
asbag61
(g82
g63
NtRp612
(dp613
g66
(dp614
sg75
g600
sg68
(lp615
g61
(g62
g63
NtRp616
(dp617
g66
(dp618
g74
I3
ssg75
g612
sg68
(lp619
S''
asbasbasbasbasbasbasbasbasbasbasbag61
(g77
g63
NtRp620
(dp621
g66
(dp622
sg75
g71
sg68
(lp623
g61
(g82
g63
NtRp624
(dp625
g66
(dp626
g86
g87
ssg75
g620
sg68
(lp627
S'env'
p628
asbag61
(g82
g63
NtRp629
(dp630
g66
(dp631
g93
g94
ssg75
g620
sg68
(lp632
S':'
asbag61
(g82
g63
NtRp633
(dp634
g66
(dp635
sg75
g620
sg68
(lp636
g61
(g62
g63
NtRp637
(dp638
g66
(dp639
g74
I5
ssg75
g633
sg68
(lp640
g61
(g70
g63
NtRp641
(dp642
g66
(dp643
g74
I4
ssg75
Nsg68
(lp644
g61
(g77
g63
NtRp645
(dp646
g66
(dp647
sg75
g641
sg68
(lp648
g61
(g82
g63
NtRp649
(dp650
g66
(dp651
g86
g87
ssg75
g645
sg68
(lp652
S'app_folders'
p653
asbag61
(g82
g63
NtRp654
(dp655
g66
(dp656
g93
g94
ssg75
g645
sg68
(lp657
S':'
asbag61
(g82
g63
NtRp658
(dp659
g66
(dp660
sg75
g645
sg68
(lp661
g61
(g62
g63
NtRp662
(dp663
g66
(dp664
g74
I4
ssg75
g658
sg68
(lp665
S"set(['c:\\\\Users\\\\rochacbruno\\\\aula7_mar12\\\\web2py\\\\applications\\\\admin\\\\', 'c:\\\\Users\\\\rochacbruno\\\\aula7_mar12\\\\web2py\\\\applications\\\\loja\\\\'])"
p666
asbasbasbag61
(g77
g63
NtRp667
(dp668
g66
(dp669
sg75
g641
sg68
(lp670
g61
(g82
g63
NtRp671
(dp672
g66
(dp673
g86
g87
ssg75
g667
sg68
(lp674
S'applications_parent'
p675
asbag61
(g82
g63
NtRp676
(dp677
g66
(dp678
g93
g94
ssg75
g667
sg68
(lp679
S':'
asbag61
(g82
g63
NtRp680
(dp681
g66
(dp682
sg75
g667
sg68
(lp683
g61
(g62
g63
NtRp684
(dp685
g66
(dp686
g74
I4
ssg75
g680
sg68
(lp687
S'c:\\Users\\rochacbruno\\aula7_mar12\\web2py'
p688
asbasbasbag61
(g77
g63
NtRp689
(dp690
g66
(dp691
sg75
g641
sg68
(lp692
g61
(g82
g63
NtRp693
(dp694
g66
(dp695
g86
g87
ssg75
g689
sg68
(lp696
S'cmd_args'
p697
asbag61
(g82
g63
NtRp698
(dp699
g66
(dp700
g93
g94
ssg75
g689
sg68
(lp701
S':'
asbag61
(g82
g63
NtRp702
(dp703
g66
(dp704
sg75
g689
sg68
(lp705
g61
(g62
g63
NtRp706
(dp707
g66
(dp708
g74
I4
ssg75
g702
sg68
(lp709
g61
(g70
g63
NtRp710
(dp711
g66
(dp712
g74
I3
ssg75
Nsg68
(lp713
sbasbasbasbag61
(g77
g63
NtRp714
(dp715
g66
(dp716
sg75
g641
sg68
(lp717
g61
(g82
g63
NtRp718
(dp719
g66
(dp720
g86
g87
ssg75
g714
sg68
(lp721
S'cmd_options'
p722
asbag61
(g82
g63
NtRp723
(dp724
g66
(dp725
g93
g94
ssg75
g714
sg68
(lp726
S':'
asbag61
(g82
g63
NtRp727
(dp728
g66
(dp729
sg75
g714
sg68
(lp730
g61
(g62
g63
NtRp731
(dp732
g66
(dp733
g74
I4
ssg75
g727
sg68
(lp734
S"<Values at 0x2a037b0: {'verbose': False, 'ip': '127.0.0.1', 'shutdown_timeout': 5, 'taskbar': False, 'nocron': True, 'pid_filename': 'httpserver.pid', 'maxthreads': None, 'softcron': False, 'server_name': 'rochacbruno-HP', 'bpython': False, 'nogui': False, 'port': 8000, 'extcron': False, 'debuglevel': 30, 'test': None, 'folder': 'c:\\\\Users\\\\rochacbruno\\\\aula7_mar12\\\\web2py', 'config': '', 'import_models': False, 'winservice': '', 'shell': None, 'run': '', 'log_filename': 'httpserver.log', 'args': [''], 'socket_timeout': 5, 'ssl_ca_certificate': None, 'scheduler': None, 'profiler_filename': None, 'ssl_private_key': '', 'password': '1234', 'request_queue_size': 5, 'ssl_certificate': '', 'cronjob': False, 'numthreads': None, 'quiet': False, 'interfaces': None, 'minthreads': None, 'timeout': 10, 'plain': False, 'nobanner': False}>"
p735
asbasbasbag61
(g77
g63
NtRp736
(dp737
g66
(dp738
sg75
g641
sg68
(lp739
g61
(g82
g63
NtRp740
(dp741
g66
(dp742
g86
g87
ssg75
g736
sg68
(lp743
S'db_sessions'
p744
asbag61
(g82
g63
NtRp745
(dp746
g66
(dp747
g93
g94
ssg75
g736
sg68
(lp748
S':'
asbag61
(g82
g63
NtRp749
(dp750
g66
(dp751
sg75
g736
sg68
(lp752
g61
(g62
g63
NtRp753
(dp754
g66
(dp755
g74
I4
ssg75
g749
sg68
(lp756
S'set([])'
p757
asbasbasbag61
(g77
g63
NtRp758
(dp759
g66
(dp760
sg75
g641
sg68
(lp761
g61
(g82
g63
NtRp762
(dp763
g66
(dp764
g86
g87
ssg75
g758
sg68
(lp765
S'debugging'
p766
asbag61
(g82
g63
NtRp767
(dp768
g66
(dp769
g93
g94
ssg75
g758
sg68
(lp770
S':'
asbag61
(g82
g63
NtRp771
(dp772
g66
(dp773
sg75
g758
sg68
(lp774
g61
(g62
g63
NtRp775
(dp776
g66
(dp777
g74
I4
ssg75
g771
sg68
(lp778
g104
asbasbasbag61
(g77
g63
NtRp779
(dp780
g66
(dp781
sg75
g641
sg68
(lp782
g61
(g82
g63
NtRp783
(dp784
g66
(dp785
g86
g87
ssg75
g779
sg68
(lp786
S'gluon_parent'
p787
asbag61
(g82
g63
NtRp788
(dp789
g66
(dp790
g93
g94
ssg75
g779
sg68
(lp791
S':'
asbag61
(g82
g63
NtRp792
(dp793
g66
(dp794
sg75
g779
sg68
(lp795
g61
(g62
g63
NtRp796
(dp797
g66
(dp798
g74
I4
ssg75
g792
sg68
(lp799
S'c:\\Users\\rochacbruno\\aula7_mar12\\web2py'
p800
asbasbasbag61
(g77
g63
NtRp801
(dp802
g66
(dp803
sg75
g641
sg68
(lp804
g61
(g82
g63
NtRp805
(dp806
g66
(dp807
g86
g87
ssg75
g801
sg68
(lp808
S'http_accept'
p809
asbag61
(g82
g63
NtRp810
(dp811
g66
(dp812
g93
g94
ssg75
g801
sg68
(lp813
S':'
asbag61
(g82
g63
NtRp814
(dp815
g66
(dp816
sg75
g801
sg68
(lp817
g61
(g62
g63
NtRp818
(dp819
g66
(dp820
g74
I4
ssg75
g814
sg68
(lp821
S'text/html,application/xhtml+xml,application/xml;q=0.9,*/*;q=0.8'
p822
asbasbasbag61
(g77
g63
NtRp823
(dp824
g66
(dp825
sg75
g641
sg68
(lp826
g61
(g82
g63
NtRp827
(dp828
g66
(dp829
g86
g87
ssg75
g823
sg68
(lp830
S'http_accept_encoding'
p831
asbag61
(g82
g63
NtRp832
(dp833
g66
(dp834
g93
g94
ssg75
g823
sg68
(lp835
S':'
asbag61
(g82
g63
NtRp836
(dp837
g66
(dp838
sg75
g823
sg68
(lp839
g61
(g62
g63
NtRp840
(dp841
g66
(dp842
g74
I4
ssg75
g836
sg68
(lp843
S'gzip, deflate'
p844
asbasbasbag61
(g77
g63
NtRp845
(dp846
g66
(dp847
sg75
g641
sg68
(lp848
g61
(g82
g63
NtRp849
(dp850
g66
(dp851
g86
g87
ssg75
g845
sg68
(lp852
S'http_accept_language'
p853
asbag61
(g82
g63
NtRp854
(dp855
g66
(dp856
g93
g94
ssg75
g845
sg68
(lp857
S':'
asbag61
(g82
g63
NtRp858
(dp859
g66
(dp860
sg75
g845
sg68
(lp861
g61
(g62
g63
NtRp862
(dp863
g66
(dp864
g74
I4
ssg75
g858
sg68
(lp865
S'pt-br,en;q=0.8,pt;q=0.5,en-us;q=0.3'
p866
asbasbasbag61
(g77
g63
NtRp867
(dp868
g66
(dp869
sg75
g641
sg68
(lp870
g61
(g82
g63
NtRp871
(dp872
g66
(dp873
g86
g87
ssg75
g867
sg68
(lp874
S'http_cache_control'
p875
asbag61
(g82
g63
NtRp876
(dp877
g66
(dp878
g93
g94
ssg75
g867
sg68
(lp879
S':'
asbag61
(g82
g63
NtRp880
(dp881
g66
(dp882
sg75
g867
sg68
(lp883
g61
(g62
g63
NtRp884
(dp885
g66
(dp886
g74
I4
ssg75
g880
sg68
(lp887
S'max-age=0'
p888
asbasbasbag61
(g77
g63
NtRp889
(dp890
g66
(dp891
sg75
g641
sg68
(lp892
g61
(g82
g63
NtRp893
(dp894
g66
(dp895
g86
g87
ssg75
g889
sg68
(lp896
S'http_connection'
p897
asbag61
(g82
g63
NtRp898
(dp899
g66
(dp900
g93
g94
ssg75
g889
sg68
(lp901
S':'
asbag61
(g82
g63
NtRp902
(dp903
g66
(dp904
sg75
g889
sg68
(lp905
g61
(g62
g63
NtRp906
(dp907
g66
(dp908
g74
I4
ssg75
g902
sg68
(lp909
S'keep-alive'
p910
asbasbasbag61
(g77
g63
NtRp911
(dp912
g66
(dp913
sg75
g641
sg68
(lp914
g61
(g82
g63
NtRp915
(dp916
g66
(dp917
g86
g87
ssg75
g911
sg68
(lp918
S'http_cookie'
p919
asbag61
(g82
g63
NtRp920
(dp921
g66
(dp922
g93
g94
ssg75
g911
sg68
(lp923
S':'
asbag61
(g82
g63
NtRp924
(dp925
g66
(dp926
sg75
g911
sg68
(lp927
g61
(g62
g63
NtRp928
(dp929
g66
(dp930
g74
I4
ssg75
g924
sg68
(lp931
S'session_id_admin=127.0.0.1-1f6127dc-b560-48e5-b2a5-8063d9f2445a; session_id_loja=127.0.0.1-61b8cf1c-9134-4b11-9b6b-996aea8b69a0'
p932
asbasbasbag61
(g77
g63
NtRp933
(dp934
g66
(dp935
sg75
g641
sg68
(lp936
g61
(g82
g63
NtRp937
(dp938
g66
(dp939
g86
g87
ssg75
g933
sg68
(lp940
S'http_host'
p941
asbag61
(g82
g63
NtRp942
(dp943
g66
(dp944
g93
g94
ssg75
g933
sg68
(lp945
S':'
asbag61
(g82
g63
NtRp946
(dp947
g66
(dp948
sg75
g933
sg68
(lp949
g61
(g62
g63
NtRp950
(dp951
g66
(dp952
g74
I4
ssg75
g946
sg68
(lp953
S'localhost:8000'
p954
asbasbasbag61
(g77
g63
NtRp955
(dp956
g66
(dp957
sg75
g641
sg68
(lp958
g61
(g82
g63
NtRp959
(dp960
g66
(dp961
g86
g87
ssg75
g955
sg68
(lp962
S'http_referer'
p963
asbag61
(g82
g63
NtRp964
(dp965
g66
(dp966
g93
g94
ssg75
g955
sg68
(lp967
S':'
asbag61
(g82
g63
NtRp968
(dp969
g66
(dp970
sg75
g955
sg68
(lp971
g61
(g62
g63
NtRp972
(dp973
g66
(dp974
g74
I4
ssg75
g968
sg68
(lp975
S'http://localhost:8000/loja/home/user/login'
p976
asbasbasbag61
(g77
g63
NtRp977
(dp978
g66
(dp979
sg75
g641
sg68
(lp980
g61
(g82
g63
NtRp981
(dp982
g66
(dp983
g86
g87
ssg75
g977
sg68
(lp984
S'http_user_agent'
p985
asbag61
(g82
g63
NtRp986
(dp987
g66
(dp988
g93
g94
ssg75
g977
sg68
(lp989
S':'
asbag61
(g82
g63
NtRp990
(dp991
g66
(dp992
sg75
g977
sg68
(lp993
g61
(g62
g63
NtRp994
(dp995
g66
(dp996
g74
I4
ssg75
g990
sg68
(lp997
S'Mozilla/5.0 (Windows NT 6.1; rv:11.0) Gecko/20100101 Firefox/11.0'
p998
asbasbasbag61
(g77
g63
NtRp999
(dp1000
g66
(dp1001
sg75
g641
sg68
(lp1002
g61
(g82
g63
NtRp1003
(dp1004
g66
(dp1005
g86
g87
ssg75
g999
sg68
(lp1006
S'is_jython'
p1007
asbag61
(g82
g63
NtRp1008
(dp1009
g66
(dp1010
g93
g94
ssg75
g999
sg68
(lp1011
S':'
asbag61
(g82
g63
NtRp1012
(dp1013
g66
(dp1014
sg75
g999
sg68
(lp1015
g61
(g62
g63
NtRp1016
(dp1017
g66
(dp1018
g74
I4
ssg75
g1012
sg68
(lp1019
g104
asbasbasbag61
(g77
g63
NtRp1020
(dp1021
g66
(dp1022
sg75
g641
sg68
(lp1023
g61
(g82
g63
NtRp1024
(dp1025
g66
(dp1026
g86
g87
ssg75
g1020
sg68
(lp1027
S'is_pypy'
p1028
asbag61
(g82
g63
NtRp1029
(dp1030
g66
(dp1031
g93
g94
ssg75
g1020
sg68
(lp1032
S':'
asbag61
(g82
g63
NtRp1033
(dp1034
g66
(dp1035
sg75
g1020
sg68
(lp1036
g61
(g62
g63
NtRp1037
(dp1038
g66
(dp1039
g74
I4
ssg75
g1033
sg68
(lp1040
g104
asbasbasbag61
(g77
g63
NtRp1041
(dp1042
g66
(dp1043
sg75
g641
sg68
(lp1044
g61
(g82
g63
NtRp1045
(dp1046
g66
(dp1047
g86
g87
ssg75
g1041
sg68
(lp1048
S'path_info'
p1049
asbag61
(g82
g63
NtRp1050
(dp1051
g66
(dp1052
g93
g94
ssg75
g1041
sg68
(lp1053
S':'
asbag61
(g82
g63
NtRp1054
(dp1055
g66
(dp1056
sg75
g1041
sg68
(lp1057
g61
(g62
g63
NtRp1058
(dp1059
g66
(dp1060
g74
I4
ssg75
g1054
sg68
(lp1061
S'/loja/home/index'
p1062
asbasbasbag61
(g77
g63
NtRp1063
(dp1064
g66
(dp1065
sg75
g641
sg68
(lp1066
g61
(g82
g63
NtRp1067
(dp1068
g66
(dp1069
g86
g87
ssg75
g1063
sg68
(lp1070
S'query_string'
p1071
asbag61
(g82
g63
NtRp1072
(dp1073
g66
(dp1074
g93
g94
ssg75
g1063
sg68
(lp1075
S':'
asbag61
(g82
g63
NtRp1076
(dp1077
g66
(dp1078
sg75
g1063
sg68
(lp1079
g61
(g62
g63
NtRp1080
(dp1081
g66
(dp1082
g74
I4
ssg75
g1076
sg68
(lp1083
S''
asbasbasbag61
(g77
g63
NtRp1084
(dp1085
g66
(dp1086
sg75
g641
sg68
(lp1087
g61
(g82
g63
NtRp1088
(dp1089
g66
(dp1090
g86
g87
ssg75
g1084
sg68
(lp1091
S'remote_addr'
p1092
asbag61
(g82
g63
NtRp1093
(dp1094
g66
(dp1095
g93
g94
ssg75
g1084
sg68
(lp1096
S':'
asbag61
(g82
g63
NtRp1097
(dp1098
g66
(dp1099
sg75
g1084
sg68
(lp1100
g61
(g62
g63
NtRp1101
(dp1102
g66
(dp1103
g74
I4
ssg75
g1097
sg68
(lp1104
g194
asbasbasbag61
(g77
g63
NtRp1105
(dp1106
g66
(dp1107
sg75
g641
sg68
(lp1108
g61
(g82
g63
NtRp1109
(dp1110
g66
(dp1111
g86
g87
ssg75
g1105
sg68
(lp1112
S'remote_port'
p1113
asbag61
(g82
g63
NtRp1114
(dp1115
g66
(dp1116
g93
g94
ssg75
g1105
sg68
(lp1117
S':'
asbag61
(g82
g63
NtRp1118
(dp1119
g66
(dp1120
sg75
g1105
sg68
(lp1121
g61
(g62
g63
NtRp1122
(dp1123
g66
(dp1124
g74
I4
ssg75
g1118
sg68
(lp1125
S'51673'
p1126
asbasbasbag61
(g77
g63
NtRp1127
(dp1128
g66
(dp1129
sg75
g641
sg68
(lp1130
g61
(g82
g63
NtRp1131
(dp1132
g66
(dp1133
g86
g87
ssg75
g1127
sg68
(lp1134
S'request_method'
p1135
asbag61
(g82
g63
NtRp1136
(dp1137
g66
(dp1138
g93
g94
ssg75
g1127
sg68
(lp1139
S':'
asbag61
(g82
g63
NtRp1140
(dp1141
g66
(dp1142
sg75
g1127
sg68
(lp1143
g61
(g62
g63
NtRp1144
(dp1145
g66
(dp1146
g74
I4
ssg75
g1140
sg68
(lp1147
S'GET'
p1148
asbasbasbag61
(g77
g63
NtRp1149
(dp1150
g66
(dp1151
sg75
g641
sg68
(lp1152
g61
(g82
g63
NtRp1153
(dp1154
g66
(dp1155
g86
g87
ssg75
g1149
sg68
(lp1156
S'request_uri'
p1157
asbag61
(g82
g63
NtRp1158
(dp1159
g66
(dp1160
g93
g94
ssg75
g1149
sg68
(lp1161
S':'
asbag61
(g82
g63
NtRp1162
(dp1163
g66
(dp1164
sg75
g1149
sg68
(lp1165
g61
(g62
g63
NtRp1166
(dp1167
g66
(dp1168
g74
I4
ssg75
g1162
sg68
(lp1169
g1062
asbasbasbag61
(g77
g63
NtRp1170
(dp1171
g66
(dp1172
sg75
g641
sg68
(lp1173
g61
(g82
g63
NtRp1174
(dp1175
g66
(dp1176
g86
g87
ssg75
g1170
sg68
(lp1177
S'script_name'
p1178
asbag61
(g82
g63
NtRp1179
(dp1180
g66
(dp1181
g93
g94
ssg75
g1170
sg68
(lp1182
S':'
asbag61
(g82
g63
NtRp1183
(dp1184
g66
(dp1185
sg75
g1170
sg68
(lp1186
g61
(g62
g63
NtRp1187
(dp1188
g66
(dp1189
g74
I4
ssg75
g1183
sg68
(lp1190
S''
asbasbasbag61
(g77
g63
NtRp1191
(dp1192
g66
(dp1193
sg75
g641
sg68
(lp1194
g61
(g82
g63
NtRp1195
(dp1196
g66
(dp1197
g86
g87
ssg75
g1191
sg68
(lp1198
S'server_name'
p1199
asbag61
(g82
g63
NtRp1200
(dp1201
g66
(dp1202
g93
g94
ssg75
g1191
sg68
(lp1203
S':'
asbag61
(g82
g63
NtRp1204
(dp1205
g66
(dp1206
sg75
g1191
sg68
(lp1207
g61
(g62
g63
NtRp1208
(dp1209
g66
(dp1210
g74
I4
ssg75
g1204
sg68
(lp1211
S'rochacbruno-HP'
p1212
asbasbasbag61
(g77
g63
NtRp1213
(dp1214
g66
(dp1215
sg75
g641
sg68
(lp1216
g61
(g82
g63
NtRp1217
(dp1218
g66
(dp1219
g86
g87
ssg75
g1213
sg68
(lp1220
S'server_port'
p1221
asbag61
(g82
g63
NtRp1222
(dp1223
g66
(dp1224
g93
g94
ssg75
g1213
sg68
(lp1225
S':'
asbag61
(g82
g63
NtRp1226
(dp1227
g66
(dp1228
sg75
g1213
sg68
(lp1229
g61
(g62
g63
NtRp1230
(dp1231
g66
(dp1232
g74
I4
ssg75
g1226
sg68
(lp1233
S'8000'
p1234
asbasbasbag61
(g77
g63
NtRp1235
(dp1236
g66
(dp1237
sg75
g641
sg68
(lp1238
g61
(g82
g63
NtRp1239
(dp1240
g66
(dp1241
g86
g87
ssg75
g1235
sg68
(lp1242
S'server_protocol'
p1243
asbag61
(g82
g63
NtRp1244
(dp1245
g66
(dp1246
g93
g94
ssg75
g1235
sg68
(lp1247
S':'
asbag61
(g82
g63
NtRp1248
(dp1249
g66
(dp1250
sg75
g1235
sg68
(lp1251
g61
(g62
g63
NtRp1252
(dp1253
g66
(dp1254
g74
I4
ssg75
g1248
sg68
(lp1255
S'HTTP/1.1'
p1256
asbasbasbag61
(g77
g63
NtRp1257
(dp1258
g66
(dp1259
sg75
g641
sg68
(lp1260
g61
(g82
g63
NtRp1261
(dp1262
g66
(dp1263
g86
g87
ssg75
g1257
sg68
(lp1264
S'server_software'
p1265
asbag61
(g82
g63
NtRp1266
(dp1267
g66
(dp1268
g93
g94
ssg75
g1257
sg68
(lp1269
S':'
asbag61
(g82
g63
NtRp1270
(dp1271
g66
(dp1272
sg75
g1257
sg68
(lp1273
g61
(g62
g63
NtRp1274
(dp1275
g66
(dp1276
g74
I4
ssg75
g1270
sg68
(lp1277
S'Rocket 1.2.4'
p1278
asbasbasbag61
(g77
g63
NtRp1279
(dp1280
g66
(dp1281
sg75
g641
sg68
(lp1282
g61
(g82
g63
NtRp1283
(dp1284
g66
(dp1285
g86
g87
ssg75
g1279
sg68
(lp1286
S'web2py_original_uri'
p1287
asbag61
(g82
g63
NtRp1288
(dp1289
g66
(dp1290
g93
g94
ssg75
g1279
sg68
(lp1291
S':'
asbag61
(g82
g63
NtRp1292
(dp1293
g66
(dp1294
sg75
g1279
sg68
(lp1295
g61
(g62
g63
NtRp1296
(dp1297
g66
(dp1298
g74
I4
ssg75
g1292
sg68
(lp1299
g1062
asbasbasbag61
(g77
g63
NtRp1300
(dp1301
g66
(dp1302
sg75
g641
sg68
(lp1303
g61
(g82
g63
NtRp1304
(dp1305
g66
(dp1306
g86
g87
ssg75
g1300
sg68
(lp1307
S'web2py_path'
p1308
asbag61
(g82
g63
NtRp1309
(dp1310
g66
(dp1311
g93
g94
ssg75
g1300
sg68
(lp1312
S':'
asbag61
(g82
g63
NtRp1313
(dp1314
g66
(dp1315
sg75
g1300
sg68
(lp1316
g61
(g62
g63
NtRp1317
(dp1318
g66
(dp1319
g74
I4
ssg75
g1313
sg68
(lp1320
g688
asbasbasbag61
(g77
g63
NtRp1321
(dp1322
g66
(dp1323
sg75
g641
sg68
(lp1324
g61
(g82
g63
NtRp1325
(dp1326
g66
(dp1327
g86
g87
ssg75
g1321
sg68
(lp1328
S'web2py_version'
p1329
asbag61
(g82
g63
NtRp1330
(dp1331
g66
(dp1332
g93
g94
ssg75
g1321
sg68
(lp1333
S':'
asbag61
(g82
g63
NtRp1334
(dp1335
g66
(dp1336
sg75
g1321
sg68
(lp1337
g61
(g62
g63
NtRp1338
(dp1339
g66
(dp1340
g74
I4
ssg75
g1334
sg68
(lp1341
g61
(g70
g63
NtRp1342
(dp1343
g66
(dp1344
g74
I3
ssg75
Nsg68
(lp1345
g61
(g77
g63
NtRp1346
(dp1347
g66
(dp1348
sg75
g1342
sg68
(lp1349
g61
(g82
g63
NtRp1350
(dp1351
g66
(dp1352
sg75
g1346
sg68
(lp1353
g61
(g62
g63
NtRp1354
(dp1355
g66
(dp1356
g74
I3
ssg75
g1350
sg68
(lp1357
S'1'
asbasbasbag61
(g77
g63
NtRp1358
(dp1359
g66
(dp1360
sg75
g1342
sg68
(lp1361
g61
(g82
g63
NtRp1362
(dp1363
g66
(dp1364
sg75
g1358
sg68
(lp1365
g61
(g62
g63
NtRp1366
(dp1367
g66
(dp1368
g74
I3
ssg75
g1362
sg68
(lp1369
S'99'
p1370
asbasbasbag61
(g77
g63
NtRp1371
(dp1372
g66
(dp1373
sg75
g1342
sg68
(lp1374
g61
(g82
g63
NtRp1375
(dp1376
g66
(dp1377
sg75
g1371
sg68
(lp1378
g61
(g62
g63
NtRp1379
(dp1380
g66
(dp1381
g74
I3
ssg75
g1375
sg68
(lp1382
S'7'
asbasbasbag61
(g77
g63
NtRp1383
(dp1384
g66
(dp1385
sg75
g1342
sg68
(lp1386
g61
(g82
g63
NtRp1387
(dp1388
g66
(dp1389
sg75
g1383
sg68
(lp1390
g61
(g62
g63
NtRp1391
(dp1392
g66
(dp1393
g74
I3
ssg75
g1387
sg68
(lp1394
S'datetime.datetime(2012, 3, 4, 22, 12, 8)'
p1395
asbasbasbag61
(g77
g63
NtRp1396
(dp1397
g66
(dp1398
sg75
g1342
sg68
(lp1399
g61
(g82
g63
NtRp1400
(dp1401
g66
(dp1402
sg75
g1396
sg68
(lp1403
g61
(g62
g63
NtRp1404
(dp1405
g66
(dp1406
g74
I3
ssg75
g1400
sg68
(lp1407
S'stable'
p1408
asbasbasbasbasbasbasbag61
(g77
g63
NtRp1409
(dp1410
g66
(dp1411
sg75
g641
sg68
(lp1412
g61
(g82
g63
NtRp1413
(dp1414
g66
(dp1415
g86
g87
ssg75
g1409
sg68
(lp1416
S'wsgi_errors'
p1417
asbag61
(g82
g63
NtRp1418
(dp1419
g66
(dp1420
g93
g94
ssg75
g1409
sg68
(lp1421
S':'
asbag61
(g82
g63
NtRp1422
(dp1423
g66
(dp1424
sg75
g1409
sg68
(lp1425
g61
(g62
g63
NtRp1426
(dp1427
g66
(dp1428
g74
I4
ssg75
g1422
sg68
(lp1429
S"<open file '<stderr>', mode 'w' at 0x012B50D0>"
p1430
asbasbasbag61
(g77
g63
NtRp1431
(dp1432
g66
(dp1433
sg75
g641
sg68
(lp1434
g61
(g82
g63
NtRp1435
(dp1436
g66
(dp1437
g86
g87
ssg75
g1431
sg68
(lp1438
S'wsgi_file_wrapper'
p1439
asbag61
(g82
g63
NtRp1440
(dp1441
g66
(dp1442
g93
g94
ssg75
g1431
sg68
(lp1443
S':'
asbag61
(g82
g63
NtRp1444
(dp1445
g66
(dp1446
sg75
g1431
sg68
(lp1447
g61
(g62
g63
NtRp1448
(dp1449
g66
(dp1450
g74
I4
ssg75
g1444
sg68
(lp1451
S'<class wsgiref.util.FileWrapper at 0x02946E30>'
p1452
asbasbasbag61
(g77
g63
NtRp1453
(dp1454
g66
(dp1455
sg75
g641
sg68
(lp1456
g61
(g82
g63
NtRp1457
(dp1458
g66
(dp1459
g86
g87
ssg75
g1453
sg68
(lp1460
S'wsgi_input'
p1461
asbag61
(g82
g63
NtRp1462
(dp1463
g66
(dp1464
g93
g94
ssg75
g1453
sg68
(lp1465
S':'
asbag61
(g82
g63
NtRp1466
(dp1467
g66
(dp1468
sg75
g1453
sg68
(lp1469
g61
(g62
g63
NtRp1470
(dp1471
g66
(dp1472
g74
I4
ssg75
g1466
sg68
(lp1473
S'<socket._fileobject object at 0x02DA4470>'
p1474
asbasbasbag61
(g77
g63
NtRp1475
(dp1476
g66
(dp1477
sg75
g641
sg68
(lp1478
g61
(g82
g63
NtRp1479
(dp1480
g66
(dp1481
g86
g87
ssg75
g1475
sg68
(lp1482
S'wsgi_multiprocess'
p1483
asbag61
(g82
g63
NtRp1484
(dp1485
g66
(dp1486
g93
g94
ssg75
g1475
sg68
(lp1487
S':'
asbag61
(g82
g63
NtRp1488
(dp1489
g66
(dp1490
sg75
g1475
sg68
(lp1491
g61
(g62
g63
NtRp1492
(dp1493
g66
(dp1494
g74
I4
ssg75
g1488
sg68
(lp1495
g104
asbasbasbag61
(g77
g63
NtRp1496
(dp1497
g66
(dp1498
sg75
g641
sg68
(lp1499
g61
(g82
g63
NtRp1500
(dp1501
g66
(dp1502
g86
g87
ssg75
g1496
sg68
(lp1503
S'wsgi_multithread'
p1504
asbag61
(g82
g63
NtRp1505
(dp1506
g66
(dp1507
g93
g94
ssg75
g1496
sg68
(lp1508
S':'
asbag61
(g82
g63
NtRp1509
(dp1510
g66
(dp1511
sg75
g1496
sg68
(lp1512
g61
(g62
g63
NtRp1513
(dp1514
g66
(dp1515
g74
I4
ssg75
g1509
sg68
(lp1516
S'True'
p1517
asbasbasbag61
(g77
g63
NtRp1518
(dp1519
g66
(dp1520
sg75
g641
sg68
(lp1521
g61
(g82
g63
NtRp1522
(dp1523
g66
(dp1524
g86
g87
ssg75
g1518
sg68
(lp1525
S'wsgi_run_once'
p1526
asbag61
(g82
g63
NtRp1527
(dp1528
g66
(dp1529
g93
g94
ssg75
g1518
sg68
(lp1530
S':'
asbag61
(g82
g63
NtRp1531
(dp1532
g66
(dp1533
sg75
g1518
sg68
(lp1534
g61
(g62
g63
NtRp1535
(dp1536
g66
(dp1537
g74
I4
ssg75
g1531
sg68
(lp1538
g104
asbasbasbag61
(g77
g63
NtRp1539
(dp1540
g66
(dp1541
sg75
g641
sg68
(lp1542
g61
(g82
g63
NtRp1543
(dp1544
g66
(dp1545
g86
g87
ssg75
g1539
sg68
(lp1546
S'wsgi_url_scheme'
p1547
asbag61
(g82
g63
NtRp1548
(dp1549
g66
(dp1550
g93
g94
ssg75
g1539
sg68
(lp1551
S':'
asbag61
(g82
g63
NtRp1552
(dp1553
g66
(dp1554
sg75
g1539
sg68
(lp1555
g61
(g62
g63
NtRp1556
(dp1557
g66
(dp1558
g74
I4
ssg75
g1552
sg68
(lp1559
S'http'
p1560
asbasbasbag61
(g77
g63
NtRp1561
(dp1562
g66
(dp1563
sg75
g641
sg68
(lp1564
g61
(g82
g63
NtRp1565
(dp1566
g66
(dp1567
g86
g87
ssg75
g1561
sg68
(lp1568
S'wsgi_version'
p1569
asbag61
(g82
g63
NtRp1570
(dp1571
g66
(dp1572
g93
g94
ssg75
g1561
sg68
(lp1573
S':'
asbag61
(g82
g63
NtRp1574
(dp1575
g66
(dp1576
sg75
g1561
sg68
(lp1577
g61
(g62
g63
NtRp1578
(dp1579
g66
(dp1580
g74
I4
ssg75
g1574
sg68
(lp1581
g61
(g70
g63
NtRp1582
(dp1583
g66
(dp1584
g74
I3
ssg75
Nsg68
(lp1585
g61
(g77
g63
NtRp1586
(dp1587
g66
(dp1588
sg75
g1582
sg68
(lp1589
g61
(g82
g63
NtRp1590
(dp1591
g66
(dp1592
sg75
g1586
sg68
(lp1593
g61
(g62
g63
NtRp1594
(dp1595
g66
(dp1596
g74
I3
ssg75
g1590
sg68
(lp1597
S'1'
asbasbasbag61
(g77
g63
NtRp1598
(dp1599
g66
(dp1600
sg75
g1582
sg68
(lp1601
g61
(g82
g63
NtRp1602
(dp1603
g66
(dp1604
sg75
g1598
sg68
(lp1605
g61
(g62
g63
NtRp1606
(dp1607
g66
(dp1608
g74
I3
ssg75
g1602
sg68
(lp1609
S'0'
asbasbasbasbasbasbasbasbasbasbasbag61
(g77
g63
NtRp1610
(dp1611
g66
(dp1612
sg75
g71
sg68
(lp1613
g61
(g82
g63
NtRp1614
(dp1615
g66
(dp1616
g86
g87
ssg75
g1610
sg68
(lp1617
S'extension'
p1618
asbag61
(g82
g63
NtRp1619
(dp1620
g66
(dp1621
g93
g94
ssg75
g1610
sg68
(lp1622
S':'
asbag61
(g82
g63
NtRp1623
(dp1624
g66
(dp1625
sg75
g1610
sg68
(lp1626
g61
(g62
g63
NtRp1627
(dp1628
g66
(dp1629
g74
I5
ssg75
g1623
sg68
(lp1630
S'html'
p1631
asbasbasbag61
(g77
g63
NtRp1632
(dp1633
g66
(dp1634
sg75
g71
sg68
(lp1635
g61
(g82
g63
NtRp1636
(dp1637
g66
(dp1638
g86
g87
ssg75
g1632
sg68
(lp1639
S'folder'
p1640
asbag61
(g82
g63
NtRp1641
(dp1642
g66
(dp1643
g93
g94
ssg75
g1632
sg68
(lp1644
S':'
asbag61
(g82
g63
NtRp1645
(dp1646
g66
(dp1647
sg75
g1632
sg68
(lp1648
g61
(g62
g63
NtRp1649
(dp1650
g66
(dp1651
g74
I5
ssg75
g1645
sg68
(lp1652
S'c:\\Users\\rochacbruno\\aula7_mar12\\web2py\\applications\\loja\\'
p1653
asbasbasbag61
(g77
g63
NtRp1654
(dp1655
g66
(dp1656
sg75
g71
sg68
(lp1657
g61
(g82
g63
NtRp1658
(dp1659
g66
(dp1660
g86
g87
ssg75
g1654
sg68
(lp1661
S'function'
p1662
asbag61
(g82
g63
NtRp1663
(dp1664
g66
(dp1665
g93
g94
ssg75
g1654
sg68
(lp1666
S':'
asbag61
(g82
g63
NtRp1667
(dp1668
g66
(dp1669
sg75
g1654
sg68
(lp1670
g61
(g62
g63
NtRp1671
(dp1672
g66
(dp1673
g74
I5
ssg75
g1667
sg68
(lp1674
S'index'
p1675
asbasbasbag61
(g77
g63
NtRp1676
(dp1677
g66
(dp1678
sg75
g71
sg68
(lp1679
g61
(g82
g63
NtRp1680
(dp1681
g66
(dp1682
g86
g87
ssg75
g1676
sg68
(lp1683
S'get_vars'
p1684
asbag61
(g82
g63
NtRp1685
(dp1686
g66
(dp1687
g93
g94
ssg75
g1676
sg68
(lp1688
S':'
asbag61
(g82
g63
NtRp1689
(dp1690
g66
(dp1691
sg75
g1676
sg68
(lp1692
g61
(g62
g63
NtRp1693
(dp1694
g66
(dp1695
g74
I5
ssg75
g1689
sg68
(lp1696
g61
(g70
g63
NtRp1697
(dp1698
g66
(dp1699
g74
I4
ssg75
Nsg68
(lp1700
sbasbasbasbag61
(g77
g63
NtRp1701
(dp1702
g66
(dp1703
sg75
g71
sg68
(lp1704
g61
(g82
g63
NtRp1705
(dp1706
g66
(dp1707
g86
g87
ssg75
g1701
sg68
(lp1708
S'global_settings'
p1709
asbag61
(g82
g63
NtRp1710
(dp1711
g66
(dp1712
g93
g94
ssg75
g1701
sg68
(lp1713
S':'
asbag61
(g82
g63
NtRp1714
(dp1715
g66
(dp1716
sg75
g1701
sg68
(lp1717
g61
(g62
g63
NtRp1718
(dp1719
g66
(dp1720
g74
I5
ssg75
g1714
sg68
(lp1721
g61
(g70
g63
NtRp1722
(dp1723
g66
(dp1724
g74
I4
ssg75
Nsg68
(lp1725
g61
(g77
g63
NtRp1726
(dp1727
g66
(dp1728
sg75
g1722
sg68
(lp1729
g61
(g82
g63
NtRp1730
(dp1731
g66
(dp1732
g86
g87
ssg75
g1726
sg68
(lp1733
g653
asbag61
(g82
g63
NtRp1734
(dp1735
g66
(dp1736
g93
g94
ssg75
g1726
sg68
(lp1737
S':'
asbag61
(g82
g63
NtRp1738
(dp1739
g66
(dp1740
sg75
g1726
sg68
(lp1741
g61
(g62
g63
NtRp1742
(dp1743
g66
(dp1744
g74
I4
ssg75
g1738
sg68
(lp1745
S"set(['c:\\\\Users\\\\rochacbruno\\\\aula7_mar12\\\\web2py\\\\applications\\\\admin\\\\', 'c:\\\\Users\\\\rochacbruno\\\\aula7_mar12\\\\web2py\\\\applications\\\\loja\\\\'])"
p1746
asbasbasbag61
(g77
g63
NtRp1747
(dp1748
g66
(dp1749
sg75
g1722
sg68
(lp1750
g61
(g82
g63
NtRp1751
(dp1752
g66
(dp1753
g86
g87
ssg75
g1747
sg68
(lp1754
g675
asbag61
(g82
g63
NtRp1755
(dp1756
g66
(dp1757
g93
g94
ssg75
g1747
sg68
(lp1758
S':'
asbag61
(g82
g63
NtRp1759
(dp1760
g66
(dp1761
sg75
g1747
sg68
(lp1762
g61
(g62
g63
NtRp1763
(dp1764
g66
(dp1765
g74
I4
ssg75
g1759
sg68
(lp1766
g688
asbasbasbag61
(g77
g63
NtRp1767
(dp1768
g66
(dp1769
sg75
g1722
sg68
(lp1770
g61
(g82
g63
NtRp1771
(dp1772
g66
(dp1773
g86
g87
ssg75
g1767
sg68
(lp1774
g697
asbag61
(g82
g63
NtRp1775
(dp1776
g66
(dp1777
g93
g94
ssg75
g1767
sg68
(lp1778
S':'
asbag61
(g82
g63
NtRp1779
(dp1780
g66
(dp1781
sg75
g1767
sg68
(lp1782
g61
(g62
g63
NtRp1783
(dp1784
g66
(dp1785
g74
I4
ssg75
g1779
sg68
(lp1786
g61
(g70
g63
NtRp1787
(dp1788
g66
(dp1789
g74
I3
ssg75
Nsg68
(lp1790
sbasbasbasbag61
(g77
g63
NtRp1791
(dp1792
g66
(dp1793
sg75
g1722
sg68
(lp1794
g61
(g82
g63
NtRp1795
(dp1796
g66
(dp1797
g86
g87
ssg75
g1791
sg68
(lp1798
g722
asbag61
(g82
g63
NtRp1799
(dp1800
g66
(dp1801
g93
g94
ssg75
g1791
sg68
(lp1802
S':'
asbag61
(g82
g63
NtRp1803
(dp1804
g66
(dp1805
sg75
g1791
sg68
(lp1806
g61
(g62
g63
NtRp1807
(dp1808
g66
(dp1809
g74
I4
ssg75
g1803
sg68
(lp1810
S"<Values at 0x2a037b0: {'verbose': False, 'ip': '127.0.0.1', 'shutdown_timeout': 5, 'taskbar': False, 'nocron': True, 'pid_filename': 'httpserver.pid', 'maxthreads': None, 'softcron': False, 'server_name': 'rochacbruno-HP', 'bpython': False, 'nogui': False, 'port': 8000, 'extcron': False, 'debuglevel': 30, 'test': None, 'folder': 'c:\\\\Users\\\\rochacbruno\\\\aula7_mar12\\\\web2py', 'config': '', 'import_models': False, 'winservice': '', 'shell': None, 'run': '', 'log_filename': 'httpserver.log', 'args': [''], 'socket_timeout': 5, 'ssl_ca_certificate': None, 'scheduler': None, 'profiler_filename': None, 'ssl_private_key': '', 'password': '1234', 'request_queue_size': 5, 'ssl_certificate': '', 'cronjob': False, 'numthreads': None, 'quiet': False, 'interfaces': None, 'minthreads': None, 'timeout': 10, 'plain': False, 'nobanner': False}>"
p1811
asbasbasbag61
(g77
g63
NtRp1812
(dp1813
g66
(dp1814
sg75
g1722
sg68
(lp1815
g61
(g82
g63
NtRp1816
(dp1817
g66
(dp1818
g86
g87
ssg75
g1812
sg68
(lp1819
g744
asbag61
(g82
g63
NtRp1820
(dp1821
g66
(dp1822
g93
g94
ssg75
g1812
sg68
(lp1823
S':'
asbag61
(g82
g63
NtRp1824
(dp1825
g66
(dp1826
sg75
g1812
sg68
(lp1827
g61
(g62
g63
NtRp1828
(dp1829
g66
(dp1830
g74
I4
ssg75
g1824
sg68
(lp1831
S'set([])'
p1832
asbasbasbag61
(g77
g63
NtRp1833
(dp1834
g66
(dp1835
sg75
g1722
sg68
(lp1836
g61
(g82
g63
NtRp1837
(dp1838
g66
(dp1839
g86
g87
ssg75
g1833
sg68
(lp1840
g766
asbag61
(g82
g63
NtRp1841
(dp1842
g66
(dp1843
g93
g94
ssg75
g1833
sg68
(lp1844
S':'
asbag61
(g82
g63
NtRp1845
(dp1846
g66
(dp1847
sg75
g1833
sg68
(lp1848
g61
(g62
g63
NtRp1849
(dp1850
g66
(dp1851
g74
I4
ssg75
g1845
sg68
(lp1852
g104
asbasbasbag61
(g77
g63
NtRp1853
(dp1854
g66
(dp1855
sg75
g1722
sg68
(lp1856
g61
(g82
g63
NtRp1857
(dp1858
g66
(dp1859
g86
g87
ssg75
g1853
sg68
(lp1860
g787
asbag61
(g82
g63
NtRp1861
(dp1862
g66
(dp1863
g93
g94
ssg75
g1853
sg68
(lp1864
S':'
asbag61
(g82
g63
NtRp1865
(dp1866
g66
(dp1867
sg75
g1853
sg68
(lp1868
g61
(g62
g63
NtRp1869
(dp1870
g66
(dp1871
g74
I4
ssg75
g1865
sg68
(lp1872
g800
asbasbasbag61
(g77
g63
NtRp1873
(dp1874
g66
(dp1875
sg75
g1722
sg68
(lp1876
g61
(g82
g63
NtRp1877
(dp1878
g66
(dp1879
g86
g87
ssg75
g1873
sg68
(lp1880
g1007
asbag61
(g82
g63
NtRp1881
(dp1882
g66
(dp1883
g93
g94
ssg75
g1873
sg68
(lp1884
S':'
asbag61
(g82
g63
NtRp1885
(dp1886
g66
(dp1887
sg75
g1873
sg68
(lp1888
g61
(g62
g63
NtRp1889
(dp1890
g66
(dp1891
g74
I4
ssg75
g1885
sg68
(lp1892
g104
asbasbasbag61
(g77
g63
NtRp1893
(dp1894
g66
(dp1895
sg75
g1722
sg68
(lp1896
g61
(g82
g63
NtRp1897
(dp1898
g66
(dp1899
g86
g87
ssg75
g1893
sg68
(lp1900
g1028
asbag61
(g82
g63
NtRp1901
(dp1902
g66
(dp1903
g93
g94
ssg75
g1893
sg68
(lp1904
S':'
asbag61
(g82
g63
NtRp1905
(dp1906
g66
(dp1907
sg75
g1893
sg68
(lp1908
g61
(g62
g63
NtRp1909
(dp1910
g66
(dp1911
g74
I4
ssg75
g1905
sg68
(lp1912
g104
asbasbasbag61
(g77
g63
NtRp1913
(dp1914
g66
(dp1915
sg75
g1722
sg68
(lp1916
g61
(g82
g63
NtRp1917
(dp1918
g66
(dp1919
g86
g87
ssg75
g1913
sg68
(lp1920
g1329
asbag61
(g82
g63
NtRp1921
(dp1922
g66
(dp1923
g93
g94
ssg75
g1913
sg68
(lp1924
S':'
asbag61
(g82
g63
NtRp1925
(dp1926
g66
(dp1927
sg75
g1913
sg68
(lp1928
g61
(g62
g63
NtRp1929
(dp1930
g66
(dp1931
g74
I4
ssg75
g1925
sg68
(lp1932
g61
(g70
g63
NtRp1933
(dp1934
g66
(dp1935
g74
I3
ssg75
Nsg68
(lp1936
g61
(g77
g63
NtRp1937
(dp1938
g66
(dp1939
sg75
g1933
sg68
(lp1940
g61
(g82
g63
NtRp1941
(dp1942
g66
(dp1943
sg75
g1937
sg68
(lp1944
g61
(g62
g63
NtRp1945
(dp1946
g66
(dp1947
g74
I3
ssg75
g1941
sg68
(lp1948
S'1'
asbasbasbag61
(g77
g63
NtRp1949
(dp1950
g66
(dp1951
sg75
g1933
sg68
(lp1952
g61
(g82
g63
NtRp1953
(dp1954
g66
(dp1955
sg75
g1949
sg68
(lp1956
g61
(g62
g63
NtRp1957
(dp1958
g66
(dp1959
g74
I3
ssg75
g1953
sg68
(lp1960
S'99'
p1961
asbasbasbag61
(g77
g63
NtRp1962
(dp1963
g66
(dp1964
sg75
g1933
sg68
(lp1965
g61
(g82
g63
NtRp1966
(dp1967
g66
(dp1968
sg75
g1962
sg68
(lp1969
g61
(g62
g63
NtRp1970
(dp1971
g66
(dp1972
g74
I3
ssg75
g1966
sg68
(lp1973
S'7'
asbasbasbag61
(g77
g63
NtRp1974
(dp1975
g66
(dp1976
sg75
g1933
sg68
(lp1977
g61
(g82
g63
NtRp1978
(dp1979
g66
(dp1980
sg75
g1974
sg68
(lp1981
g61
(g62
g63
NtRp1982
(dp1983
g66
(dp1984
g74
I3
ssg75
g1978
sg68
(lp1985
S'datetime.datetime(2012, 3, 4, 22, 12, 8)'
p1986
asbasbasbag61
(g77
g63
NtRp1987
(dp1988
g66
(dp1989
sg75
g1933
sg68
(lp1990
g61
(g82
g63
NtRp1991
(dp1992
g66
(dp1993
sg75
g1987
sg68
(lp1994
g61
(g62
g63
NtRp1995
(dp1996
g66
(dp1997
g74
I3
ssg75
g1991
sg68
(lp1998
g1408
asbasbasbasbasbasbasbasbasbasbasbag61
(g77
g63
NtRp1999
(dp2000
g66
(dp2001
sg75
g71
sg68
(lp2002
g61
(g82
g63
NtRp2003
(dp2004
g66
(dp2005
g86
g87
ssg75
g1999
sg68
(lp2006
S'is_https'
p2007
asbag61
(g82
g63
NtRp2008
(dp2009
g66
(dp2010
g93
g94
ssg75
g1999
sg68
(lp2011
S':'
asbag61
(g82
g63
NtRp2012
(dp2013
g66
(dp2014
sg75
g1999
sg68
(lp2015
g61
(g62
g63
NtRp2016
(dp2017
g66
(dp2018
g74
I5
ssg75
g2012
sg68
(lp2019
g104
asbasbasbag61
(g77
g63
NtRp2020
(dp2021
g66
(dp2022
sg75
g71
sg68
(lp2023
g61
(g82
g63
NtRp2024
(dp2025
g66
(dp2026
g86
g87
ssg75
g2020
sg68
(lp2027
S'is_local'
p2028
asbag61
(g82
g63
NtRp2029
(dp2030
g66
(dp2031
g93
g94
ssg75
g2020
sg68
(lp2032
S':'
asbag61
(g82
g63
NtRp2033
(dp2034
g66
(dp2035
sg75
g2020
sg68
(lp2036
g61
(g62
g63
NtRp2037
(dp2038
g66
(dp2039
g74
I5
ssg75
g2033
sg68
(lp2040
g1517
asbasbasbag61
(g77
g63
NtRp2041
(dp2042
g66
(dp2043
sg75
g71
sg68
(lp2044
g61
(g82
g63
NtRp2045
(dp2046
g66
(dp2047
g86
g87
ssg75
g2041
sg68
(lp2048
S'is_restful'
p2049
asbag61
(g82
g63
NtRp2050
(dp2051
g66
(dp2052
g93
g94
ssg75
g2041
sg68
(lp2053
S':'
asbag61
(g82
g63
NtRp2054
(dp2055
g66
(dp2056
sg75
g2041
sg68
(lp2057
g61
(g62
g63
NtRp2058
(dp2059
g66
(dp2060
g74
I5
ssg75
g2054
sg68
(lp2061
g104
asbasbasbag61
(g77
g63
NtRp2062
(dp2063
g66
(dp2064
sg75
g71
sg68
(lp2065
g61
(g82
g63
NtRp2066
(dp2067
g66
(dp2068
g86
g87
ssg75
g2062
sg68
(lp2069
S'now'
p2070
asbag61
(g82
g63
NtRp2071
(dp2072
g66
(dp2073
g93
g94
ssg75
g2062
sg68
(lp2074
S':'
asbag61
(g82
g63
NtRp2075
(dp2076
g66
(dp2077
sg75
g2062
sg68
(lp2078
g61
(g62
g63
NtRp2079
(dp2080
g66
(dp2081
g74
I5
ssg75
g2075
sg68
(lp2082
S'datetime.datetime(2012, 4, 19, 21, 34, 26, 883000)'
p2083
asbasbasbag61
(g77
g63
NtRp2084
(dp2085
g66
(dp2086
sg75
g71
sg68
(lp2087
g61
(g82
g63
NtRp2088
(dp2089
g66
(dp2090
g86
g87
ssg75
g2084
sg68
(lp2091
S'post_vars'
p2092
asbag61
(g82
g63
NtRp2093
(dp2094
g66
(dp2095
g93
g94
ssg75
g2084
sg68
(lp2096
S':'
asbag61
(g82
g63
NtRp2097
(dp2098
g66
(dp2099
sg75
g2084
sg68
(lp2100
g61
(g62
g63
NtRp2101
(dp2102
g66
(dp2103
g74
I5
ssg75
g2097
sg68
(lp2104
g61
(g70
g63
NtRp2105
(dp2106
g66
(dp2107
g74
I4
ssg75
Nsg68
(lp2108
sbasbasbasbag61
(g77
g63
NtRp2109
(dp2110
g66
(dp2111
sg75
g71
sg68
(lp2112
g61
(g82
g63
NtRp2113
(dp2114
g66
(dp2115
g86
g87
ssg75
g2109
sg68
(lp2116
S'url'
p2117
asbag61
(g82
g63
NtRp2118
(dp2119
g66
(dp2120
g93
g94
ssg75
g2109
sg68
(lp2121
S':'
asbag61
(g82
g63
NtRp2122
(dp2123
g66
(dp2124
sg75
g2109
sg68
(lp2125
g61
(g62
g63
NtRp2126
(dp2127
g66
(dp2128
g74
I5
ssg75
g2122
sg68
(lp2129
S'/loja/home/index'
p2130
asbasbasbag61
(g77
g63
NtRp2131
(dp2132
g66
(dp2133
sg75
g71
sg68
(lp2134
g61
(g82
g63
NtRp2135
(dp2136
g66
(dp2137
g86
g87
ssg75
g2131
sg68
(lp2138
S'utcnow'
p2139
asbag61
(g82
g63
NtRp2140
(dp2141
g66
(dp2142
g93
g94
ssg75
g2131
sg68
(lp2143
S':'
asbag61
(g82
g63
NtRp2144
(dp2145
g66
(dp2146
sg75
g2131
sg68
(lp2147
g61
(g62
g63
NtRp2148
(dp2149
g66
(dp2150
g74
I5
ssg75
g2144
sg68
(lp2151
S'datetime.datetime(2012, 4, 20, 0, 34, 26, 883000)'
p2152
asbasbasbag61
(g77
g63
NtRp2153
(dp2154
g66
(dp2155
sg75
g71
sg68
(lp2156
g61
(g82
g63
NtRp2157
(dp2158
g66
(dp2159
g86
g87
ssg75
g2153
sg68
(lp2160
S'uuid'
p2161
asbag61
(g82
g63
NtRp2162
(dp2163
g66
(dp2164
g93
g94
ssg75
g2153
sg68
(lp2165
S':'
asbag61
(g82
g63
NtRp2166
(dp2167
g66
(dp2168
sg75
g2153
sg68
(lp2169
g61
(g62
g63
NtRp2170
(dp2171
g66
(dp2172
g74
I5
ssg75
g2166
sg68
(lp2173
S'loja/127.0.0.1.2012-04-19.21-34-26.f4ed1420-3250-45ba-b045-25ee43501244'
p2174
asbasbasbag61
(g77
g63
NtRp2175
(dp2176
g66
(dp2177
sg75
g71
sg68
(lp2178
g61
(g82
g63
NtRp2179
(dp2180
g66
(dp2181
g86
g87
ssg75
g2175
sg68
(lp2182
S'vars'
p2183
asbag61
(g82
g63
NtRp2184
(dp2185
g66
(dp2186
g93
g94
ssg75
g2175
sg68
(lp2187
S':'
asbag61
(g82
g63
NtRp2188
(dp2189
g66
(dp2190
sg75
g2175
sg68
(lp2191
g61
(g62
g63
NtRp2192
(dp2193
g66
(dp2194
g74
I5
ssg75
g2188
sg68
(lp2195
g61
(g70
g63
NtRp2196
(dp2197
g66
(dp2198
g74
I4
ssg75
Nsg68
(lp2199
sbasbasbasbag61
(g77
g63
NtRp2200
(dp2201
g66
(dp2202
sg75
g71
sg68
(lp2203
g61
(g82
g63
NtRp2204
(dp2205
g66
(dp2206
g86
g87
ssg75
g2200
sg68
(lp2207
S'wsgi'
p2208
asbag61
(g82
g63
NtRp2209
(dp2210
g66
(dp2211
g93
g94
ssg75
g2200
sg68
(lp2212
S':'
asbag61
(g82
g63
NtRp2213
(dp2214
g66
(dp2215
sg75
g2200
sg68
(lp2216
g61
(g62
g63
NtRp2217
(dp2218
g66
(dp2219
g74
I5
ssg75
g2213
sg68
(lp2220
g61
(g70
g63
NtRp2221
(dp2222
g66
(dp2223
g74
I4
ssg75
Nsg68
(lp2224
g61
(g77
g63
NtRp2225
(dp2226
g66
(dp2227
sg75
g2221
sg68
(lp2228
g61
(g82
g63
NtRp2229
(dp2230
g66
(dp2231
g86
g87
ssg75
g2225
sg68
(lp2232
S'environ'
p2233
asbag61
(g82
g63
NtRp2234
(dp2235
g66
(dp2236
g93
g94
ssg75
g2225
sg68
(lp2237
S':'
asbag61
(g82
g63
NtRp2238
(dp2239
g66
(dp2240
sg75
g2225
sg68
(lp2241
g61
(g62
g63
NtRp2242
(dp2243
g66
(dp2244
g74
I4
ssg75
g2238
sg68
(lp2245
g61
(g70
g63
NtRp2246
(dp2247
g66
(dp2248
g74
I3
ssg75
Nsg68
(lp2249
g61
(g77
g63
NtRp2250
(dp2251
g66
(dp2252
sg75
g2246
sg68
(lp2253
g61
(g82
g63
NtRp2254
(dp2255
g66
(dp2256
g86
g87
ssg75
g2250
sg68
(lp2257
S'HTTP_ACCEPT'
p2258
asbag61
(g82
g63
NtRp2259
(dp2260
g66
(dp2261
g93
g94
ssg75
g2250
sg68
(lp2262
S':'
asbag61
(g82
g63
NtRp2263
(dp2264
g66
(dp2265
sg75
g2250
sg68
(lp2266
g61
(g62
g63
NtRp2267
(dp2268
g66
(dp2269
g74
I3
ssg75
g2263
sg68
(lp2270
g822
asbasbasbag61
(g77
g63
NtRp2271
(dp2272
g66
(dp2273
sg75
g2246
sg68
(lp2274
g61
(g82
g63
NtRp2275
(dp2276
g66
(dp2277
g86
g87
ssg75
g2271
sg68
(lp2278
S'HTTP_ACCEPT_ENCODING'
p2279
asbag61
(g82
g63
NtRp2280
(dp2281
g66
(dp2282
g93
g94
ssg75
g2271
sg68
(lp2283
S':'
asbag61
(g82
g63
NtRp2284
(dp2285
g66
(dp2286
sg75
g2271
sg68
(lp2287
g61
(g62
g63
NtRp2288
(dp2289
g66
(dp2290
g74
I3
ssg75
g2284
sg68
(lp2291
g844
asbasbasbag61
(g77
g63
NtRp2292
(dp2293
g66
(dp2294
sg75
g2246
sg68
(lp2295
g61
(g82
g63
NtRp2296
(dp2297
g66
(dp2298
g86
g87
ssg75
g2292
sg68
(lp2299
S'HTTP_ACCEPT_LANGUAGE'
p2300
asbag61
(g82
g63
NtRp2301
(dp2302
g66
(dp2303
g93
g94
ssg75
g2292
sg68
(lp2304
S':'
asbag61
(g82
g63
NtRp2305
(dp2306
g66
(dp2307
sg75
g2292
sg68
(lp2308
g61
(g62
g63
NtRp2309
(dp2310
g66
(dp2311
g74
I3
ssg75
g2305
sg68
(lp2312
g866
asbasbasbag61
(g77
g63
NtRp2313
(dp2314
g66
(dp2315
sg75
g2246
sg68
(lp2316
g61
(g82
g63
NtRp2317
(dp2318
g66
(dp2319
g86
g87
ssg75
g2313
sg68
(lp2320
S'HTTP_CACHE_CONTROL'
p2321
asbag61
(g82
g63
NtRp2322
(dp2323
g66
(dp2324
g93
g94
ssg75
g2313
sg68
(lp2325
S':'
asbag61
(g82
g63
NtRp2326
(dp2327
g66
(dp2328
sg75
g2313
sg68
(lp2329
g61
(g62
g63
NtRp2330
(dp2331
g66
(dp2332
g74
I3
ssg75
g2326
sg68
(lp2333
g888
asbasbasbag61
(g77
g63
NtRp2334
(dp2335
g66
(dp2336
sg75
g2246
sg68
(lp2337
g61
(g82
g63
NtRp2338
(dp2339
g66
(dp2340
g86
g87
ssg75
g2334
sg68
(lp2341
S'HTTP_CONNECTION'
p2342
asbag61
(g82
g63
NtRp2343
(dp2344
g66
(dp2345
g93
g94
ssg75
g2334
sg68
(lp2346
S':'
asbag61
(g82
g63
NtRp2347
(dp2348
g66
(dp2349
sg75
g2334
sg68
(lp2350
g61
(g62
g63
NtRp2351
(dp2352
g66
(dp2353
g74
I3
ssg75
g2347
sg68
(lp2354
g910
asbasbasbag61
(g77
g63
NtRp2355
(dp2356
g66
(dp2357
sg75
g2246
sg68
(lp2358
g61
(g82
g63
NtRp2359
(dp2360
g66
(dp2361
g86
g87
ssg75
g2355
sg68
(lp2362
S'HTTP_COOKIE'
p2363
asbag61
(g82
g63
NtRp2364
(dp2365
g66
(dp2366
g93
g94
ssg75
g2355
sg68
(lp2367
S':'
asbag61
(g82
g63
NtRp2368
(dp2369
g66
(dp2370
sg75
g2355
sg68
(lp2371
g61
(g62
g63
NtRp2372
(dp2373
g66
(dp2374
g74
I3
ssg75
g2368
sg68
(lp2375
g932
asbasbasbag61
(g77
g63
NtRp2376
(dp2377
g66
(dp2378
sg75
g2246
sg68
(lp2379
g61
(g82
g63
NtRp2380
(dp2381
g66
(dp2382
g86
g87
ssg75
g2376
sg68
(lp2383
S'HTTP_HOST'
p2384
asbag61
(g82
g63
NtRp2385
(dp2386
g66
(dp2387
g93
g94
ssg75
g2376
sg68
(lp2388
S':'
asbag61
(g82
g63
NtRp2389
(dp2390
g66
(dp2391
sg75
g2376
sg68
(lp2392
g61
(g62
g63
NtRp2393
(dp2394
g66
(dp2395
g74
I3
ssg75
g2389
sg68
(lp2396
g954
asbasbasbag61
(g77
g63
NtRp2397
(dp2398
g66
(dp2399
sg75
g2246
sg68
(lp2400
g61
(g82
g63
NtRp2401
(dp2402
g66
(dp2403
g86
g87
ssg75
g2397
sg68
(lp2404
S'HTTP_REFERER'
p2405
asbag61
(g82
g63
NtRp2406
(dp2407
g66
(dp2408
g93
g94
ssg75
g2397
sg68
(lp2409
S':'
asbag61
(g82
g63
NtRp2410
(dp2411
g66
(dp2412
sg75
g2397
sg68
(lp2413
g61
(g62
g63
NtRp2414
(dp2415
g66
(dp2416
g74
I3
ssg75
g2410
sg68
(lp2417
g976
asbasbasbag61
(g77
g63
NtRp2418
(dp2419
g66
(dp2420
sg75
g2246
sg68
(lp2421
g61
(g82
g63
NtRp2422
(dp2423
g66
(dp2424
g86
g87
ssg75
g2418
sg68
(lp2425
S'HTTP_USER_AGENT'
p2426
asbag61
(g82
g63
NtRp2427
(dp2428
g66
(dp2429
g93
g94
ssg75
g2418
sg68
(lp2430
S':'
asbag61
(g82
g63
NtRp2431
(dp2432
g66
(dp2433
sg75
g2418
sg68
(lp2434
g61
(g62
g63
NtRp2435
(dp2436
g66
(dp2437
g74
I3
ssg75
g2431
sg68
(lp2438
g998
asbasbasbag61
(g77
g63
NtRp2439
(dp2440
g66
(dp2441
sg75
g2246
sg68
(lp2442
g61
(g82
g63
NtRp2443
(dp2444
g66
(dp2445
g86
g87
ssg75
g2439
sg68
(lp2446
S'PATH_INFO'
p2447
asbag61
(g82
g63
NtRp2448
(dp2449
g66
(dp2450
g93
g94
ssg75
g2439
sg68
(lp2451
S':'
asbag61
(g82
g63
NtRp2452
(dp2453
g66
(dp2454
sg75
g2439
sg68
(lp2455
g61
(g62
g63
NtRp2456
(dp2457
g66
(dp2458
g74
I3
ssg75
g2452
sg68
(lp2459
g1062
asbasbasbag61
(g77
g63
NtRp2460
(dp2461
g66
(dp2462
sg75
g2246
sg68
(lp2463
g61
(g82
g63
NtRp2464
(dp2465
g66
(dp2466
g86
g87
ssg75
g2460
sg68
(lp2467
S'QUERY_STRING'
p2468
asbag61
(g82
g63
NtRp2469
(dp2470
g66
(dp2471
g93
g94
ssg75
g2460
sg68
(lp2472
S':'
asbag61
(g82
g63
NtRp2473
(dp2474
g66
(dp2475
sg75
g2460
sg68
(lp2476
g61
(g62
g63
NtRp2477
(dp2478
g66
(dp2479
g74
I3
ssg75
g2473
sg68
(lp2480
S''
asbasbasbag61
(g77
g63
NtRp2481
(dp2482
g66
(dp2483
sg75
g2246
sg68
(lp2484
g61
(g82
g63
NtRp2485
(dp2486
g66
(dp2487
g86
g87
ssg75
g2481
sg68
(lp2488
S'REMOTE_ADDR'
p2489
asbag61
(g82
g63
NtRp2490
(dp2491
g66
(dp2492
g93
g94
ssg75
g2481
sg68
(lp2493
S':'
asbag61
(g82
g63
NtRp2494
(dp2495
g66
(dp2496
sg75
g2481
sg68
(lp2497
g61
(g62
g63
NtRp2498
(dp2499
g66
(dp2500
g74
I3
ssg75
g2494
sg68
(lp2501
g194
asbasbasbag61
(g77
g63
NtRp2502
(dp2503
g66
(dp2504
sg75
g2246
sg68
(lp2505
g61
(g82
g63
NtRp2506
(dp2507
g66
(dp2508
g86
g87
ssg75
g2502
sg68
(lp2509
S'REMOTE_PORT'
p2510
asbag61
(g82
g63
NtRp2511
(dp2512
g66
(dp2513
g93
g94
ssg75
g2502
sg68
(lp2514
S':'
asbag61
(g82
g63
NtRp2515
(dp2516
g66
(dp2517
sg75
g2502
sg68
(lp2518
g61
(g62
g63
NtRp2519
(dp2520
g66
(dp2521
g74
I3
ssg75
g2515
sg68
(lp2522
g1126
asbasbasbag61
(g77
g63
NtRp2523
(dp2524
g66
(dp2525
sg75
g2246
sg68
(lp2526
g61
(g82
g63
NtRp2527
(dp2528
g66
(dp2529
g86
g87
ssg75
g2523
sg68
(lp2530
S'REQUEST_METHOD'
p2531
asbag61
(g82
g63
NtRp2532
(dp2533
g66
(dp2534
g93
g94
ssg75
g2523
sg68
(lp2535
S':'
asbag61
(g82
g63
NtRp2536
(dp2537
g66
(dp2538
sg75
g2523
sg68
(lp2539
g61
(g62
g63
NtRp2540
(dp2541
g66
(dp2542
g74
I3
ssg75
g2536
sg68
(lp2543
g1148
asbasbasbag61
(g77
g63
NtRp2544
(dp2545
g66
(dp2546
sg75
g2246
sg68
(lp2547
g61
(g82
g63
NtRp2548
(dp2549
g66
(dp2550
g86
g87
ssg75
g2544
sg68
(lp2551
S'REQUEST_URI'
p2552
asbag61
(g82
g63
NtRp2553
(dp2554
g66
(dp2555
g93
g94
ssg75
g2544
sg68
(lp2556
S':'
asbag61
(g82
g63
NtRp2557
(dp2558
g66
(dp2559
sg75
g2544
sg68
(lp2560
g61
(g62
g63
NtRp2561
(dp2562
g66
(dp2563
g74
I3
ssg75
g2557
sg68
(lp2564
g1062
asbasbasbag61
(g77
g63
NtRp2565
(dp2566
g66
(dp2567
sg75
g2246
sg68
(lp2568
g61
(g82
g63
NtRp2569
(dp2570
g66
(dp2571
g86
g87
ssg75
g2565
sg68
(lp2572
S'SCRIPT_NAME'
p2573
asbag61
(g82
g63
NtRp2574
(dp2575
g66
(dp2576
g93
g94
ssg75
g2565
sg68
(lp2577
S':'
asbag61
(g82
g63
NtRp2578
(dp2579
g66
(dp2580
sg75
g2565
sg68
(lp2581
g61
(g62
g63
NtRp2582
(dp2583
g66
(dp2584
g74
I3
ssg75
g2578
sg68
(lp2585
S''
asbasbasbag61
(g77
g63
NtRp2586
(dp2587
g66
(dp2588
sg75
g2246
sg68
(lp2589
g61
(g82
g63
NtRp2590
(dp2591
g66
(dp2592
g86
g87
ssg75
g2586
sg68
(lp2593
S'SERVER_NAME'
p2594
asbag61
(g82
g63
NtRp2595
(dp2596
g66
(dp2597
g93
g94
ssg75
g2586
sg68
(lp2598
S':'
asbag61
(g82
g63
NtRp2599
(dp2600
g66
(dp2601
sg75
g2586
sg68
(lp2602
g61
(g62
g63
NtRp2603
(dp2604
g66
(dp2605
g74
I3
ssg75
g2599
sg68
(lp2606
g1212
asbasbasbag61
(g77
g63
NtRp2607
(dp2608
g66
(dp2609
sg75
g2246
sg68
(lp2610
g61
(g82
g63
NtRp2611
(dp2612
g66
(dp2613
g86
g87
ssg75
g2607
sg68
(lp2614
S'SERVER_PORT'
p2615
asbag61
(g82
g63
NtRp2616
(dp2617
g66
(dp2618
g93
g94
ssg75
g2607
sg68
(lp2619
S':'
asbag61
(g82
g63
NtRp2620
(dp2621
g66
(dp2622
sg75
g2607
sg68
(lp2623
g61
(g62
g63
NtRp2624
(dp2625
g66
(dp2626
g74
I3
ssg75
g2620
sg68
(lp2627
g1234
asbasbasbag61
(g77
g63
NtRp2628
(dp2629
g66
(dp2630
sg75
g2246
sg68
(lp2631
g61
(g82
g63
NtRp2632
(dp2633
g66
(dp2634
g86
g87
ssg75
g2628
sg68
(lp2635
S'SERVER_PROTOCOL'
p2636
asbag61
(g82
g63
NtRp2637
(dp2638
g66
(dp2639
g93
g94
ssg75
g2628
sg68
(lp2640
S':'
asbag61
(g82
g63
NtRp2641
(dp2642
g66
(dp2643
sg75
g2628
sg68
(lp2644
g61
(g62
g63
NtRp2645
(dp2646
g66
(dp2647
g74
I3
ssg75
g2641
sg68
(lp2648
g1256
asbasbasbag61
(g77
g63
NtRp2649
(dp2650
g66
(dp2651
sg75
g2246
sg68
(lp2652
g61
(g82
g63
NtRp2653
(dp2654
g66
(dp2655
g86
g87
ssg75
g2649
sg68
(lp2656
S'SERVER_SOFTWARE'
p2657
asbag61
(g82
g63
NtRp2658
(dp2659
g66
(dp2660
g93
g94
ssg75
g2649
sg68
(lp2661
S':'
asbag61
(g82
g63
NtRp2662
(dp2663
g66
(dp2664
sg75
g2649
sg68
(lp2665
g61
(g62
g63
NtRp2666
(dp2667
g66
(dp2668
g74
I3
ssg75
g2662
sg68
(lp2669
g1278
asbasbasbag61
(g77
g63
NtRp2670
(dp2671
g66
(dp2672
sg75
g2246
sg68
(lp2673
g61
(g82
g63
NtRp2674
(dp2675
g66
(dp2676
g86
g87
ssg75
g2670
sg68
(lp2677
S'WEB2PY_ORIGINAL_URI'
p2678
asbag61
(g82
g63
NtRp2679
(dp2680
g66
(dp2681
g93
g94
ssg75
g2670
sg68
(lp2682
S':'
asbag61
(g82
g63
NtRp2683
(dp2684
g66
(dp2685
sg75
g2670
sg68
(lp2686
g61
(g62
g63
NtRp2687
(dp2688
g66
(dp2689
g74
I3
ssg75
g2683
sg68
(lp2690
g1062
asbasbasbag61
(g77
g63
NtRp2691
(dp2692
g66
(dp2693
sg75
g2246
sg68
(lp2694
g61
(g82
g63
NtRp2695
(dp2696
g66
(dp2697
g86
g87
ssg75
g2691
sg68
(lp2698
S'wsgi.errors'
p2699
asbag61
(g82
g63
NtRp2700
(dp2701
g66
(dp2702
g93
g94
ssg75
g2691
sg68
(lp2703
S':'
asbag61
(g82
g63
NtRp2704
(dp2705
g66
(dp2706
sg75
g2691
sg68
(lp2707
g61
(g62
g63
NtRp2708
(dp2709
g66
(dp2710
g74
I3
ssg75
g2704
sg68
(lp2711
S"<open file '<stderr>', mode 'w' at 0x012B50D0>"
p2712
asbasbasbag61
(g77
g63
NtRp2713
(dp2714
g66
(dp2715
sg75
g2246
sg68
(lp2716
g61
(g82
g63
NtRp2717
(dp2718
g66
(dp2719
g86
g87
ssg75
g2713
sg68
(lp2720
S'wsgi.file_wrapper'
p2721
asbag61
(g82
g63
NtRp2722
(dp2723
g66
(dp2724
g93
g94
ssg75
g2713
sg68
(lp2725
S':'
asbag61
(g82
g63
NtRp2726
(dp2727
g66
(dp2728
sg75
g2713
sg68
(lp2729
g61
(g62
g63
NtRp2730
(dp2731
g66
(dp2732
g74
I3
ssg75
g2726
sg68
(lp2733
S'<class wsgiref.util.FileWrapper at 0x02946E30>'
p2734
asbasbasbag61
(g77
g63
NtRp2735
(dp2736
g66
(dp2737
sg75
g2246
sg68
(lp2738
g61
(g82
g63
NtRp2739
(dp2740
g66
(dp2741
g86
g87
ssg75
g2735
sg68
(lp2742
S'wsgi.input'
p2743
asbag61
(g82
g63
NtRp2744
(dp2745
g66
(dp2746
g93
g94
ssg75
g2735
sg68
(lp2747
S':'
asbag61
(g82
g63
NtRp2748
(dp2749
g66
(dp2750
sg75
g2735
sg68
(lp2751
g61
(g62
g63
NtRp2752
(dp2753
g66
(dp2754
g74
I3
ssg75
g2748
sg68
(lp2755
S'<cStringIO.StringO object at 0x0529A2E0>'
p2756
asbasbasbag61
(g77
g63
NtRp2757
(dp2758
g66
(dp2759
sg75
g2246
sg68
(lp2760
g61
(g82
g63
NtRp2761
(dp2762
g66
(dp2763
g86
g87
ssg75
g2757
sg68
(lp2764
S'wsgi.multiprocess'
p2765
asbag61
(g82
g63
NtRp2766
(dp2767
g66
(dp2768
g93
g94
ssg75
g2757
sg68
(lp2769
S':'
asbag61
(g82
g63
NtRp2770
(dp2771
g66
(dp2772
sg75
g2757
sg68
(lp2773
g61
(g62
g63
NtRp2774
(dp2775
g66
(dp2776
g74
I3
ssg75
g2770
sg68
(lp2777
g104
asbasbasbag61
(g77
g63
NtRp2778
(dp2779
g66
(dp2780
sg75
g2246
sg68
(lp2781
g61
(g82
g63
NtRp2782
(dp2783
g66
(dp2784
g86
g87
ssg75
g2778
sg68
(lp2785
S'wsgi.multithread'
p2786
asbag61
(g82
g63
NtRp2787
(dp2788
g66
(dp2789
g93
g94
ssg75
g2778
sg68
(lp2790
S':'
asbag61
(g82
g63
NtRp2791
(dp2792
g66
(dp2793
sg75
g2778
sg68
(lp2794
g61
(g62
g63
NtRp2795
(dp2796
g66
(dp2797
g74
I3
ssg75
g2791
sg68
(lp2798
g1517
asbasbasbag61
(g77
g63
NtRp2799
(dp2800
g66
(dp2801
sg75
g2246
sg68
(lp2802
g61
(g82
g63
NtRp2803
(dp2804
g66
(dp2805
g86
g87
ssg75
g2799
sg68
(lp2806
S'wsgi.run_once'
p2807
asbag61
(g82
g63
NtRp2808
(dp2809
g66
(dp2810
g93
g94
ssg75
g2799
sg68
(lp2811
S':'
asbag61
(g82
g63
NtRp2812
(dp2813
g66
(dp2814
sg75
g2799
sg68
(lp2815
g61
(g62
g63
NtRp2816
(dp2817
g66
(dp2818
g74
I3
ssg75
g2812
sg68
(lp2819
g104
asbasbasbag61
(g77
g63
NtRp2820
(dp2821
g66
(dp2822
sg75
g2246
sg68
(lp2823
g61
(g82
g63
NtRp2824
(dp2825
g66
(dp2826
g86
g87
ssg75
g2820
sg68
(lp2827
S'wsgi.url_scheme'
p2828
asbag61
(g82
g63
NtRp2829
(dp2830
g66
(dp2831
g93
g94
ssg75
g2820
sg68
(lp2832
S':'
asbag61
(g82
g63
NtRp2833
(dp2834
g66
(dp2835
sg75
g2820
sg68
(lp2836
g61
(g62
g63
NtRp2837
(dp2838
g66
(dp2839
g74
I3
ssg75
g2833
sg68
(lp2840
g1560
asbasbasbag61
(g77
g63
NtRp2841
(dp2842
g66
(dp2843
sg75
g2246
sg68
(lp2844
g61
(g82
g63
NtRp2845
(dp2846
g66
(dp2847
g86
g87
ssg75
g2841
sg68
(lp2848
S'wsgi.version'
p2849
asbag61
(g82
g63
NtRp2850
(dp2851
g66
(dp2852
g93
g94
ssg75
g2841
sg68
(lp2853
S':'
asbag61
(g82
g63
NtRp2854
(dp2855
g66
(dp2856
sg75
g2841
sg68
(lp2857
g61
(g62
g63
NtRp2858
(dp2859
g66
(dp2860
g74
I3
ssg75
g2854
sg68
(lp2861
S'1'
asbasbasbasbasbasbasbasbasbasbasbasbasbsS'frames'
p2862
(lp2863
(dp2864
S'file'
p2865
S'c:\\Users\\rochacbruno\\aula7_mar12\\web2py\\gluon\\restricted.py'
p2866
sS'dump'
p2867
(dp2868
S'environment'
p2869
S"{'A': <class 'gluon.html.A'>, 'Auth': <class 'gluon.tools.Auth'>, 'B': <class 'gluon.html.B'>, 'BEAUTIFY': <class 'gluon.html.BEAUTIFY'>, 'BODY': <class 'gluon.html.BODY'>, 'BR': <class 'gluon.html.BR'>, 'BUTTON': <class 'gluon.html.BUTTON'>, 'CAT': <class 'gluon.html.CAT'>, 'CENTER': <class 'gluon.html.CENTER'>, 'CLEANUP': <class 'gluon.validators.CLEANUP'>, ...}"
p2870
sS'ccode'
p2871
S'<code object <module> at 02D9DF50, file "c:\\User...ications\\loja\\models\\300_datamodels.py", line 10>'
p2872
ssS'lnum'
p2873
I205
sS'lines'
p2874
(dp2875
I200
S'    try:'
p2876
sI201
S'        if type(code) == types.CodeType:'
p2877
sI202
S'            ccode = code'
p2878
sI203
S'        else:'
p2879
sI204
S'            ccode = compile2(code,layer)'
p2880
sI205
S'        exec ccode in environment'
p2881
sI206
S'    except HTTP:'
p2882
sI207
S'        raise'
p2883
sI208
S'    except RestrictedError:'
p2884
sI209
S'        # do not encapsulate (obfuscate) the original RestrictedError'
p2885
ssS'call'
p2886
S'(code=\'# coding: utf-8\\n\\n# id criado obrigatoriamente\\n# ...("numero"),\\n        Field("complemento"),\\n    )\\n\\n\', environment={\'A\': <class \'gluon.html.A\'>, \'Auth\': <class \'gluon.tools.Auth\'>, \'B\': <class \'gluon.html.B\'>, \'BEAUTIFY\': <class \'gluon.html.BEAUTIFY\'>, \'BODY\': <class \'gluon.html.BODY\'>, \'BR\': <class \'gluon.html.BR\'>, \'BUTTON\': <class \'gluon.html.BUTTON\'>, \'CAT\': <class \'gluon.html.CAT\'>, \'CENTER\': <class \'gluon.html.CENTER\'>, \'CLEANUP\': <class \'gluon.validators.CLEANUP\'>, ...}, layer=r\'c:\\Users\\rochacbruno\\aula7_mar12\\web2py\\applications\\loja\\models\\300_datamodels.py\')'
p2887
sS'func'
p2888
S'restricted'
p2889
sa(dp2890
g2865
S'c:\\Users\\rochacbruno\\aula7_mar12\\web2py\\applications\\loja\\models\\300_datamodels.py'
p2891
sg2867
(dp2892
S'Field'
p2893
S"<class 'gluon.dal.Field'>"
p2894
sS'builtinTrue'
p2895
g1517
sS'unique'
p2896
S'undefined'
p2897
ssg2873
I23
sg2874
(dp2898
I18
S'    )'
p2899
sI19
S''
sI20
S'Produto = db.define_table("produto",'
p2900
sI21
S'        Field("categoria", "reference categoria"),'
p2901
sI22
S'        Field("name", notnull=True),'
p2902
sI23
S'        Field("SKU", unique=True),'
p2903
sI24
S'        # Field("descricao", "text"),'
p2904
sI25
S'        # Field("peso", "double"), #float'
p2905
sI26
S'        # Field("preco", "decimal"), # Decimal'
p2906
sI27
S'        # Field("estoque", "integer"),'
p2907
ssg2886
S'()'
p2908
sg2888
S'<module>'
p2909
sa(dp2910
g2865
S'c:\\Users\\rochacbruno\\aula7_mar12\\web2py\\gluon\\dal.py'
p2911
sg2867
(dp2912
S'polymodel'
p2913
S'None'
p2914
ssg2873
I6320
sg2874
(dp2915
I6315
S"        if migrate or self._adapter.dbengine=='google:datastore':"
p2916
sI6316
S'            try:'
p2917
sI6317
S'                sql_locker.acquire()'
p2918
sI6318
S'                self._adapter.create_table(t,migrate=migrate,'
p2919
sI6319
S'                                           fake_migrate=fake_migrate,'
p2920
sI6320
S'                                           polymodel=polymodel)'
p2921
sI6321
S'            finally:'
p2922
sI6322
S'                sql_locker.release()'
p2923
sI6323
S'        else:'
p2924
sI6324
S'            t._dbt = None'
p2925
ssg2886
S"(self=<DAL {'auth_event': <Table {'origin': <gluon.dal..._key': <gluon.dal.Field object at 0x02FFCFF0>}>}>, tablename='produto', *fields=(<gluon.dal.Field object>, <gluon.dal.Field object>, <gluon.dal.Field object>), **args={})"
p2926
sg2888
S'define_table'
p2927
sa(dp2928
g2865
S'c:\\Users\\rochacbruno\\aula7_mar12\\web2py\\gluon\\dal.py'
p2929
sg2867
(dp2930
S'fake_migrate'
p2931
g104
ssg2873
I742
sg2874
(dp2932
I737
S'            self.file_close(tfile)'
p2933
sI738
S'            if sql_fields != sql_fields_old:'
p2934
sI739
S'                self.migrate_table(table,'
p2935
sI740
S'                                   sql_fields, sql_fields_old,'
p2936
sI741
S'                                   sql_fields_aux, logfile,'
p2937
sI742
S'                                   fake_migrate=fake_migrate)'
p2938
sI743
S'        self.file_close(logfile)'
p2939
sI744
S'        return query'
p2940
sI745
S''
sI746
S'    def migrate_table('
p2941
ssg2886
S"(self=<gluon.dal.SQLiteAdapter object>, table=<Table {'categoria': <gluon.dal.Field object at ...>, 'id': <gluon.dal.Field object at 0x02DE7ED0>}>, migrate=True, fake_migrate=False, polymodel=None)"
p2942
sg2888
S'create_table'
p2943
sa(dp2944
g2865
S'c:\\Users\\rochacbruno\\aula7_mar12\\web2py\\gluon\\dal.py'
p2945
sg2867
(dp2946
S'self'
p2947
S'<gluon.dal.SQLiteAdapter object>'
p2948
sS'self.execute'
p2949
S'<bound method SQLiteAdapter.execute of <gluon.dal.SQLiteAdapter object>>'
p2950
sS'sub_query'
p2951
S"'ALTER TABLE produto ADD sku CHAR(512) UNIQUE;'"
p2952
ssg2873
I830
sg2874
(dp2953
I832
S'                        # in one transaction so we must commit partial transactions and'
p2954
sI833
S'                        # update table._dbt after alter table.'
p2955
sI834
S'                        if table._db._adapter.commit_on_alter_table:'
p2956
sI825
S'                              % datetime.datetime.today().isoformat())'
p2957
sI826
S"                table._db['_lastsql'] = '\\n'.join(query)"
p2958
sI827
S'                for sub_query in query:'
p2959
sI828
S"                    logfile.write(sub_query + '\\n')"
p2960
sI829
S'                    if not fake_migrate:'
p2961
sI830
S'                        self.execute(sub_query)'
p2962
sI831
S'                        # Caveat: mysql, oracle and firebird do not allow multiple alter table'
p2963
ssg2886
S"(self=<gluon.dal.SQLiteAdapter object>, table=<Table {'categoria': <gluon.dal.Field object at ...>, 'id': <gluon.dal.Field object at 0x02DE7ED0>}>, sql_fields={'categoria': {'sortable': 2, 'sql': 'INTEGER REFERENCES categoria(id) ON DELETE CASCADE', 'type': 'reference categoria'}, 'id': {'sortable': 1, 'sql': 'INTEGER PRIMARY KEY AUTOINCREMENT', 'type': 'id'}, 'name': {'sortable': 3, 'sql': 'CHAR(512) NOT NULL', 'type': 'string'}, 'sku': {'sortable': 4, 'sql': 'CHAR(512) UNIQUE', 'type': 'string'}}, sql_fields_old={'categoria': {'sortable': 2, 'sql': 'INTEGER REFERENCES categoria(id) ON DELETE CASCADE', 'type': 'reference categoria'}, 'id': {'sortable': 1, 'sql': 'INTEGER PRIMARY KEY AUTOINCREMENT', 'type': 'id'}, 'name': {'sortable': 3, 'sql': 'CHAR(512) NOT NULL', 'type': 'string'}}, sql_fields_aux={'categoria': {'sql': 'INTEGER REFERENCES categoria(id) ON DELETE CASCADE'}, 'id': {'sql': 'INTEGER PRIMARY KEY AUTOINCREMENT'}, 'name': {'sql': 'CHAR(512) NOT NULL'}, 'sku': {'sql': 'CHAR(512) UNIQUE'}}, logfile=<gluon.portalocker.LockedFile object>, fake_migrate=False)"
p2964
sg2888
S'migrate_table'
p2965
sa(dp2966
g2865
S'c:\\Users\\rochacbruno\\aula7_mar12\\web2py\\gluon\\dal.py'
p2967
sg2867
(dp2968
S'a'
S"('ALTER TABLE produto ADD sku CHAR(512) UNIQUE;',)"
p2969
sS'self'
p2970
S'<gluon.dal.SQLiteAdapter object>'
p2971
sS'b'
g21
sS'self.log_execute'
p2972
S'<bound method SQLiteAdapter.log_execute of <gluon.dal.SQLiteAdapter object>>'
p2973
ssg2873
I1392
sg2874
(dp2974
I1387
S'        self.db._timings.append((a[0],time.time()-t0))'
p2975
sI1388
S'        del self.db._timings[:-TIMINGSSIZE]'
p2976
sI1389
S'        return ret'
p2977
sI1390
S''
sI1391
S'    def execute(self, *a, **b):'
p2978
sI1392
S'        return self.log_execute(*a, **b)'
p2979
sI1393
S''
sI1394
S'    def represent(self, obj, fieldtype):'
p2980
sI1395
S'        if isinstance(obj, CALLABLETYPES):'
p2981
sI1396
S'            obj = obj()'
p2982
ssg2886
S"(self=<gluon.dal.SQLiteAdapter object>, *a=('ALTER TABLE produto ADD sku CHAR(512) UNIQUE;',), **b={})"
p2983
sg2888
S'execute'
p2984
sa(dp2985
g2865
S'c:\\Users\\rochacbruno\\aula7_mar12\\web2py\\gluon\\dal.py'
p2986
sg2867
(dp2987
S'a'
S"('ALTER TABLE produto ADD sku CHAR(512) UNIQUE;',)"
p2988
sS'b'
g21
sS'self'
p2989
S'<gluon.dal.SQLiteAdapter object>'
p2990
sS'ret'
p2991
g2897
sS'self.cursor'
p2992
S'<sqlite3.Cursor object>'
p2993
sS'self.cursor.execute'
p2994
S'<built-in method execute of sqlite3.Cursor object>'
p2995
ssg2873
I1386
sg2874
(dp2996
I1381
S'        self.execute(query)'
p2997
sI1382
S''
sI1383
S'    def log_execute(self, *a, **b):'
p2998
sI1384
S'        self.db._lastsql = a[0]'
p2999
sI1385
S'        t0 = time.time()'
p3000
sI1386
S'        ret = self.cursor.execute(*a, **b)'
p3001
sI1387
S'        self.db._timings.append((a[0],time.time()-t0))'
p3002
sI1388
S'        del self.db._timings[:-TIMINGSSIZE]'
p3003
sI1389
S'        return ret'
p3004
sI1390
S''
ssg2886
S"(self=<gluon.dal.SQLiteAdapter object>, *a=('ALTER TABLE produto ADD sku CHAR(512) UNIQUE;',), **b={})"
p3005
sg2888
S'log_execute'
p3006
sasS'pyver'
p3007
S'Python 2.7.2: c:\\Python27\\python.exe'
p3008
sS'session'
p3009
g61
(g62
g63
NtRp3010
(dp3011
g66
(dp3012
sg68
(lp3013
g61
(g70
g63
NtRp3014
(dp3015
g66
(dp3016
g74
I5
ssg75
Nsg68
(lp3017
g61
(g77
g63
NtRp3018
(dp3019
g66
(dp3020
sg75
g3014
sg68
(lp3021
g61
(g82
g63
NtRp3022
(dp3023
g66
(dp3024
g86
g87
ssg75
g3018
sg68
(lp3025
S'auth'
p3026
asbag61
(g82
g63
NtRp3027
(dp3028
g66
(dp3029
g93
g94
ssg75
g3018
sg68
(lp3030
S':'
asbag61
(g82
g63
NtRp3031
(dp3032
g66
(dp3033
sg75
g3018
sg68
(lp3034
g61
(g62
g63
NtRp3035
(dp3036
g66
(dp3037
g74
I5
ssg75
g3031
sg68
(lp3038
g61
(g70
g63
NtRp3039
(dp3040
g66
(dp3041
g74
I4
ssg75
Nsg68
(lp3042
g61
(g77
g63
NtRp3043
(dp3044
g66
(dp3045
sg75
g3039
sg68
(lp3046
g61
(g82
g63
NtRp3047
(dp3048
g66
(dp3049
g86
g87
ssg75
g3043
sg68
(lp3050
S'expiration'
p3051
asbag61
(g82
g63
NtRp3052
(dp3053
g66
(dp3054
g93
g94
ssg75
g3043
sg68
(lp3055
S':'
asbag61
(g82
g63
NtRp3056
(dp3057
g66
(dp3058
sg75
g3043
sg68
(lp3059
g61
(g62
g63
NtRp3060
(dp3061
g66
(dp3062
g74
I4
ssg75
g3056
sg68
(lp3063
S'3600'
p3064
asbasbasbag61
(g77
g63
NtRp3065
(dp3066
g66
(dp3067
sg75
g3039
sg68
(lp3068
g61
(g82
g63
NtRp3069
(dp3070
g66
(dp3071
g86
g87
ssg75
g3065
sg68
(lp3072
S'hmac_key'
p3073
asbag61
(g82
g63
NtRp3074
(dp3075
g66
(dp3076
g93
g94
ssg75
g3065
sg68
(lp3077
S':'
asbag61
(g82
g63
NtRp3078
(dp3079
g66
(dp3080
sg75
g3065
sg68
(lp3081
g61
(g62
g63
NtRp3082
(dp3083
g66
(dp3084
g74
I4
ssg75
g3078
sg68
(lp3085
S'33ec168b-c156-4b47-86f2-b81366955def'
p3086
asbasbasbag61
(g77
g63
NtRp3087
(dp3088
g66
(dp3089
sg75
g3039
sg68
(lp3090
g61
(g82
g63
NtRp3091
(dp3092
g66
(dp3093
g86
g87
ssg75
g3087
sg68
(lp3094
S'last_visit'
p3095
asbag61
(g82
g63
NtRp3096
(dp3097
g66
(dp3098
g93
g94
ssg75
g3087
sg68
(lp3099
S':'
asbag61
(g82
g63
NtRp3100
(dp3101
g66
(dp3102
sg75
g3087
sg68
(lp3103
g61
(g62
g63
NtRp3104
(dp3105
g66
(dp3106
g74
I4
ssg75
g3100
sg68
(lp3107
S'datetime.datetime(2012, 4, 19, 21, 30, 35, 593000)'
p3108
asbasbasbag61
(g77
g63
NtRp3109
(dp3110
g66
(dp3111
sg75
g3039
sg68
(lp3112
g61
(g82
g63
NtRp3113
(dp3114
g66
(dp3115
g86
g87
ssg75
g3109
sg68
(lp3116
S'remember'
p3117
asbag61
(g82
g63
NtRp3118
(dp3119
g66
(dp3120
g93
g94
ssg75
g3109
sg68
(lp3121
S':'
asbag61
(g82
g63
NtRp3122
(dp3123
g66
(dp3124
sg75
g3109
sg68
(lp3125
g61
(g62
g63
NtRp3126
(dp3127
g66
(dp3128
g74
I4
ssg75
g3122
sg68
(lp3129
g104
asbasbasbag61
(g77
g63
NtRp3130
(dp3131
g66
(dp3132
sg75
g3039
sg68
(lp3133
g61
(g82
g63
NtRp3134
(dp3135
g66
(dp3136
g86
g87
ssg75
g3130
sg68
(lp3137
S'user'
p3138
asbag61
(g82
g63
NtRp3139
(dp3140
g66
(dp3141
g93
g94
ssg75
g3130
sg68
(lp3142
S':'
asbag61
(g82
g63
NtRp3143
(dp3144
g66
(dp3145
sg75
g3130
sg68
(lp3146
g61
(g62
g63
NtRp3147
(dp3148
g66
(dp3149
g74
I4
ssg75
g3143
sg68
(lp3150
g61
(g70
g63
NtRp3151
(dp3152
g66
(dp3153
g74
I3
ssg75
Nsg68
(lp3154
g61
(g77
g63
NtRp3155
(dp3156
g66
(dp3157
sg75
g3151
sg68
(lp3158
g61
(g82
g63
NtRp3159
(dp3160
g66
(dp3161
g86
g87
ssg75
g3155
sg68
(lp3162
S'bloqueado'
p3163
asbag61
(g82
g63
NtRp3164
(dp3165
g66
(dp3166
g93
g94
ssg75
g3155
sg68
(lp3167
S':'
asbag61
(g82
g63
NtRp3168
(dp3169
g66
(dp3170
sg75
g3155
sg68
(lp3171
g61
(g62
g63
NtRp3172
(dp3173
g66
(dp3174
g74
I3
ssg75
g3168
sg68
(lp3175
g104
asbasbasbag61
(g77
g63
NtRp3176
(dp3177
g66
(dp3178
sg75
g3151
sg68
(lp3179
g61
(g82
g63
NtRp3180
(dp3181
g66
(dp3182
g86
g87
ssg75
g3176
sg68
(lp3183
S'cliente_especial'
p3184
asbag61
(g82
g63
NtRp3185
(dp3186
g66
(dp3187
g93
g94
ssg75
g3176
sg68
(lp3188
S':'
asbag61
(g82
g63
NtRp3189
(dp3190
g66
(dp3191
sg75
g3176
sg68
(lp3192
g61
(g62
g63
NtRp3193
(dp3194
g66
(dp3195
g74
I3
ssg75
g3189
sg68
(lp3196
g104
asbasbasbag61
(g77
g63
NtRp3197
(dp3198
g66
(dp3199
sg75
g3151
sg68
(lp3200
g61
(g82
g63
NtRp3201
(dp3202
g66
(dp3203
g86
g87
ssg75
g3197
sg68
(lp3204
S'email'
p3205
asbag61
(g82
g63
NtRp3206
(dp3207
g66
(dp3208
g93
g94
ssg75
g3197
sg68
(lp3209
S':'
asbag61
(g82
g63
NtRp3210
(dp3211
g66
(dp3212
sg75
g3197
sg68
(lp3213
g61
(g62
g63
NtRp3214
(dp3215
g66
(dp3216
g74
I3
ssg75
g3210
sg68
(lp3217
S'rochacbruno@gmail.com'
p3218
asbasbasbag61
(g77
g63
NtRp3219
(dp3220
g66
(dp3221
sg75
g3151
sg68
(lp3222
g61
(g82
g63
NtRp3223
(dp3224
g66
(dp3225
g86
g87
ssg75
g3219
sg68
(lp3226
S'first_name'
p3227
asbag61
(g82
g63
NtRp3228
(dp3229
g66
(dp3230
g93
g94
ssg75
g3219
sg68
(lp3231
S':'
asbag61
(g82
g63
NtRp3232
(dp3233
g66
(dp3234
sg75
g3219
sg68
(lp3235
g61
(g62
g63
NtRp3236
(dp3237
g66
(dp3238
g74
I3
ssg75
g3232
sg68
(lp3239
S'Bruno'
p3240
asbasbasbag61
(g77
g63
NtRp3241
(dp3242
g66
(dp3243
sg75
g3151
sg68
(lp3244
g61
(g82
g63
NtRp3245
(dp3246
g66
(dp3247
g86
g87
ssg75
g3241
sg68
(lp3248
S'id'
p3249
asbag61
(g82
g63
NtRp3250
(dp3251
g66
(dp3252
g93
g94
ssg75
g3241
sg68
(lp3253
S':'
asbag61
(g82
g63
NtRp3254
(dp3255
g66
(dp3256
sg75
g3241
sg68
(lp3257
g61
(g62
g63
NtRp3258
(dp3259
g66
(dp3260
g74
I3
ssg75
g3254
sg68
(lp3261
S'1'
asbasbasbag61
(g77
g63
NtRp3262
(dp3263
g66
(dp3264
sg75
g3151
sg68
(lp3265
g61
(g82
g63
NtRp3266
(dp3267
g66
(dp3268
g86
g87
ssg75
g3262
sg68
(lp3269
S'last_name'
p3270
asbag61
(g82
g63
NtRp3271
(dp3272
g66
(dp3273
g93
g94
ssg75
g3262
sg68
(lp3274
S':'
asbag61
(g82
g63
NtRp3275
(dp3276
g66
(dp3277
sg75
g3262
sg68
(lp3278
g61
(g62
g63
NtRp3279
(dp3280
g66
(dp3281
g74
I3
ssg75
g3275
sg68
(lp3282
S'Rocha'
p3283
asbasbasbag61
(g77
g63
NtRp3284
(dp3285
g66
(dp3286
sg75
g3151
sg68
(lp3287
g61
(g82
g63
NtRp3288
(dp3289
g66
(dp3290
g86
g87
ssg75
g3284
sg68
(lp3291
S'password'
p3292
asbag61
(g82
g63
NtRp3293
(dp3294
g66
(dp3295
g93
g94
ssg75
g3284
sg68
(lp3296
S':'
asbag61
(g82
g63
NtRp3297
(dp3298
g66
(dp3299
sg75
g3284
sg68
(lp3300
g61
(g62
g63
NtRp3301
(dp3302
g66
(dp3303
g74
I3
ssg75
g3297
sg68
(lp3304
S'a516920207224cd682ae5f104b1b9243'
p3305
asbasbasbag61
(g77
g63
NtRp3306
(dp3307
g66
(dp3308
sg75
g3151
sg68
(lp3309
g61
(g82
g63
NtRp3310
(dp3311
g66
(dp3312
g86
g87
ssg75
g3306
sg68
(lp3313
S'registration_id'
p3314
asbag61
(g82
g63
NtRp3315
(dp3316
g66
(dp3317
g93
g94
ssg75
g3306
sg68
(lp3318
S':'
asbag61
(g82
g63
NtRp3319
(dp3320
g66
(dp3321
sg75
g3306
sg68
(lp3322
g61
(g62
g63
NtRp3323
(dp3324
g66
(dp3325
g74
I3
ssg75
g3319
sg68
(lp3326
S''
asbasbasbag61
(g77
g63
NtRp3327
(dp3328
g66
(dp3329
sg75
g3151
sg68
(lp3330
g61
(g82
g63
NtRp3331
(dp3332
g66
(dp3333
g86
g87
ssg75
g3327
sg68
(lp3334
S'registration_key'
p3335
asbag61
(g82
g63
NtRp3336
(dp3337
g66
(dp3338
g93
g94
ssg75
g3327
sg68
(lp3339
S':'
asbag61
(g82
g63
NtRp3340
(dp3341
g66
(dp3342
sg75
g3327
sg68
(lp3343
g61
(g62
g63
NtRp3344
(dp3345
g66
(dp3346
g74
I3
ssg75
g3340
sg68
(lp3347
S''
asbasbasbag61
(g77
g63
NtRp3348
(dp3349
g66
(dp3350
sg75
g3151
sg68
(lp3351
g61
(g82
g63
NtRp3352
(dp3353
g66
(dp3354
g86
g87
ssg75
g3348
sg68
(lp3355
S'reset_password_key'
p3356
asbag61
(g82
g63
NtRp3357
(dp3358
g66
(dp3359
g93
g94
ssg75
g3348
sg68
(lp3360
S':'
asbag61
(g82
g63
NtRp3361
(dp3362
g66
(dp3363
sg75
g3348
sg68
(lp3364
g61
(g62
g63
NtRp3365
(dp3366
g66
(dp3367
g74
I3
ssg75
g3361
sg68
(lp3368
S''
asbasbasbasbasbasbasbag61
(g77
g63
NtRp3369
(dp3370
g66
(dp3371
sg75
g3039
sg68
(lp3372
g61
(g82
g63
NtRp3373
(dp3374
g66
(dp3375
g86
g87
ssg75
g3369
sg68
(lp3376
S'user_groups'
p3377
asbag61
(g82
g63
NtRp3378
(dp3379
g66
(dp3380
g93
g94
ssg75
g3369
sg68
(lp3381
S':'
asbag61
(g82
g63
NtRp3382
(dp3383
g66
(dp3384
sg75
g3369
sg68
(lp3385
g61
(g62
g63
NtRp3386
(dp3387
g66
(dp3388
g74
I4
ssg75
g3382
sg68
(lp3389
g61
(g70
g63
NtRp3390
(dp3391
g66
(dp3392
g74
I3
ssg75
Nsg68
(lp3393
g61
(g77
g63
NtRp3394
(dp3395
g66
(dp3396
sg75
g3390
sg68
(lp3397
g61
(g82
g63
NtRp3398
(dp3399
g66
(dp3400
g86
g87
ssg75
g3394
sg68
(lp3401
S'1'
asbag61
(g82
g63
NtRp3402
(dp3403
g66
(dp3404
g93
g94
ssg75
g3394
sg68
(lp3405
S':'
asbag61
(g82
g63
NtRp3406
(dp3407
g66
(dp3408
sg75
g3394
sg68
(lp3409
g61
(g62
g63
NtRp3410
(dp3411
g66
(dp3412
g74
I3
ssg75
g3406
sg68
(lp3413
S'user_1'
p3414
asbasbasbasbasbasbasbasbasbasbasbasbasbsS'etype'
p3415
S"<class 'sqlite3.OperationalError'>"
p3416
sS'date'
p3417
S'Thu Apr 19 21:34:26 2012'
p3418
sS'response'
p3419
g61
(g62
g63
NtRp3420
(dp3421
g66
(dp3422
sg68
(lp3423
g61
(g70
g63
NtRp3424
(dp3425
g66
(dp3426
g74
I5
ssg75
Nsg68
(lp3427
g61
(g77
g63
NtRp3428
(dp3429
g66
(dp3430
sg75
g3424
sg68
(lp3431
g61
(g82
g63
NtRp3432
(dp3433
g66
(dp3434
g86
g87
ssg75
g3428
sg68
(lp3435
g159
asbag61
(g82
g63
NtRp3436
(dp3437
g66
(dp3438
g93
g94
ssg75
g3428
sg68
(lp3439
S':'
asbag61
(g82
g63
NtRp3440
(dp3441
g66
(dp3442
sg75
g3428
sg68
(lp3443
g61
(g62
g63
NtRp3444
(dp3445
g66
(dp3446
g74
I5
ssg75
g3440
sg68
(lp3447
S'<cStringIO.StringO object at 0x02DF5AC0>'
p3448
asbasbasbag61
(g77
g63
NtRp3449
(dp3450
g66
(dp3451
sg75
g3424
sg68
(lp3452
g61
(g82
g63
NtRp3453
(dp3454
g66
(dp3455
g86
g87
ssg75
g3449
sg68
(lp3456
g225
asbag61
(g82
g63
NtRp3457
(dp3458
g66
(dp3459
g93
g94
ssg75
g3449
sg68
(lp3460
S':'
asbag61
(g82
g63
NtRp3461
(dp3462
g66
(dp3463
sg75
g3449
sg68
(lp3464
g61
(g62
g63
NtRp3465
(dp3466
g66
(dp3467
g74
I5
ssg75
g3461
sg68
(lp3468
g61
(g70
g63
NtRp3469
(dp3470
g66
(dp3471
g74
I4
ssg75
Nsg68
(lp3472
g61
(g77
g63
NtRp3473
(dp3474
g66
(dp3475
sg75
g3469
sg68
(lp3476
g61
(g82
g63
NtRp3477
(dp3478
g66
(dp3479
g86
g87
ssg75
g3473
sg68
(lp3480
S'session_id_loja'
p3481
asbag61
(g82
g63
NtRp3482
(dp3483
g66
(dp3484
g93
g94
ssg75
g3473
sg68
(lp3485
S':'
asbag61
(g82
g63
NtRp3486
(dp3487
g66
(dp3488
sg75
g3473
sg68
(lp3489
g61
(g62
g63
NtRp3490
(dp3491
g66
(dp3492
g74
I4
ssg75
g3486
sg68
(lp3493
g61
(g70
g63
NtRp3494
(dp3495
g66
(dp3496
g74
I3
ssg75
Nsg68
(lp3497
g61
(g77
g63
NtRp3498
(dp3499
g66
(dp3500
sg75
g3494
sg68
(lp3501
g61
(g82
g63
NtRp3502
(dp3503
g66
(dp3504
g86
g87
ssg75
g3498
sg68
(lp3505
g275
asbag61
(g82
g63
NtRp3506
(dp3507
g66
(dp3508
g93
g94
ssg75
g3498
sg68
(lp3509
S':'
asbag61
(g82
g63
NtRp3510
(dp3511
g66
(dp3512
sg75
g3498
sg68
(lp3513
g61
(g62
g63
NtRp3514
(dp3515
g66
(dp3516
g74
I3
ssg75
g3510
sg68
(lp3517
S''
asbasbasbag61
(g77
g63
NtRp3518
(dp3519
g66
(dp3520
sg75
g3494
sg68
(lp3521
g61
(g82
g63
NtRp3522
(dp3523
g66
(dp3524
g86
g87
ssg75
g3518
sg68
(lp3525
g296
asbag61
(g82
g63
NtRp3526
(dp3527
g66
(dp3528
g93
g94
ssg75
g3518
sg68
(lp3529
S':'
asbag61
(g82
g63
NtRp3530
(dp3531
g66
(dp3532
sg75
g3518
sg68
(lp3533
g61
(g62
g63
NtRp3534
(dp3535
g66
(dp3536
g74
I3
ssg75
g3530
sg68
(lp3537
S''
asbasbasbag61
(g77
g63
NtRp3538
(dp3539
g66
(dp3540
sg75
g3494
sg68
(lp3541
g61
(g82
g63
NtRp3542
(dp3543
g66
(dp3544
g86
g87
ssg75
g3538
sg68
(lp3545
g317
asbag61
(g82
g63
NtRp3546
(dp3547
g66
(dp3548
g93
g94
ssg75
g3538
sg68
(lp3549
S':'
asbag61
(g82
g63
NtRp3550
(dp3551
g66
(dp3552
sg75
g3538
sg68
(lp3553
g61
(g62
g63
NtRp3554
(dp3555
g66
(dp3556
g74
I3
ssg75
g3550
sg68
(lp3557
S''
asbasbasbag61
(g77
g63
NtRp3558
(dp3559
g66
(dp3560
sg75
g3494
sg68
(lp3561
g61
(g82
g63
NtRp3562
(dp3563
g66
(dp3564
g86
g87
ssg75
g3558
sg68
(lp3565
g338
asbag61
(g82
g63
NtRp3566
(dp3567
g66
(dp3568
g93
g94
ssg75
g3558
sg68
(lp3569
S':'
asbag61
(g82
g63
NtRp3570
(dp3571
g66
(dp3572
sg75
g3558
sg68
(lp3573
g61
(g62
g63
NtRp3574
(dp3575
g66
(dp3576
g74
I3
ssg75
g3570
sg68
(lp3577
S''
asbasbasbag61
(g77
g63
NtRp3578
(dp3579
g66
(dp3580
sg75
g3494
sg68
(lp3581
g61
(g82
g63
NtRp3582
(dp3583
g66
(dp3584
g86
g87
ssg75
g3578
sg68
(lp3585
g359
asbag61
(g82
g63
NtRp3586
(dp3587
g66
(dp3588
g93
g94
ssg75
g3578
sg68
(lp3589
S':'
asbag61
(g82
g63
NtRp3590
(dp3591
g66
(dp3592
sg75
g3578
sg68
(lp3593
g61
(g62
g63
NtRp3594
(dp3595
g66
(dp3596
g74
I3
ssg75
g3590
sg68
(lp3597
S''
asbasbasbag61
(g77
g63
NtRp3598
(dp3599
g66
(dp3600
sg75
g3494
sg68
(lp3601
g61
(g82
g63
NtRp3602
(dp3603
g66
(dp3604
g86
g87
ssg75
g3598
sg68
(lp3605
g380
asbag61
(g82
g63
NtRp3606
(dp3607
g66
(dp3608
g93
g94
ssg75
g3598
sg68
(lp3609
S':'
asbag61
(g82
g63
NtRp3610
(dp3611
g66
(dp3612
sg75
g3598
sg68
(lp3613
g61
(g62
g63
NtRp3614
(dp3615
g66
(dp3616
g74
I3
ssg75
g3610
sg68
(lp3617
S'/'
asbasbasbag61
(g77
g63
NtRp3618
(dp3619
g66
(dp3620
sg75
g3494
sg68
(lp3621
g61
(g82
g63
NtRp3622
(dp3623
g66
(dp3624
g86
g87
ssg75
g3618
sg68
(lp3625
g401
asbag61
(g82
g63
NtRp3626
(dp3627
g66
(dp3628
g93
g94
ssg75
g3618
sg68
(lp3629
S':'
asbag61
(g82
g63
NtRp3630
(dp3631
g66
(dp3632
sg75
g3618
sg68
(lp3633
g61
(g62
g63
NtRp3634
(dp3635
g66
(dp3636
g74
I3
ssg75
g3630
sg68
(lp3637
S''
asbasbasbag61
(g77
g63
NtRp3638
(dp3639
g66
(dp3640
sg75
g3494
sg68
(lp3641
g61
(g82
g63
NtRp3642
(dp3643
g66
(dp3644
g86
g87
ssg75
g3638
sg68
(lp3645
g422
asbag61
(g82
g63
NtRp3646
(dp3647
g66
(dp3648
g93
g94
ssg75
g3638
sg68
(lp3649
S':'
asbag61
(g82
g63
NtRp3650
(dp3651
g66
(dp3652
sg75
g3638
sg68
(lp3653
g61
(g62
g63
NtRp3654
(dp3655
g66
(dp3656
g74
I3
ssg75
g3650
sg68
(lp3657
S''
asbasbasbasbasbasbasbasbasbasbasbag61
(g77
g63
NtRp3658
(dp3659
g66
(dp3660
sg75
g3424
sg68
(lp3661
g61
(g82
g63
NtRp3662
(dp3663
g66
(dp3664
g86
g87
ssg75
g3658
sg68
(lp3665
S'delimiters'
p3666
asbag61
(g82
g63
NtRp3667
(dp3668
g66
(dp3669
g93
g94
ssg75
g3658
sg68
(lp3670
S':'
asbag61
(g82
g63
NtRp3671
(dp3672
g66
(dp3673
sg75
g3658
sg68
(lp3674
g61
(g62
g63
NtRp3675
(dp3676
g66
(dp3677
g74
I5
ssg75
g3671
sg68
(lp3678
g61
(g70
g63
NtRp3679
(dp3680
g66
(dp3681
g74
I4
ssg75
Nsg68
(lp3682
g61
(g77
g63
NtRp3683
(dp3684
g66
(dp3685
sg75
g3679
sg68
(lp3686
g61
(g82
g63
NtRp3687
(dp3688
g66
(dp3689
sg75
g3683
sg68
(lp3690
g61
(g62
g63
NtRp3691
(dp3692
g66
(dp3693
g74
I4
ssg75
g3687
sg68
(lp3694
S'{{'
p3695
asbasbasbag61
(g77
g63
NtRp3696
(dp3697
g66
(dp3698
sg75
g3679
sg68
(lp3699
g61
(g82
g63
NtRp3700
(dp3701
g66
(dp3702
sg75
g3696
sg68
(lp3703
g61
(g62
g63
NtRp3704
(dp3705
g66
(dp3706
g74
I4
ssg75
g3700
sg68
(lp3707
S'}}'
p3708
asbasbasbasbasbasbasbag61
(g77
g63
NtRp3709
(dp3710
g66
(dp3711
sg75
g3424
sg68
(lp3712
g61
(g82
g63
NtRp3713
(dp3714
g66
(dp3715
g86
g87
ssg75
g3709
sg68
(lp3716
S'files'
p3717
asbag61
(g82
g63
NtRp3718
(dp3719
g66
(dp3720
g93
g94
ssg75
g3709
sg68
(lp3721
S':'
asbag61
(g82
g63
NtRp3722
(dp3723
g66
(dp3724
sg75
g3709
sg68
(lp3725
g61
(g62
g63
NtRp3726
(dp3727
g66
(dp3728
g74
I5
ssg75
g3722
sg68
(lp3729
g61
(g70
g63
NtRp3730
(dp3731
g66
(dp3732
g74
I4
ssg75
Nsg68
(lp3733
sbasbasbasbag61
(g77
g63
NtRp3734
(dp3735
g66
(dp3736
sg75
g3424
sg68
(lp3737
g61
(g82
g63
NtRp3738
(dp3739
g66
(dp3740
g86
g87
ssg75
g3734
sg68
(lp3741
S'flash'
p3742
asbag61
(g82
g63
NtRp3743
(dp3744
g66
(dp3745
g93
g94
ssg75
g3734
sg68
(lp3746
S':'
asbag61
(g82
g63
NtRp3747
(dp3748
g66
(dp3749
sg75
g3734
sg68
(lp3750
g61
(g62
g63
NtRp3751
(dp3752
g66
(dp3753
g74
I5
ssg75
g3747
sg68
(lp3754
S''
asbasbasbag61
(g77
g63
NtRp3755
(dp3756
g66
(dp3757
sg75
g3424
sg68
(lp3758
g61
(g82
g63
NtRp3759
(dp3760
g66
(dp3761
g86
g87
ssg75
g3755
sg68
(lp3762
S'generic_patterns'
p3763
asbag61
(g82
g63
NtRp3764
(dp3765
g66
(dp3766
g93
g94
ssg75
g3755
sg68
(lp3767
S':'
asbag61
(g82
g63
NtRp3768
(dp3769
g66
(dp3770
sg75
g3755
sg68
(lp3771
g61
(g62
g63
NtRp3772
(dp3773
g66
(dp3774
g74
I5
ssg75
g3768
sg68
(lp3775
g61
(g70
g63
NtRp3776
(dp3777
g66
(dp3778
g74
I4
ssg75
Nsg68
(lp3779
sbasbasbasbag61
(g77
g63
NtRp3780
(dp3781
g66
(dp3782
sg75
g3424
sg68
(lp3783
g61
(g82
g63
NtRp3784
(dp3785
g66
(dp3786
g86
g87
ssg75
g3780
sg68
(lp3787
S'headers'
p3788
asbag61
(g82
g63
NtRp3789
(dp3790
g66
(dp3791
g93
g94
ssg75
g3780
sg68
(lp3792
S':'
asbag61
(g82
g63
NtRp3793
(dp3794
g66
(dp3795
sg75
g3780
sg68
(lp3796
g61
(g62
g63
NtRp3797
(dp3798
g66
(dp3799
g74
I5
ssg75
g3793
sg68
(lp3800
g61
(g70
g63
NtRp3801
(dp3802
g66
(dp3803
g74
I4
ssg75
Nsg68
(lp3804
g61
(g77
g63
NtRp3805
(dp3806
g66
(dp3807
sg75
g3801
sg68
(lp3808
g61
(g82
g63
NtRp3809
(dp3810
g66
(dp3811
g86
g87
ssg75
g3805
sg68
(lp3812
S'Cache-Control'
p3813
asbag61
(g82
g63
NtRp3814
(dp3815
g66
(dp3816
g93
g94
ssg75
g3805
sg68
(lp3817
S':'
asbag61
(g82
g63
NtRp3818
(dp3819
g66
(dp3820
sg75
g3805
sg68
(lp3821
g61
(g62
g63
NtRp3822
(dp3823
g66
(dp3824
g74
I4
ssg75
g3818
sg68
(lp3825
S'no-store, no-cache, must-revalidate, post-check=0, pre-check=0'
p3826
asbasbasbag61
(g77
g63
NtRp3827
(dp3828
g66
(dp3829
sg75
g3801
sg68
(lp3830
g61
(g82
g63
NtRp3831
(dp3832
g66
(dp3833
g86
g87
ssg75
g3827
sg68
(lp3834
S'Content-Type'
p3835
asbag61
(g82
g63
NtRp3836
(dp3837
g66
(dp3838
g93
g94
ssg75
g3827
sg68
(lp3839
S':'
asbag61
(g82
g63
NtRp3840
(dp3841
g66
(dp3842
sg75
g3827
sg68
(lp3843
g61
(g62
g63
NtRp3844
(dp3845
g66
(dp3846
g74
I4
ssg75
g3840
sg68
(lp3847
S'text/html; charset=utf-8'
p3848
asbasbasbag61
(g77
g63
NtRp3849
(dp3850
g66
(dp3851
sg75
g3801
sg68
(lp3852
g61
(g82
g63
NtRp3853
(dp3854
g66
(dp3855
g86
g87
ssg75
g3849
sg68
(lp3856
S'Expires'
p3857
asbag61
(g82
g63
NtRp3858
(dp3859
g66
(dp3860
g93
g94
ssg75
g3849
sg68
(lp3861
S':'
asbag61
(g82
g63
NtRp3862
(dp3863
g66
(dp3864
sg75
g3849
sg68
(lp3865
g61
(g62
g63
NtRp3866
(dp3867
g66
(dp3868
g74
I4
ssg75
g3862
sg68
(lp3869
S'Fri, 20 Apr 2012 00:34:26 GMT'
p3870
asbasbasbag61
(g77
g63
NtRp3871
(dp3872
g66
(dp3873
sg75
g3801
sg68
(lp3874
g61
(g82
g63
NtRp3875
(dp3876
g66
(dp3877
g86
g87
ssg75
g3871
sg68
(lp3878
S'Pragma'
p3879
asbag61
(g82
g63
NtRp3880
(dp3881
g66
(dp3882
g93
g94
ssg75
g3871
sg68
(lp3883
S':'
asbag61
(g82
g63
NtRp3884
(dp3885
g66
(dp3886
sg75
g3871
sg68
(lp3887
g61
(g62
g63
NtRp3888
(dp3889
g66
(dp3890
g74
I4
ssg75
g3884
sg68
(lp3891
S'no-cache'
p3892
asbasbasbag61
(g77
g63
NtRp3893
(dp3894
g66
(dp3895
sg75
g3801
sg68
(lp3896
g61
(g82
g63
NtRp3897
(dp3898
g66
(dp3899
g86
g87
ssg75
g3893
sg68
(lp3900
S'X-Powered-By'
p3901
asbag61
(g82
g63
NtRp3902
(dp3903
g66
(dp3904
g93
g94
ssg75
g3893
sg68
(lp3905
S':'
asbag61
(g82
g63
NtRp3906
(dp3907
g66
(dp3908
sg75
g3893
sg68
(lp3909
g61
(g62
g63
NtRp3910
(dp3911
g66
(dp3912
g74
I4
ssg75
g3906
sg68
(lp3913
S'web2py'
p3914
asbasbasbasbasbasbasbag61
(g77
g63
NtRp3915
(dp3916
g66
(dp3917
sg75
g3424
sg68
(lp3918
g61
(g82
g63
NtRp3919
(dp3920
g66
(dp3921
g86
g87
ssg75
g3915
sg68
(lp3922
S'menu'
p3923
asbag61
(g82
g63
NtRp3924
(dp3925
g66
(dp3926
g93
g94
ssg75
g3915
sg68
(lp3927
S':'
asbag61
(g82
g63
NtRp3928
(dp3929
g66
(dp3930
sg75
g3915
sg68
(lp3931
g61
(g62
g63
NtRp3932
(dp3933
g66
(dp3934
g74
I5
ssg75
g3928
sg68
(lp3935
g61
(g70
g63
NtRp3936
(dp3937
g66
(dp3938
g74
I4
ssg75
Nsg68
(lp3939
sbasbasbasbag61
(g77
g63
NtRp3940
(dp3941
g66
(dp3942
sg75
g3424
sg68
(lp3943
g61
(g82
g63
NtRp3944
(dp3945
g66
(dp3946
g86
g87
ssg75
g3940
sg68
(lp3947
S'meta'
p3948
asbag61
(g82
g63
NtRp3949
(dp3950
g66
(dp3951
g93
g94
ssg75
g3940
sg68
(lp3952
S':'
asbag61
(g82
g63
NtRp3953
(dp3954
g66
(dp3955
sg75
g3940
sg68
(lp3956
g61
(g62
g63
NtRp3957
(dp3958
g66
(dp3959
g74
I5
ssg75
g3953
sg68
(lp3960
g61
(g70
g63
NtRp3961
(dp3962
g66
(dp3963
g74
I4
ssg75
Nsg68
(lp3964
g61
(g77
g63
NtRp3965
(dp3966
g66
(dp3967
sg75
g3961
sg68
(lp3968
g61
(g82
g63
NtRp3969
(dp3970
g66
(dp3971
g86
g87
ssg75
g3965
sg68
(lp3972
S'description'
p3973
asbag61
(g82
g63
NtRp3974
(dp3975
g66
(dp3976
g93
g94
ssg75
g3965
sg68
(lp3977
S':'
asbag61
(g82
g63
NtRp3978
(dp3979
g66
(dp3980
sg75
g3965
sg68
(lp3981
g61
(g62
g63
NtRp3982
(dp3983
g66
(dp3984
g74
I4
ssg75
g3978
sg68
(lp3985
S'Loja virtual'
p3986
asbasbasbasbasbasbasbag61
(g77
g63
NtRp3987
(dp3988
g66
(dp3989
sg75
g3424
sg68
(lp3990
g61
(g82
g63
NtRp3991
(dp3992
g66
(dp3993
g86
g87
ssg75
g3987
sg68
(lp3994
S'postprocessing'
p3995
asbag61
(g82
g63
NtRp3996
(dp3997
g66
(dp3998
g93
g94
ssg75
g3987
sg68
(lp3999
S':'
asbag61
(g82
g63
NtRp4000
(dp4001
g66
(dp4002
sg75
g3987
sg68
(lp4003
g61
(g62
g63
NtRp4004
(dp4005
g66
(dp4006
g74
I5
ssg75
g4000
sg68
(lp4007
g61
(g70
g63
NtRp4008
(dp4009
g66
(dp4010
g74
I4
ssg75
Nsg68
(lp4011
sbasbasbasbag61
(g77
g63
NtRp4012
(dp4013
g66
(dp4014
sg75
g3424
sg68
(lp4015
g61
(g82
g63
NtRp4016
(dp4017
g66
(dp4018
g86
g87
ssg75
g4012
sg68
(lp4019
S'session_file'
p4020
asbag61
(g82
g63
NtRp4021
(dp4022
g66
(dp4023
g93
g94
ssg75
g4012
sg68
(lp4024
S':'
asbag61
(g82
g63
NtRp4025
(dp4026
g66
(dp4027
sg75
g4012
sg68
(lp4028
g61
(g62
g63
NtRp4029
(dp4030
g66
(dp4031
g74
I5
ssg75
g4025
sg68
(lp4032
S"<open file 'c:\\Users\\rochacbruno\\aula7_mar12\\web2py\\applications\\loja\\sessions\\127.0.0.1-61b8cf1c-9134-4b11-9b6b-996aea8b69a0', mode 'rb+' at 0x05169020>"
p4033
asbasbasbag61
(g77
g63
NtRp4034
(dp4035
g66
(dp4036
sg75
g3424
sg68
(lp4037
g61
(g82
g63
NtRp4038
(dp4039
g66
(dp4040
g86
g87
ssg75
g4034
sg68
(lp4041
S'session_filename'
p4042
asbag61
(g82
g63
NtRp4043
(dp4044
g66
(dp4045
g93
g94
ssg75
g4034
sg68
(lp4046
S':'
asbag61
(g82
g63
NtRp4047
(dp4048
g66
(dp4049
sg75
g4034
sg68
(lp4050
g61
(g62
g63
NtRp4051
(dp4052
g66
(dp4053
g74
I5
ssg75
g4047
sg68
(lp4054
S'c:\\Users\\rochacbruno\\aula7_mar12\\web2py\\applications\\loja\\sessions\\127.0.0.1-61b8cf1c-9134-4b11-9b6b-996aea8b69a0'
p4055
asbasbasbag61
(g77
g63
NtRp4056
(dp4057
g66
(dp4058
sg75
g3424
sg68
(lp4059
g61
(g82
g63
NtRp4060
(dp4061
g66
(dp4062
g86
g87
ssg75
g4056
sg68
(lp4063
S'session_id'
p4064
asbag61
(g82
g63
NtRp4065
(dp4066
g66
(dp4067
g93
g94
ssg75
g4056
sg68
(lp4068
S':'
asbag61
(g82
g63
NtRp4069
(dp4070
g66
(dp4071
sg75
g4056
sg68
(lp4072
g61
(g62
g63
NtRp4073
(dp4074
g66
(dp4075
g74
I5
ssg75
g4069
sg68
(lp4076
S'127.0.0.1-61b8cf1c-9134-4b11-9b6b-996aea8b69a0'
p4077
asbasbasbag61
(g77
g63
NtRp4078
(dp4079
g66
(dp4080
sg75
g3424
sg68
(lp4081
g61
(g82
g63
NtRp4082
(dp4083
g66
(dp4084
g86
g87
ssg75
g4078
sg68
(lp4085
S'session_id_name'
p4086
asbag61
(g82
g63
NtRp4087
(dp4088
g66
(dp4089
g93
g94
ssg75
g4078
sg68
(lp4090
S':'
asbag61
(g82
g63
NtRp4091
(dp4092
g66
(dp4093
sg75
g4078
sg68
(lp4094
g61
(g62
g63
NtRp4095
(dp4096
g66
(dp4097
g74
I5
ssg75
g4091
sg68
(lp4098
g3481
asbasbasbag61
(g77
g63
NtRp4099
(dp4100
g66
(dp4101
sg75
g3424
sg68
(lp4102
g61
(g82
g63
NtRp4103
(dp4104
g66
(dp4105
g86
g87
ssg75
g4099
sg68
(lp4106
S'session_locked'
p4107
asbag61
(g82
g63
NtRp4108
(dp4109
g66
(dp4110
g93
g94
ssg75
g4099
sg68
(lp4111
S':'
asbag61
(g82
g63
NtRp4112
(dp4113
g66
(dp4114
sg75
g4099
sg68
(lp4115
g61
(g62
g63
NtRp4116
(dp4117
g66
(dp4118
g74
I5
ssg75
g4112
sg68
(lp4119
g1517
asbasbasbag61
(g77
g63
NtRp4120
(dp4121
g66
(dp4122
sg75
g3424
sg68
(lp4123
g61
(g82
g63
NtRp4124
(dp4125
g66
(dp4126
g86
g87
ssg75
g4120
sg68
(lp4127
S'session_new'
p4128
asbag61
(g82
g63
NtRp4129
(dp4130
g66
(dp4131
g93
g94
ssg75
g4120
sg68
(lp4132
S':'
asbag61
(g82
g63
NtRp4133
(dp4134
g66
(dp4135
sg75
g4120
sg68
(lp4136
g61
(g62
g63
NtRp4137
(dp4138
g66
(dp4139
g74
I5
ssg75
g4133
sg68
(lp4140
g104
asbasbasbag61
(g77
g63
NtRp4141
(dp4142
g66
(dp4143
sg75
g3424
sg68
(lp4144
g61
(g82
g63
NtRp4145
(dp4146
g66
(dp4147
g86
g87
ssg75
g4141
sg68
(lp4148
S'status'
p4149
asbag61
(g82
g63
NtRp4150
(dp4151
g66
(dp4152
g93
g94
ssg75
g4141
sg68
(lp4153
S':'
asbag61
(g82
g63
NtRp4154
(dp4155
g66
(dp4156
sg75
g4141
sg68
(lp4157
g61
(g62
g63
NtRp4158
(dp4159
g66
(dp4160
g74
I5
ssg75
g4154
sg68
(lp4161
S'200'
p4162
asbasbasbag61
(g77
g63
NtRp4163
(dp4164
g66
(dp4165
sg75
g3424
sg68
(lp4166
g61
(g82
g63
NtRp4167
(dp4168
g66
(dp4169
g86
g87
ssg75
g4163
sg68
(lp4170
S'title'
p4171
asbag61
(g82
g63
NtRp4172
(dp4173
g66
(dp4174
g93
g94
ssg75
g4163
sg68
(lp4175
S':'
asbag61
(g82
g63
NtRp4176
(dp4177
g66
(dp4178
sg75
g4163
sg68
(lp4179
g61
(g62
g63
NtRp4180
(dp4181
g66
(dp4182
g74
I5
ssg75
g4176
sg68
(lp4183
S'loja web2py'
p4184
asbasbasbag61
(g77
g63
NtRp4185
(dp4186
g66
(dp4187
sg75
g3424
sg68
(lp4188
g61
(g82
g63
NtRp4189
(dp4190
g66
(dp4191
g86
g87
ssg75
g4185
sg68
(lp4192
g2161
asbag61
(g82
g63
NtRp4193
(dp4194
g66
(dp4195
g93
g94
ssg75
g4185
sg68
(lp4196
S':'
asbag61
(g82
g63
NtRp4197
(dp4198
g66
(dp4199
sg75
g4185
sg68
(lp4200
g61
(g62
g63
NtRp4201
(dp4202
g66
(dp4203
g74
I5
ssg75
g4197
sg68
(lp4204
g2174
asbasbasbag61
(g77
g63
NtRp4205
(dp4206
g66
(dp4207
sg75
g3424
sg68
(lp4208
g61
(g82
g63
NtRp4209
(dp4210
g66
(dp4211
g86
g87
ssg75
g4205
sg68
(lp4212
S'view'
p4213
asbag61
(g82
g63
NtRp4214
(dp4215
g66
(dp4216
g93
g94
ssg75
g4205
sg68
(lp4217
S':'
asbag61
(g82
g63
NtRp4218
(dp4219
g66
(dp4220
sg75
g4205
sg68
(lp4221
g61
(g62
g63
NtRp4222
(dp4223
g66
(dp4224
g74
I5
ssg75
g4218
sg68
(lp4225
S'home/index.html'
p4226
asbasbasbasbasbsS'locals'
p4227
(dp4228
S'a'
S"('ALTER TABLE produto ADD sku CHAR(512) UNIQUE;',)"
p4229
sS'self'
p4230
S'<gluon.dal.SQLiteAdapter object>'
p4231
sS'b'
g21
sS't0'
p4232
S'1334882066.969'
p4233
sssS'traceback'
p4234
S'Traceback (most recent call last):\n  File "c:\\Users\\rochacbruno\\aula7_mar12\\web2py\\gluon\\restricted.py", line 205, in restricted\n    exec ccode in environment\n  File "c:\\Users\\rochacbruno\\aula7_mar12\\web2py\\applications\\loja\\models\\300_datamodels.py", line 23, in <module>\n    Field("SKU", unique=True),\n  File "c:\\Users\\rochacbruno\\aula7_mar12\\web2py\\gluon\\dal.py", line 6320, in define_table\n    polymodel=polymodel)\n  File "c:\\Users\\rochacbruno\\aula7_mar12\\web2py\\gluon\\dal.py", line 742, in create_table\n    fake_migrate=fake_migrate)\n  File "c:\\Users\\rochacbruno\\aula7_mar12\\web2py\\gluon\\dal.py", line 830, in migrate_table\n    self.execute(sub_query)\n  File "c:\\Users\\rochacbruno\\aula7_mar12\\web2py\\gluon\\dal.py", line 1392, in execute\n    return self.log_execute(*a, **b)\n  File "c:\\Users\\rochacbruno\\aula7_mar12\\web2py\\gluon\\dal.py", line 1386, in log_execute\n    ret = self.cursor.execute(*a, **b)\nOperationalError: Cannot add a UNIQUE column\n'
p4235
s.