(dp1
S'output'
p2
S"<type 'exceptions.SyntaxError'> invalid syntax (300_datamodels.py, line 39)"
p3
sS'layer'
p4
S'c:\\Users\\rochacbruno\\aula7_mar12\\web2py\\applications\\loja\\models\\300_datamodels.py'
p5
sS'code'
p6
S'# coding: utf-8\n\n# id criado obrigatoriamente\n# format\n# notnull, unique, default\n# compute, represent, widget, writable, readable\n# Virtual, Lazy field\n# validator (quantidade maxima por item)\n\nCategoria = db.define_table("categoria",\n        Field("nome", "string"),\n        Field("descricao", "text"),\n        Field("foto", "upload"),\n        Field("%(nome)s"),\n    )\n\nProduto = db.define_table("produto",\n        Field("categoria", "reference categoria"),\n        Field("name"),\n        Field("descricao", "text"),\n        Field("peso", "double"),\n        Field("preco", "decimal"),\n        Field("estoque", "integer"),\n        Field("foto", "upload"),\n        Field("miniatura", "upload"), # T / F\n        Field("destaque", "boolean", default=False),\n        Field("email_enviado", "boolean", default=False),\n        Field("quantidade_maxima", "integer", default=5),\n        format = lambda row: "%(nome)s" % row\n    )\n\n# virtual peso total e preco total\n\nPedido = db.define_table("pedido",\n        Field("comprador", "reference auth_user"),\n        Field("itens", "integer"),\n        Field("valor", "decimal"),\n        Field("enviar_para", "reference enderecos")\n        Field("status"),\n    )\n\nPedidoItens = db.define_table("pedido_itens",\n        Field("pedido_id", "reference pedido"),\n        Field("produto_id", Produto), # db.pedido\n        Field("quantidade", "integer"),\n        Field("preco_atual", "decimal"),\n        Field("valor_total", "decimal"),\n    )\n\nEndereco = db.define_table("endereco",\n        Field("cliente_id", "reference auth_user"),\n        Field("cep"),\n        Field("pais"),\n        Field("estado"),\n        Field("cidade"),\n        Field("logradouro"),\n        Field("numero"),\n        Field("complemento"),\n    )\n\n'
p7
sS'snapshot'
p8
(dp9
S'exception'
p10
(dp11
S'__getslice__'
p12
S"<method-wrapper '__getslice__' of exceptions.SyntaxError object>"
p13
sS'text'
p14
S'\'        Field("status"),\\n\''
p15
sS'__str__'
p16
S"<method-wrapper '__str__' of exceptions.SyntaxError object>"
p17
sS'__reduce__'
p18
S'<built-in method __reduce__ of exceptions.SyntaxError object>'
p19
sS'__dict__'
p20
S'{}'
p21
sS'__sizeof__'
p22
S'<built-in method __sizeof__ of exceptions.SyntaxError object>'
p23
sS'__init__'
p24
S"<method-wrapper '__init__' of exceptions.SyntaxError object>"
p25
sS'__setattr__'
p26
S"<method-wrapper '__setattr__' of exceptions.SyntaxError object>"
p27
sS'__reduce_ex__'
p28
S'<built-in method __reduce_ex__ of exceptions.SyntaxError object>'
p29
sS'__new__'
p30
S'<built-in method __new__ of type object>'
p31
sS'__format__'
p32
S'<built-in method __format__ of exceptions.SyntaxError object>'
p33
sS'__class__'
p34
S"<type 'exceptions.SyntaxError'>"
p35
sS'filename'
p36
S"r'c:\\Users\\rochacbruno\\aula7_mar12\\web2py\\applications\\loja\\models\\300_datamodels.py'"
p37
sS'lineno'
p38
S'39'
p39
sS'msg'
p40
S"'invalid syntax'"
p41
sS'__doc__'
p42
S"'Invalid syntax.'"
p43
sS'__getitem__'
p44
S"<method-wrapper '__getitem__' of exceptions.SyntaxError object>"
p45
sS'__setstate__'
p46
S'<built-in method __setstate__ of exceptions.SyntaxError object>'
p47
sS'__getattribute__'
p48
S"<method-wrapper '__getattribute__' of exceptions.SyntaxError object>"
p49
sS'print_file_and_line'
p50
S'None'
p51
sS'args'
p52
S'(\'invalid syntax\', (r\'c:\\Users\\rochacbruno\\aula7_mar12\\web2py\\applications\\loja\\models\\300_datamodels.py\', 39, 13, \'        Field("status"),\\n\'))'
p53
sS'__subclasshook__'
p54
S'<built-in method __subclasshook__ of type object>'
p55
sS'offset'
p56
S'13'
p57
sS'__unicode__'
p58
S'<built-in method __unicode__ of exceptions.SyntaxError object>'
p59
sS'__delattr__'
p60
S"<method-wrapper '__delattr__' of exceptions.SyntaxError object>"
p61
sS'__repr__'
p62
S"<method-wrapper '__repr__' of exceptions.SyntaxError object>"
p63
sS'__hash__'
p64
S"<method-wrapper '__hash__' of exceptions.SyntaxError object>"
p65
ssS'evalue'
p66
S'invalid syntax (300_datamodels.py, line 39)'
p67
sS'request'
p68
ccopy_reg
_reconstructor
p69
(cgluon.html
BEAUTIFY
p70
c__builtin__
object
p71
NtRp72
(dp73
S'attributes'
p74
(dp75
sS'components'
p76
(lp77
g69
(cgluon.html
TABLE
p78
g71
NtRp79
(dp80
g74
(dp81
S'level'
p82
I5
ssS'parent'
p83
Nsg76
(lp84
g69
(cgluon.html
TR
p85
g71
NtRp86
(dp87
g74
(dp88
sg83
g79
sg76
(lp89
g69
(cgluon.html
TD
p90
g71
NtRp91
(dp92
g74
(dp93
S'_style'
p94
S'font-weight:bold;vertical-align:top'
p95
ssg83
g86
sg76
(lp96
S'ajax'
p97
asbag69
(g90
g71
NtRp98
(dp99
g74
(dp100
S'_valign'
p101
S'top'
p102
ssg83
g86
sg76
(lp103
S':'
asbag69
(g90
g71
NtRp104
(dp105
g74
(dp106
sg83
g86
sg76
(lp107
g69
(g70
g71
NtRp108
(dp109
g74
(dp110
g82
I5
ssg83
g104
sg76
(lp111
S'False'
p112
asbasbasbag69
(g85
g71
NtRp113
(dp114
g74
(dp115
sg83
g79
sg76
(lp116
g69
(g90
g71
NtRp117
(dp118
g74
(dp119
g94
g95
ssg83
g113
sg76
(lp120
S'application'
p121
asbag69
(g90
g71
NtRp122
(dp123
g74
(dp124
g101
g102
ssg83
g113
sg76
(lp125
S':'
asbag69
(g90
g71
NtRp126
(dp127
g74
(dp128
sg83
g113
sg76
(lp129
g69
(g70
g71
NtRp130
(dp131
g74
(dp132
g82
I5
ssg83
g126
sg76
(lp133
S'loja'
p134
asbasbasbag69
(g85
g71
NtRp135
(dp136
g74
(dp137
sg83
g79
sg76
(lp138
g69
(g90
g71
NtRp139
(dp140
g74
(dp141
g94
g95
ssg83
g135
sg76
(lp142
g52
asbag69
(g90
g71
NtRp143
(dp144
g74
(dp145
g101
g102
ssg83
g135
sg76
(lp146
S':'
asbag69
(g90
g71
NtRp147
(dp148
g74
(dp149
sg83
g135
sg76
(lp150
g69
(g70
g71
NtRp151
(dp152
g74
(dp153
g82
I5
ssg83
g147
sg76
(lp154
g69
(g78
g71
NtRp155
(dp156
g74
(dp157
g82
I4
ssg83
Nsg76
(lp158
sbasbasbasbag69
(g85
g71
NtRp159
(dp160
g74
(dp161
sg83
g79
sg76
(lp162
g69
(g90
g71
NtRp163
(dp164
g74
(dp165
g94
g95
ssg83
g159
sg76
(lp166
S'body'
p167
asbag69
(g90
g71
NtRp168
(dp169
g74
(dp170
g101
g102
ssg83
g159
sg76
(lp171
S':'
asbag69
(g90
g71
NtRp172
(dp173
g74
(dp174
sg83
g159
sg76
(lp175
g69
(g70
g71
NtRp176
(dp177
g74
(dp178
g82
I5
ssg83
g172
sg76
(lp179
S'<cStringIO.StringO object at 0x02A0B8E0>'
p180
asbasbasbag69
(g85
g71
NtRp181
(dp182
g74
(dp183
sg83
g79
sg76
(lp184
g69
(g90
g71
NtRp185
(dp186
g74
(dp187
g94
g95
ssg83
g181
sg76
(lp188
S'client'
p189
asbag69
(g90
g71
NtRp190
(dp191
g74
(dp192
g101
g102
ssg83
g181
sg76
(lp193
S':'
asbag69
(g90
g71
NtRp194
(dp195
g74
(dp196
sg83
g181
sg76
(lp197
g69
(g70
g71
NtRp198
(dp199
g74
(dp200
g82
I5
ssg83
g194
sg76
(lp201
S'127.0.0.1'
p202
asbasbasbag69
(g85
g71
NtRp203
(dp204
g74
(dp205
sg83
g79
sg76
(lp206
g69
(g90
g71
NtRp207
(dp208
g74
(dp209
g94
g95
ssg83
g203
sg76
(lp210
S'controller'
p211
asbag69
(g90
g71
NtRp212
(dp213
g74
(dp214
g101
g102
ssg83
g203
sg76
(lp215
S':'
asbag69
(g90
g71
NtRp216
(dp217
g74
(dp218
sg83
g203
sg76
(lp219
g69
(g70
g71
NtRp220
(dp221
g74
(dp222
g82
I5
ssg83
g216
sg76
(lp223
S'home'
p224
asbasbasbag69
(g85
g71
NtRp225
(dp226
g74
(dp227
sg83
g79
sg76
(lp228
g69
(g90
g71
NtRp229
(dp230
g74
(dp231
g94
g95
ssg83
g225
sg76
(lp232
S'cookies'
p233
asbag69
(g90
g71
NtRp234
(dp235
g74
(dp236
g101
g102
ssg83
g225
sg76
(lp237
S':'
asbag69
(g90
g71
NtRp238
(dp239
g74
(dp240
sg83
g225
sg76
(lp241
g69
(g70
g71
NtRp242
(dp243
g74
(dp244
g82
I5
ssg83
g238
sg76
(lp245
g69
(g78
g71
NtRp246
(dp247
g74
(dp248
g82
I4
ssg83
Nsg76
(lp249
sbasbasbasbag69
(g85
g71
NtRp250
(dp251
g74
(dp252
sg83
g79
sg76
(lp253
g69
(g90
g71
NtRp254
(dp255
g74
(dp256
g94
g95
ssg83
g250
sg76
(lp257
S'env'
p258
asbag69
(g90
g71
NtRp259
(dp260
g74
(dp261
g101
g102
ssg83
g250
sg76
(lp262
S':'
asbag69
(g90
g71
NtRp263
(dp264
g74
(dp265
sg83
g250
sg76
(lp266
g69
(g70
g71
NtRp267
(dp268
g74
(dp269
g82
I5
ssg83
g263
sg76
(lp270
g69
(g78
g71
NtRp271
(dp272
g74
(dp273
g82
I4
ssg83
Nsg76
(lp274
g69
(g85
g71
NtRp275
(dp276
g74
(dp277
sg83
g271
sg76
(lp278
g69
(g90
g71
NtRp279
(dp280
g74
(dp281
g94
g95
ssg83
g275
sg76
(lp282
S'app_folders'
p283
asbag69
(g90
g71
NtRp284
(dp285
g74
(dp286
g101
g102
ssg83
g275
sg76
(lp287
S':'
asbag69
(g90
g71
NtRp288
(dp289
g74
(dp290
sg83
g275
sg76
(lp291
g69
(g70
g71
NtRp292
(dp293
g74
(dp294
g82
I4
ssg83
g288
sg76
(lp295
S"set(['c:\\\\Users\\\\rochacbruno\\\\aula7_mar12\\\\web2py\\\\applications\\\\loja\\\\'])"
p296
asbasbasbag69
(g85
g71
NtRp297
(dp298
g74
(dp299
sg83
g271
sg76
(lp300
g69
(g90
g71
NtRp301
(dp302
g74
(dp303
g94
g95
ssg83
g297
sg76
(lp304
S'applications_parent'
p305
asbag69
(g90
g71
NtRp306
(dp307
g74
(dp308
g101
g102
ssg83
g297
sg76
(lp309
S':'
asbag69
(g90
g71
NtRp310
(dp311
g74
(dp312
sg83
g297
sg76
(lp313
g69
(g70
g71
NtRp314
(dp315
g74
(dp316
g82
I4
ssg83
g310
sg76
(lp317
S'c:\\Users\\rochacbruno\\aula7_mar12\\web2py'
p318
asbasbasbag69
(g85
g71
NtRp319
(dp320
g74
(dp321
sg83
g271
sg76
(lp322
g69
(g90
g71
NtRp323
(dp324
g74
(dp325
g94
g95
ssg83
g319
sg76
(lp326
S'cmd_args'
p327
asbag69
(g90
g71
NtRp328
(dp329
g74
(dp330
g101
g102
ssg83
g319
sg76
(lp331
S':'
asbag69
(g90
g71
NtRp332
(dp333
g74
(dp334
sg83
g319
sg76
(lp335
g69
(g70
g71
NtRp336
(dp337
g74
(dp338
g82
I4
ssg83
g332
sg76
(lp339
g69
(g78
g71
NtRp340
(dp341
g74
(dp342
g82
I3
ssg83
Nsg76
(lp343
sbasbasbasbag69
(g85
g71
NtRp344
(dp345
g74
(dp346
sg83
g271
sg76
(lp347
g69
(g90
g71
NtRp348
(dp349
g74
(dp350
g94
g95
ssg83
g344
sg76
(lp351
S'cmd_options'
p352
asbag69
(g90
g71
NtRp353
(dp354
g74
(dp355
g101
g102
ssg83
g344
sg76
(lp356
S':'
asbag69
(g90
g71
NtRp357
(dp358
g74
(dp359
sg83
g344
sg76
(lp360
g69
(g70
g71
NtRp361
(dp362
g74
(dp363
g82
I4
ssg83
g357
sg76
(lp364
S"<Values at 0x2a037b0: {'verbose': False, 'ip': '127.0.0.1', 'shutdown_timeout': 5, 'taskbar': False, 'nocron': True, 'pid_filename': 'httpserver.pid', 'maxthreads': None, 'softcron': False, 'server_name': 'rochacbruno-HP', 'bpython': False, 'nogui': False, 'port': 8000, 'extcron': False, 'debuglevel': 30, 'test': None, 'folder': 'c:\\\\Users\\\\rochacbruno\\\\aula7_mar12\\\\web2py', 'config': '', 'import_models': False, 'winservice': '', 'shell': None, 'run': '', 'log_filename': 'httpserver.log', 'args': [''], 'socket_timeout': 5, 'ssl_ca_certificate': None, 'scheduler': None, 'profiler_filename': None, 'ssl_private_key': '', 'password': '1234', 'request_queue_size': 5, 'ssl_certificate': '', 'cronjob': False, 'numthreads': None, 'quiet': False, 'interfaces': None, 'minthreads': None, 'timeout': 10, 'plain': False, 'nobanner': False}>"
p365
asbasbasbag69
(g85
g71
NtRp366
(dp367
g74
(dp368
sg83
g271
sg76
(lp369
g69
(g90
g71
NtRp370
(dp371
g74
(dp372
g94
g95
ssg83
g366
sg76
(lp373
S'db_sessions'
p374
asbag69
(g90
g71
NtRp375
(dp376
g74
(dp377
g101
g102
ssg83
g366
sg76
(lp378
S':'
asbag69
(g90
g71
NtRp379
(dp380
g74
(dp381
sg83
g366
sg76
(lp382
g69
(g70
g71
NtRp383
(dp384
g74
(dp385
g82
I4
ssg83
g379
sg76
(lp386
S'set([])'
p387
asbasbasbag69
(g85
g71
NtRp388
(dp389
g74
(dp390
sg83
g271
sg76
(lp391
g69
(g90
g71
NtRp392
(dp393
g74
(dp394
g94
g95
ssg83
g388
sg76
(lp395
S'debugging'
p396
asbag69
(g90
g71
NtRp397
(dp398
g74
(dp399
g101
g102
ssg83
g388
sg76
(lp400
S':'
asbag69
(g90
g71
NtRp401
(dp402
g74
(dp403
sg83
g388
sg76
(lp404
g69
(g70
g71
NtRp405
(dp406
g74
(dp407
g82
I4
ssg83
g401
sg76
(lp408
g112
asbasbasbag69
(g85
g71
NtRp409
(dp410
g74
(dp411
sg83
g271
sg76
(lp412
g69
(g90
g71
NtRp413
(dp414
g74
(dp415
g94
g95
ssg83
g409
sg76
(lp416
S'gluon_parent'
p417
asbag69
(g90
g71
NtRp418
(dp419
g74
(dp420
g101
g102
ssg83
g409
sg76
(lp421
S':'
asbag69
(g90
g71
NtRp422
(dp423
g74
(dp424
sg83
g409
sg76
(lp425
g69
(g70
g71
NtRp426
(dp427
g74
(dp428
g82
I4
ssg83
g422
sg76
(lp429
S'c:\\Users\\rochacbruno\\aula7_mar12\\web2py'
p430
asbasbasbag69
(g85
g71
NtRp431
(dp432
g74
(dp433
sg83
g271
sg76
(lp434
g69
(g90
g71
NtRp435
(dp436
g74
(dp437
g94
g95
ssg83
g431
sg76
(lp438
S'http_accept'
p439
asbag69
(g90
g71
NtRp440
(dp441
g74
(dp442
g101
g102
ssg83
g431
sg76
(lp443
S':'
asbag69
(g90
g71
NtRp444
(dp445
g74
(dp446
sg83
g431
sg76
(lp447
g69
(g70
g71
NtRp448
(dp449
g74
(dp450
g82
I4
ssg83
g444
sg76
(lp451
S'text/html,application/xhtml+xml,application/xml;q=0.9,*/*;q=0.8'
p452
asbasbasbag69
(g85
g71
NtRp453
(dp454
g74
(dp455
sg83
g271
sg76
(lp456
g69
(g90
g71
NtRp457
(dp458
g74
(dp459
g94
g95
ssg83
g453
sg76
(lp460
S'http_accept_encoding'
p461
asbag69
(g90
g71
NtRp462
(dp463
g74
(dp464
g101
g102
ssg83
g453
sg76
(lp465
S':'
asbag69
(g90
g71
NtRp466
(dp467
g74
(dp468
sg83
g453
sg76
(lp469
g69
(g70
g71
NtRp470
(dp471
g74
(dp472
g82
I4
ssg83
g466
sg76
(lp473
S'gzip, deflate'
p474
asbasbasbag69
(g85
g71
NtRp475
(dp476
g74
(dp477
sg83
g271
sg76
(lp478
g69
(g90
g71
NtRp479
(dp480
g74
(dp481
g94
g95
ssg83
g475
sg76
(lp482
S'http_accept_language'
p483
asbag69
(g90
g71
NtRp484
(dp485
g74
(dp486
g101
g102
ssg83
g475
sg76
(lp487
S':'
asbag69
(g90
g71
NtRp488
(dp489
g74
(dp490
sg83
g475
sg76
(lp491
g69
(g70
g71
NtRp492
(dp493
g74
(dp494
g82
I4
ssg83
g488
sg76
(lp495
S'pt-br,en;q=0.8,pt;q=0.5,en-us;q=0.3'
p496
asbasbasbag69
(g85
g71
NtRp497
(dp498
g74
(dp499
sg83
g271
sg76
(lp500
g69
(g90
g71
NtRp501
(dp502
g74
(dp503
g94
g95
ssg83
g497
sg76
(lp504
S'http_connection'
p505
asbag69
(g90
g71
NtRp506
(dp507
g74
(dp508
g101
g102
ssg83
g497
sg76
(lp509
S':'
asbag69
(g90
g71
NtRp510
(dp511
g74
(dp512
sg83
g497
sg76
(lp513
g69
(g70
g71
NtRp514
(dp515
g74
(dp516
g82
I4
ssg83
g510
sg76
(lp517
S'keep-alive'
p518
asbasbasbag69
(g85
g71
NtRp519
(dp520
g74
(dp521
sg83
g271
sg76
(lp522
g69
(g90
g71
NtRp523
(dp524
g74
(dp525
g94
g95
ssg83
g519
sg76
(lp526
S'http_host'
p527
asbag69
(g90
g71
NtRp528
(dp529
g74
(dp530
g101
g102
ssg83
g519
sg76
(lp531
S':'
asbag69
(g90
g71
NtRp532
(dp533
g74
(dp534
sg83
g519
sg76
(lp535
g69
(g70
g71
NtRp536
(dp537
g74
(dp538
g82
I4
ssg83
g532
sg76
(lp539
S'localhost:8000'
p540
asbasbasbag69
(g85
g71
NtRp541
(dp542
g74
(dp543
sg83
g271
sg76
(lp544
g69
(g90
g71
NtRp545
(dp546
g74
(dp547
g94
g95
ssg83
g541
sg76
(lp548
S'http_user_agent'
p549
asbag69
(g90
g71
NtRp550
(dp551
g74
(dp552
g101
g102
ssg83
g541
sg76
(lp553
S':'
asbag69
(g90
g71
NtRp554
(dp555
g74
(dp556
sg83
g541
sg76
(lp557
g69
(g70
g71
NtRp558
(dp559
g74
(dp560
g82
I4
ssg83
g554
sg76
(lp561
S'Mozilla/5.0 (Windows NT 6.1; rv:11.0) Gecko/20100101 Firefox/11.0'
p562
asbasbasbag69
(g85
g71
NtRp563
(dp564
g74
(dp565
sg83
g271
sg76
(lp566
g69
(g90
g71
NtRp567
(dp568
g74
(dp569
g94
g95
ssg83
g563
sg76
(lp570
S'is_jython'
p571
asbag69
(g90
g71
NtRp572
(dp573
g74
(dp574
g101
g102
ssg83
g563
sg76
(lp575
S':'
asbag69
(g90
g71
NtRp576
(dp577
g74
(dp578
sg83
g563
sg76
(lp579
g69
(g70
g71
NtRp580
(dp581
g74
(dp582
g82
I4
ssg83
g576
sg76
(lp583
g112
asbasbasbag69
(g85
g71
NtRp584
(dp585
g74
(dp586
sg83
g271
sg76
(lp587
g69
(g90
g71
NtRp588
(dp589
g74
(dp590
g94
g95
ssg83
g584
sg76
(lp591
S'is_pypy'
p592
asbag69
(g90
g71
NtRp593
(dp594
g74
(dp595
g101
g102
ssg83
g584
sg76
(lp596
S':'
asbag69
(g90
g71
NtRp597
(dp598
g74
(dp599
sg83
g584
sg76
(lp600
g69
(g70
g71
NtRp601
(dp602
g74
(dp603
g82
I4
ssg83
g597
sg76
(lp604
g112
asbasbasbag69
(g85
g71
NtRp605
(dp606
g74
(dp607
sg83
g271
sg76
(lp608
g69
(g90
g71
NtRp609
(dp610
g74
(dp611
g94
g95
ssg83
g605
sg76
(lp612
S'path_info'
p613
asbag69
(g90
g71
NtRp614
(dp615
g74
(dp616
g101
g102
ssg83
g605
sg76
(lp617
S':'
asbag69
(g90
g71
NtRp618
(dp619
g74
(dp620
sg83
g605
sg76
(lp621
g69
(g70
g71
NtRp622
(dp623
g74
(dp624
g82
I4
ssg83
g618
sg76
(lp625
S'/loja/home/index'
p626
asbasbasbag69
(g85
g71
NtRp627
(dp628
g74
(dp629
sg83
g271
sg76
(lp630
g69
(g90
g71
NtRp631
(dp632
g74
(dp633
g94
g95
ssg83
g627
sg76
(lp634
S'query_string'
p635
asbag69
(g90
g71
NtRp636
(dp637
g74
(dp638
g101
g102
ssg83
g627
sg76
(lp639
S':'
asbag69
(g90
g71
NtRp640
(dp641
g74
(dp642
sg83
g627
sg76
(lp643
g69
(g70
g71
NtRp644
(dp645
g74
(dp646
g82
I4
ssg83
g640
sg76
(lp647
S''
asbasbasbag69
(g85
g71
NtRp648
(dp649
g74
(dp650
sg83
g271
sg76
(lp651
g69
(g90
g71
NtRp652
(dp653
g74
(dp654
g94
g95
ssg83
g648
sg76
(lp655
S'remote_addr'
p656
asbag69
(g90
g71
NtRp657
(dp658
g74
(dp659
g101
g102
ssg83
g648
sg76
(lp660
S':'
asbag69
(g90
g71
NtRp661
(dp662
g74
(dp663
sg83
g648
sg76
(lp664
g69
(g70
g71
NtRp665
(dp666
g74
(dp667
g82
I4
ssg83
g661
sg76
(lp668
g202
asbasbasbag69
(g85
g71
NtRp669
(dp670
g74
(dp671
sg83
g271
sg76
(lp672
g69
(g90
g71
NtRp673
(dp674
g74
(dp675
g94
g95
ssg83
g669
sg76
(lp676
S'remote_port'
p677
asbag69
(g90
g71
NtRp678
(dp679
g74
(dp680
g101
g102
ssg83
g669
sg76
(lp681
S':'
asbag69
(g90
g71
NtRp682
(dp683
g74
(dp684
sg83
g669
sg76
(lp685
g69
(g70
g71
NtRp686
(dp687
g74
(dp688
g82
I4
ssg83
g682
sg76
(lp689
S'51601'
p690
asbasbasbag69
(g85
g71
NtRp691
(dp692
g74
(dp693
sg83
g271
sg76
(lp694
g69
(g90
g71
NtRp695
(dp696
g74
(dp697
g94
g95
ssg83
g691
sg76
(lp698
S'request_method'
p699
asbag69
(g90
g71
NtRp700
(dp701
g74
(dp702
g101
g102
ssg83
g691
sg76
(lp703
S':'
asbag69
(g90
g71
NtRp704
(dp705
g74
(dp706
sg83
g691
sg76
(lp707
g69
(g70
g71
NtRp708
(dp709
g74
(dp710
g82
I4
ssg83
g704
sg76
(lp711
S'GET'
p712
asbasbasbag69
(g85
g71
NtRp713
(dp714
g74
(dp715
sg83
g271
sg76
(lp716
g69
(g90
g71
NtRp717
(dp718
g74
(dp719
g94
g95
ssg83
g713
sg76
(lp720
S'request_uri'
p721
asbag69
(g90
g71
NtRp722
(dp723
g74
(dp724
g101
g102
ssg83
g713
sg76
(lp725
S':'
asbag69
(g90
g71
NtRp726
(dp727
g74
(dp728
sg83
g713
sg76
(lp729
g69
(g70
g71
NtRp730
(dp731
g74
(dp732
g82
I4
ssg83
g726
sg76
(lp733
g626
asbasbasbag69
(g85
g71
NtRp734
(dp735
g74
(dp736
sg83
g271
sg76
(lp737
g69
(g90
g71
NtRp738
(dp739
g74
(dp740
g94
g95
ssg83
g734
sg76
(lp741
S'script_name'
p742
asbag69
(g90
g71
NtRp743
(dp744
g74
(dp745
g101
g102
ssg83
g734
sg76
(lp746
S':'
asbag69
(g90
g71
NtRp747
(dp748
g74
(dp749
sg83
g734
sg76
(lp750
g69
(g70
g71
NtRp751
(dp752
g74
(dp753
g82
I4
ssg83
g747
sg76
(lp754
S''
asbasbasbag69
(g85
g71
NtRp755
(dp756
g74
(dp757
sg83
g271
sg76
(lp758
g69
(g90
g71
NtRp759
(dp760
g74
(dp761
g94
g95
ssg83
g755
sg76
(lp762
S'server_name'
p763
asbag69
(g90
g71
NtRp764
(dp765
g74
(dp766
g101
g102
ssg83
g755
sg76
(lp767
S':'
asbag69
(g90
g71
NtRp768
(dp769
g74
(dp770
sg83
g755
sg76
(lp771
g69
(g70
g71
NtRp772
(dp773
g74
(dp774
g82
I4
ssg83
g768
sg76
(lp775
S'rochacbruno-HP'
p776
asbasbasbag69
(g85
g71
NtRp777
(dp778
g74
(dp779
sg83
g271
sg76
(lp780
g69
(g90
g71
NtRp781
(dp782
g74
(dp783
g94
g95
ssg83
g777
sg76
(lp784
S'server_port'
p785
asbag69
(g90
g71
NtRp786
(dp787
g74
(dp788
g101
g102
ssg83
g777
sg76
(lp789
S':'
asbag69
(g90
g71
NtRp790
(dp791
g74
(dp792
sg83
g777
sg76
(lp793
g69
(g70
g71
NtRp794
(dp795
g74
(dp796
g82
I4
ssg83
g790
sg76
(lp797
S'8000'
p798
asbasbasbag69
(g85
g71
NtRp799
(dp800
g74
(dp801
sg83
g271
sg76
(lp802
g69
(g90
g71
NtRp803
(dp804
g74
(dp805
g94
g95
ssg83
g799
sg76
(lp806
S'server_protocol'
p807
asbag69
(g90
g71
NtRp808
(dp809
g74
(dp810
g101
g102
ssg83
g799
sg76
(lp811
S':'
asbag69
(g90
g71
NtRp812
(dp813
g74
(dp814
sg83
g799
sg76
(lp815
g69
(g70
g71
NtRp816
(dp817
g74
(dp818
g82
I4
ssg83
g812
sg76
(lp819
S'HTTP/1.1'
p820
asbasbasbag69
(g85
g71
NtRp821
(dp822
g74
(dp823
sg83
g271
sg76
(lp824
g69
(g90
g71
NtRp825
(dp826
g74
(dp827
g94
g95
ssg83
g821
sg76
(lp828
S'server_software'
p829
asbag69
(g90
g71
NtRp830
(dp831
g74
(dp832
g101
g102
ssg83
g821
sg76
(lp833
S':'
asbag69
(g90
g71
NtRp834
(dp835
g74
(dp836
sg83
g821
sg76
(lp837
g69
(g70
g71
NtRp838
(dp839
g74
(dp840
g82
I4
ssg83
g834
sg76
(lp841
S'Rocket 1.2.4'
p842
asbasbasbag69
(g85
g71
NtRp843
(dp844
g74
(dp845
sg83
g271
sg76
(lp846
g69
(g90
g71
NtRp847
(dp848
g74
(dp849
g94
g95
ssg83
g843
sg76
(lp850
S'web2py_original_uri'
p851
asbag69
(g90
g71
NtRp852
(dp853
g74
(dp854
g101
g102
ssg83
g843
sg76
(lp855
S':'
asbag69
(g90
g71
NtRp856
(dp857
g74
(dp858
sg83
g843
sg76
(lp859
g69
(g70
g71
NtRp860
(dp861
g74
(dp862
g82
I4
ssg83
g856
sg76
(lp863
g626
asbasbasbag69
(g85
g71
NtRp864
(dp865
g74
(dp866
sg83
g271
sg76
(lp867
g69
(g90
g71
NtRp868
(dp869
g74
(dp870
g94
g95
ssg83
g864
sg76
(lp871
S'web2py_path'
p872
asbag69
(g90
g71
NtRp873
(dp874
g74
(dp875
g101
g102
ssg83
g864
sg76
(lp876
S':'
asbag69
(g90
g71
NtRp877
(dp878
g74
(dp879
sg83
g864
sg76
(lp880
g69
(g70
g71
NtRp881
(dp882
g74
(dp883
g82
I4
ssg83
g877
sg76
(lp884
g318
asbasbasbag69
(g85
g71
NtRp885
(dp886
g74
(dp887
sg83
g271
sg76
(lp888
g69
(g90
g71
NtRp889
(dp890
g74
(dp891
g94
g95
ssg83
g885
sg76
(lp892
S'web2py_version'
p893
asbag69
(g90
g71
NtRp894
(dp895
g74
(dp896
g101
g102
ssg83
g885
sg76
(lp897
S':'
asbag69
(g90
g71
NtRp898
(dp899
g74
(dp900
sg83
g885
sg76
(lp901
g69
(g70
g71
NtRp902
(dp903
g74
(dp904
g82
I4
ssg83
g898
sg76
(lp905
g69
(g78
g71
NtRp906
(dp907
g74
(dp908
g82
I3
ssg83
Nsg76
(lp909
g69
(g85
g71
NtRp910
(dp911
g74
(dp912
sg83
g906
sg76
(lp913
g69
(g90
g71
NtRp914
(dp915
g74
(dp916
sg83
g910
sg76
(lp917
g69
(g70
g71
NtRp918
(dp919
g74
(dp920
g82
I3
ssg83
g914
sg76
(lp921
S'1'
asbasbasbag69
(g85
g71
NtRp922
(dp923
g74
(dp924
sg83
g906
sg76
(lp925
g69
(g90
g71
NtRp926
(dp927
g74
(dp928
sg83
g922
sg76
(lp929
g69
(g70
g71
NtRp930
(dp931
g74
(dp932
g82
I3
ssg83
g926
sg76
(lp933
S'99'
p934
asbasbasbag69
(g85
g71
NtRp935
(dp936
g74
(dp937
sg83
g906
sg76
(lp938
g69
(g90
g71
NtRp939
(dp940
g74
(dp941
sg83
g935
sg76
(lp942
g69
(g70
g71
NtRp943
(dp944
g74
(dp945
g82
I3
ssg83
g939
sg76
(lp946
S'7'
asbasbasbag69
(g85
g71
NtRp947
(dp948
g74
(dp949
sg83
g906
sg76
(lp950
g69
(g90
g71
NtRp951
(dp952
g74
(dp953
sg83
g947
sg76
(lp954
g69
(g70
g71
NtRp955
(dp956
g74
(dp957
g82
I3
ssg83
g951
sg76
(lp958
S'datetime.datetime(2012, 3, 4, 22, 12, 8)'
p959
asbasbasbag69
(g85
g71
NtRp960
(dp961
g74
(dp962
sg83
g906
sg76
(lp963
g69
(g90
g71
NtRp964
(dp965
g74
(dp966
sg83
g960
sg76
(lp967
g69
(g70
g71
NtRp968
(dp969
g74
(dp970
g82
I3
ssg83
g964
sg76
(lp971
S'stable'
p972
asbasbasbasbasbasbasbag69
(g85
g71
NtRp973
(dp974
g74
(dp975
sg83
g271
sg76
(lp976
g69
(g90
g71
NtRp977
(dp978
g74
(dp979
g94
g95
ssg83
g973
sg76
(lp980
S'wsgi_errors'
p981
asbag69
(g90
g71
NtRp982
(dp983
g74
(dp984
g101
g102
ssg83
g973
sg76
(lp985
S':'
asbag69
(g90
g71
NtRp986
(dp987
g74
(dp988
sg83
g973
sg76
(lp989
g69
(g70
g71
NtRp990
(dp991
g74
(dp992
g82
I4
ssg83
g986
sg76
(lp993
S"<open file '<stderr>', mode 'w' at 0x012B50D0>"
p994
asbasbasbag69
(g85
g71
NtRp995
(dp996
g74
(dp997
sg83
g271
sg76
(lp998
g69
(g90
g71
NtRp999
(dp1000
g74
(dp1001
g94
g95
ssg83
g995
sg76
(lp1002
S'wsgi_file_wrapper'
p1003
asbag69
(g90
g71
NtRp1004
(dp1005
g74
(dp1006
g101
g102
ssg83
g995
sg76
(lp1007
S':'
asbag69
(g90
g71
NtRp1008
(dp1009
g74
(dp1010
sg83
g995
sg76
(lp1011
g69
(g70
g71
NtRp1012
(dp1013
g74
(dp1014
g82
I4
ssg83
g1008
sg76
(lp1015
S'<class wsgiref.util.FileWrapper at 0x02946E30>'
p1016
asbasbasbag69
(g85
g71
NtRp1017
(dp1018
g74
(dp1019
sg83
g271
sg76
(lp1020
g69
(g90
g71
NtRp1021
(dp1022
g74
(dp1023
g94
g95
ssg83
g1017
sg76
(lp1024
S'wsgi_input'
p1025
asbag69
(g90
g71
NtRp1026
(dp1027
g74
(dp1028
g101
g102
ssg83
g1017
sg76
(lp1029
S':'
asbag69
(g90
g71
NtRp1030
(dp1031
g74
(dp1032
sg83
g1017
sg76
(lp1033
g69
(g70
g71
NtRp1034
(dp1035
g74
(dp1036
g82
I4
ssg83
g1030
sg76
(lp1037
S'<socket._fileobject object at 0x02A01770>'
p1038
asbasbasbag69
(g85
g71
NtRp1039
(dp1040
g74
(dp1041
sg83
g271
sg76
(lp1042
g69
(g90
g71
NtRp1043
(dp1044
g74
(dp1045
g94
g95
ssg83
g1039
sg76
(lp1046
S'wsgi_multiprocess'
p1047
asbag69
(g90
g71
NtRp1048
(dp1049
g74
(dp1050
g101
g102
ssg83
g1039
sg76
(lp1051
S':'
asbag69
(g90
g71
NtRp1052
(dp1053
g74
(dp1054
sg83
g1039
sg76
(lp1055
g69
(g70
g71
NtRp1056
(dp1057
g74
(dp1058
g82
I4
ssg83
g1052
sg76
(lp1059
g112
asbasbasbag69
(g85
g71
NtRp1060
(dp1061
g74
(dp1062
sg83
g271
sg76
(lp1063
g69
(g90
g71
NtRp1064
(dp1065
g74
(dp1066
g94
g95
ssg83
g1060
sg76
(lp1067
S'wsgi_multithread'
p1068
asbag69
(g90
g71
NtRp1069
(dp1070
g74
(dp1071
g101
g102
ssg83
g1060
sg76
(lp1072
S':'
asbag69
(g90
g71
NtRp1073
(dp1074
g74
(dp1075
sg83
g1060
sg76
(lp1076
g69
(g70
g71
NtRp1077
(dp1078
g74
(dp1079
g82
I4
ssg83
g1073
sg76
(lp1080
S'True'
p1081
asbasbasbag69
(g85
g71
NtRp1082
(dp1083
g74
(dp1084
sg83
g271
sg76
(lp1085
g69
(g90
g71
NtRp1086
(dp1087
g74
(dp1088
g94
g95
ssg83
g1082
sg76
(lp1089
S'wsgi_run_once'
p1090
asbag69
(g90
g71
NtRp1091
(dp1092
g74
(dp1093
g101
g102
ssg83
g1082
sg76
(lp1094
S':'
asbag69
(g90
g71
NtRp1095
(dp1096
g74
(dp1097
sg83
g1082
sg76
(lp1098
g69
(g70
g71
NtRp1099
(dp1100
g74
(dp1101
g82
I4
ssg83
g1095
sg76
(lp1102
g112
asbasbasbag69
(g85
g71
NtRp1103
(dp1104
g74
(dp1105
sg83
g271
sg76
(lp1106
g69
(g90
g71
NtRp1107
(dp1108
g74
(dp1109
g94
g95
ssg83
g1103
sg76
(lp1110
S'wsgi_url_scheme'
p1111
asbag69
(g90
g71
NtRp1112
(dp1113
g74
(dp1114
g101
g102
ssg83
g1103
sg76
(lp1115
S':'
asbag69
(g90
g71
NtRp1116
(dp1117
g74
(dp1118
sg83
g1103
sg76
(lp1119
g69
(g70
g71
NtRp1120
(dp1121
g74
(dp1122
g82
I4
ssg83
g1116
sg76
(lp1123
S'http'
p1124
asbasbasbag69
(g85
g71
NtRp1125
(dp1126
g74
(dp1127
sg83
g271
sg76
(lp1128
g69
(g90
g71
NtRp1129
(dp1130
g74
(dp1131
g94
g95
ssg83
g1125
sg76
(lp1132
S'wsgi_version'
p1133
asbag69
(g90
g71
NtRp1134
(dp1135
g74
(dp1136
g101
g102
ssg83
g1125
sg76
(lp1137
S':'
asbag69
(g90
g71
NtRp1138
(dp1139
g74
(dp1140
sg83
g1125
sg76
(lp1141
g69
(g70
g71
NtRp1142
(dp1143
g74
(dp1144
g82
I4
ssg83
g1138
sg76
(lp1145
g69
(g78
g71
NtRp1146
(dp1147
g74
(dp1148
g82
I3
ssg83
Nsg76
(lp1149
g69
(g85
g71
NtRp1150
(dp1151
g74
(dp1152
sg83
g1146
sg76
(lp1153
g69
(g90
g71
NtRp1154
(dp1155
g74
(dp1156
sg83
g1150
sg76
(lp1157
g69
(g70
g71
NtRp1158
(dp1159
g74
(dp1160
g82
I3
ssg83
g1154
sg76
(lp1161
S'1'
asbasbasbag69
(g85
g71
NtRp1162
(dp1163
g74
(dp1164
sg83
g1146
sg76
(lp1165
g69
(g90
g71
NtRp1166
(dp1167
g74
(dp1168
sg83
g1162
sg76
(lp1169
g69
(g70
g71
NtRp1170
(dp1171
g74
(dp1172
g82
I3
ssg83
g1166
sg76
(lp1173
S'0'
asbasbasbasbasbasbasbasbasbasbasbag69
(g85
g71
NtRp1174
(dp1175
g74
(dp1176
sg83
g79
sg76
(lp1177
g69
(g90
g71
NtRp1178
(dp1179
g74
(dp1180
g94
g95
ssg83
g1174
sg76
(lp1181
S'extension'
p1182
asbag69
(g90
g71
NtRp1183
(dp1184
g74
(dp1185
g101
g102
ssg83
g1174
sg76
(lp1186
S':'
asbag69
(g90
g71
NtRp1187
(dp1188
g74
(dp1189
sg83
g1174
sg76
(lp1190
g69
(g70
g71
NtRp1191
(dp1192
g74
(dp1193
g82
I5
ssg83
g1187
sg76
(lp1194
S'html'
p1195
asbasbasbag69
(g85
g71
NtRp1196
(dp1197
g74
(dp1198
sg83
g79
sg76
(lp1199
g69
(g90
g71
NtRp1200
(dp1201
g74
(dp1202
g94
g95
ssg83
g1196
sg76
(lp1203
S'folder'
p1204
asbag69
(g90
g71
NtRp1205
(dp1206
g74
(dp1207
g101
g102
ssg83
g1196
sg76
(lp1208
S':'
asbag69
(g90
g71
NtRp1209
(dp1210
g74
(dp1211
sg83
g1196
sg76
(lp1212
g69
(g70
g71
NtRp1213
(dp1214
g74
(dp1215
g82
I5
ssg83
g1209
sg76
(lp1216
S'c:\\Users\\rochacbruno\\aula7_mar12\\web2py\\applications\\loja\\'
p1217
asbasbasbag69
(g85
g71
NtRp1218
(dp1219
g74
(dp1220
sg83
g79
sg76
(lp1221
g69
(g90
g71
NtRp1222
(dp1223
g74
(dp1224
g94
g95
ssg83
g1218
sg76
(lp1225
S'function'
p1226
asbag69
(g90
g71
NtRp1227
(dp1228
g74
(dp1229
g101
g102
ssg83
g1218
sg76
(lp1230
S':'
asbag69
(g90
g71
NtRp1231
(dp1232
g74
(dp1233
sg83
g1218
sg76
(lp1234
g69
(g70
g71
NtRp1235
(dp1236
g74
(dp1237
g82
I5
ssg83
g1231
sg76
(lp1238
S'index'
p1239
asbasbasbag69
(g85
g71
NtRp1240
(dp1241
g74
(dp1242
sg83
g79
sg76
(lp1243
g69
(g90
g71
NtRp1244
(dp1245
g74
(dp1246
g94
g95
ssg83
g1240
sg76
(lp1247
S'get_vars'
p1248
asbag69
(g90
g71
NtRp1249
(dp1250
g74
(dp1251
g101
g102
ssg83
g1240
sg76
(lp1252
S':'
asbag69
(g90
g71
NtRp1253
(dp1254
g74
(dp1255
sg83
g1240
sg76
(lp1256
g69
(g70
g71
NtRp1257
(dp1258
g74
(dp1259
g82
I5
ssg83
g1253
sg76
(lp1260
g69
(g78
g71
NtRp1261
(dp1262
g74
(dp1263
g82
I4
ssg83
Nsg76
(lp1264
sbasbasbasbag69
(g85
g71
NtRp1265
(dp1266
g74
(dp1267
sg83
g79
sg76
(lp1268
g69
(g90
g71
NtRp1269
(dp1270
g74
(dp1271
g94
g95
ssg83
g1265
sg76
(lp1272
S'global_settings'
p1273
asbag69
(g90
g71
NtRp1274
(dp1275
g74
(dp1276
g101
g102
ssg83
g1265
sg76
(lp1277
S':'
asbag69
(g90
g71
NtRp1278
(dp1279
g74
(dp1280
sg83
g1265
sg76
(lp1281
g69
(g70
g71
NtRp1282
(dp1283
g74
(dp1284
g82
I5
ssg83
g1278
sg76
(lp1285
g69
(g78
g71
NtRp1286
(dp1287
g74
(dp1288
g82
I4
ssg83
Nsg76
(lp1289
g69
(g85
g71
NtRp1290
(dp1291
g74
(dp1292
sg83
g1286
sg76
(lp1293
g69
(g90
g71
NtRp1294
(dp1295
g74
(dp1296
g94
g95
ssg83
g1290
sg76
(lp1297
g283
asbag69
(g90
g71
NtRp1298
(dp1299
g74
(dp1300
g101
g102
ssg83
g1290
sg76
(lp1301
S':'
asbag69
(g90
g71
NtRp1302
(dp1303
g74
(dp1304
sg83
g1290
sg76
(lp1305
g69
(g70
g71
NtRp1306
(dp1307
g74
(dp1308
g82
I4
ssg83
g1302
sg76
(lp1309
S"set(['c:\\\\Users\\\\rochacbruno\\\\aula7_mar12\\\\web2py\\\\applications\\\\loja\\\\'])"
p1310
asbasbasbag69
(g85
g71
NtRp1311
(dp1312
g74
(dp1313
sg83
g1286
sg76
(lp1314
g69
(g90
g71
NtRp1315
(dp1316
g74
(dp1317
g94
g95
ssg83
g1311
sg76
(lp1318
g305
asbag69
(g90
g71
NtRp1319
(dp1320
g74
(dp1321
g101
g102
ssg83
g1311
sg76
(lp1322
S':'
asbag69
(g90
g71
NtRp1323
(dp1324
g74
(dp1325
sg83
g1311
sg76
(lp1326
g69
(g70
g71
NtRp1327
(dp1328
g74
(dp1329
g82
I4
ssg83
g1323
sg76
(lp1330
g318
asbasbasbag69
(g85
g71
NtRp1331
(dp1332
g74
(dp1333
sg83
g1286
sg76
(lp1334
g69
(g90
g71
NtRp1335
(dp1336
g74
(dp1337
g94
g95
ssg83
g1331
sg76
(lp1338
g327
asbag69
(g90
g71
NtRp1339
(dp1340
g74
(dp1341
g101
g102
ssg83
g1331
sg76
(lp1342
S':'
asbag69
(g90
g71
NtRp1343
(dp1344
g74
(dp1345
sg83
g1331
sg76
(lp1346
g69
(g70
g71
NtRp1347
(dp1348
g74
(dp1349
g82
I4
ssg83
g1343
sg76
(lp1350
g69
(g78
g71
NtRp1351
(dp1352
g74
(dp1353
g82
I3
ssg83
Nsg76
(lp1354
sbasbasbasbag69
(g85
g71
NtRp1355
(dp1356
g74
(dp1357
sg83
g1286
sg76
(lp1358
g69
(g90
g71
NtRp1359
(dp1360
g74
(dp1361
g94
g95
ssg83
g1355
sg76
(lp1362
g352
asbag69
(g90
g71
NtRp1363
(dp1364
g74
(dp1365
g101
g102
ssg83
g1355
sg76
(lp1366
S':'
asbag69
(g90
g71
NtRp1367
(dp1368
g74
(dp1369
sg83
g1355
sg76
(lp1370
g69
(g70
g71
NtRp1371
(dp1372
g74
(dp1373
g82
I4
ssg83
g1367
sg76
(lp1374
S"<Values at 0x2a037b0: {'verbose': False, 'ip': '127.0.0.1', 'shutdown_timeout': 5, 'taskbar': False, 'nocron': True, 'pid_filename': 'httpserver.pid', 'maxthreads': None, 'softcron': False, 'server_name': 'rochacbruno-HP', 'bpython': False, 'nogui': False, 'port': 8000, 'extcron': False, 'debuglevel': 30, 'test': None, 'folder': 'c:\\\\Users\\\\rochacbruno\\\\aula7_mar12\\\\web2py', 'config': '', 'import_models': False, 'winservice': '', 'shell': None, 'run': '', 'log_filename': 'httpserver.log', 'args': [''], 'socket_timeout': 5, 'ssl_ca_certificate': None, 'scheduler': None, 'profiler_filename': None, 'ssl_private_key': '', 'password': '1234', 'request_queue_size': 5, 'ssl_certificate': '', 'cronjob': False, 'numthreads': None, 'quiet': False, 'interfaces': None, 'minthreads': None, 'timeout': 10, 'plain': False, 'nobanner': False}>"
p1375
asbasbasbag69
(g85
g71
NtRp1376
(dp1377
g74
(dp1378
sg83
g1286
sg76
(lp1379
g69
(g90
g71
NtRp1380
(dp1381
g74
(dp1382
g94
g95
ssg83
g1376
sg76
(lp1383
g374
asbag69
(g90
g71
NtRp1384
(dp1385
g74
(dp1386
g101
g102
ssg83
g1376
sg76
(lp1387
S':'
asbag69
(g90
g71
NtRp1388
(dp1389
g74
(dp1390
sg83
g1376
sg76
(lp1391
g69
(g70
g71
NtRp1392
(dp1393
g74
(dp1394
g82
I4
ssg83
g1388
sg76
(lp1395
S'set([])'
p1396
asbasbasbag69
(g85
g71
NtRp1397
(dp1398
g74
(dp1399
sg83
g1286
sg76
(lp1400
g69
(g90
g71
NtRp1401
(dp1402
g74
(dp1403
g94
g95
ssg83
g1397
sg76
(lp1404
g396
asbag69
(g90
g71
NtRp1405
(dp1406
g74
(dp1407
g101
g102
ssg83
g1397
sg76
(lp1408
S':'
asbag69
(g90
g71
NtRp1409
(dp1410
g74
(dp1411
sg83
g1397
sg76
(lp1412
g69
(g70
g71
NtRp1413
(dp1414
g74
(dp1415
g82
I4
ssg83
g1409
sg76
(lp1416
g112
asbasbasbag69
(g85
g71
NtRp1417
(dp1418
g74
(dp1419
sg83
g1286
sg76
(lp1420
g69
(g90
g71
NtRp1421
(dp1422
g74
(dp1423
g94
g95
ssg83
g1417
sg76
(lp1424
g417
asbag69
(g90
g71
NtRp1425
(dp1426
g74
(dp1427
g101
g102
ssg83
g1417
sg76
(lp1428
S':'
asbag69
(g90
g71
NtRp1429
(dp1430
g74
(dp1431
sg83
g1417
sg76
(lp1432
g69
(g70
g71
NtRp1433
(dp1434
g74
(dp1435
g82
I4
ssg83
g1429
sg76
(lp1436
g430
asbasbasbag69
(g85
g71
NtRp1437
(dp1438
g74
(dp1439
sg83
g1286
sg76
(lp1440
g69
(g90
g71
NtRp1441
(dp1442
g74
(dp1443
g94
g95
ssg83
g1437
sg76
(lp1444
g571
asbag69
(g90
g71
NtRp1445
(dp1446
g74
(dp1447
g101
g102
ssg83
g1437
sg76
(lp1448
S':'
asbag69
(g90
g71
NtRp1449
(dp1450
g74
(dp1451
sg83
g1437
sg76
(lp1452
g69
(g70
g71
NtRp1453
(dp1454
g74
(dp1455
g82
I4
ssg83
g1449
sg76
(lp1456
g112
asbasbasbag69
(g85
g71
NtRp1457
(dp1458
g74
(dp1459
sg83
g1286
sg76
(lp1460
g69
(g90
g71
NtRp1461
(dp1462
g74
(dp1463
g94
g95
ssg83
g1457
sg76
(lp1464
g592
asbag69
(g90
g71
NtRp1465
(dp1466
g74
(dp1467
g101
g102
ssg83
g1457
sg76
(lp1468
S':'
asbag69
(g90
g71
NtRp1469
(dp1470
g74
(dp1471
sg83
g1457
sg76
(lp1472
g69
(g70
g71
NtRp1473
(dp1474
g74
(dp1475
g82
I4
ssg83
g1469
sg76
(lp1476
g112
asbasbasbag69
(g85
g71
NtRp1477
(dp1478
g74
(dp1479
sg83
g1286
sg76
(lp1480
g69
(g90
g71
NtRp1481
(dp1482
g74
(dp1483
g94
g95
ssg83
g1477
sg76
(lp1484
g893
asbag69
(g90
g71
NtRp1485
(dp1486
g74
(dp1487
g101
g102
ssg83
g1477
sg76
(lp1488
S':'
asbag69
(g90
g71
NtRp1489
(dp1490
g74
(dp1491
sg83
g1477
sg76
(lp1492
g69
(g70
g71
NtRp1493
(dp1494
g74
(dp1495
g82
I4
ssg83
g1489
sg76
(lp1496
g69
(g78
g71
NtRp1497
(dp1498
g74
(dp1499
g82
I3
ssg83
Nsg76
(lp1500
g69
(g85
g71
NtRp1501
(dp1502
g74
(dp1503
sg83
g1497
sg76
(lp1504
g69
(g90
g71
NtRp1505
(dp1506
g74
(dp1507
sg83
g1501
sg76
(lp1508
g69
(g70
g71
NtRp1509
(dp1510
g74
(dp1511
g82
I3
ssg83
g1505
sg76
(lp1512
S'1'
asbasbasbag69
(g85
g71
NtRp1513
(dp1514
g74
(dp1515
sg83
g1497
sg76
(lp1516
g69
(g90
g71
NtRp1517
(dp1518
g74
(dp1519
sg83
g1513
sg76
(lp1520
g69
(g70
g71
NtRp1521
(dp1522
g74
(dp1523
g82
I3
ssg83
g1517
sg76
(lp1524
S'99'
p1525
asbasbasbag69
(g85
g71
NtRp1526
(dp1527
g74
(dp1528
sg83
g1497
sg76
(lp1529
g69
(g90
g71
NtRp1530
(dp1531
g74
(dp1532
sg83
g1526
sg76
(lp1533
g69
(g70
g71
NtRp1534
(dp1535
g74
(dp1536
g82
I3
ssg83
g1530
sg76
(lp1537
S'7'
asbasbasbag69
(g85
g71
NtRp1538
(dp1539
g74
(dp1540
sg83
g1497
sg76
(lp1541
g69
(g90
g71
NtRp1542
(dp1543
g74
(dp1544
sg83
g1538
sg76
(lp1545
g69
(g70
g71
NtRp1546
(dp1547
g74
(dp1548
g82
I3
ssg83
g1542
sg76
(lp1549
S'datetime.datetime(2012, 3, 4, 22, 12, 8)'
p1550
asbasbasbag69
(g85
g71
NtRp1551
(dp1552
g74
(dp1553
sg83
g1497
sg76
(lp1554
g69
(g90
g71
NtRp1555
(dp1556
g74
(dp1557
sg83
g1551
sg76
(lp1558
g69
(g70
g71
NtRp1559
(dp1560
g74
(dp1561
g82
I3
ssg83
g1555
sg76
(lp1562
g972
asbasbasbasbasbasbasbasbasbasbasbag69
(g85
g71
NtRp1563
(dp1564
g74
(dp1565
sg83
g79
sg76
(lp1566
g69
(g90
g71
NtRp1567
(dp1568
g74
(dp1569
g94
g95
ssg83
g1563
sg76
(lp1570
S'is_https'
p1571
asbag69
(g90
g71
NtRp1572
(dp1573
g74
(dp1574
g101
g102
ssg83
g1563
sg76
(lp1575
S':'
asbag69
(g90
g71
NtRp1576
(dp1577
g74
(dp1578
sg83
g1563
sg76
(lp1579
g69
(g70
g71
NtRp1580
(dp1581
g74
(dp1582
g82
I5
ssg83
g1576
sg76
(lp1583
g112
asbasbasbag69
(g85
g71
NtRp1584
(dp1585
g74
(dp1586
sg83
g79
sg76
(lp1587
g69
(g90
g71
NtRp1588
(dp1589
g74
(dp1590
g94
g95
ssg83
g1584
sg76
(lp1591
S'is_local'
p1592
asbag69
(g90
g71
NtRp1593
(dp1594
g74
(dp1595
g101
g102
ssg83
g1584
sg76
(lp1596
S':'
asbag69
(g90
g71
NtRp1597
(dp1598
g74
(dp1599
sg83
g1584
sg76
(lp1600
g69
(g70
g71
NtRp1601
(dp1602
g74
(dp1603
g82
I5
ssg83
g1597
sg76
(lp1604
g1081
asbasbasbag69
(g85
g71
NtRp1605
(dp1606
g74
(dp1607
sg83
g79
sg76
(lp1608
g69
(g90
g71
NtRp1609
(dp1610
g74
(dp1611
g94
g95
ssg83
g1605
sg76
(lp1612
S'is_restful'
p1613
asbag69
(g90
g71
NtRp1614
(dp1615
g74
(dp1616
g101
g102
ssg83
g1605
sg76
(lp1617
S':'
asbag69
(g90
g71
NtRp1618
(dp1619
g74
(dp1620
sg83
g1605
sg76
(lp1621
g69
(g70
g71
NtRp1622
(dp1623
g74
(dp1624
g82
I5
ssg83
g1618
sg76
(lp1625
g112
asbasbasbag69
(g85
g71
NtRp1626
(dp1627
g74
(dp1628
sg83
g79
sg76
(lp1629
g69
(g90
g71
NtRp1630
(dp1631
g74
(dp1632
g94
g95
ssg83
g1626
sg76
(lp1633
S'now'
p1634
asbag69
(g90
g71
NtRp1635
(dp1636
g74
(dp1637
g101
g102
ssg83
g1626
sg76
(lp1638
S':'
asbag69
(g90
g71
NtRp1639
(dp1640
g74
(dp1641
sg83
g1626
sg76
(lp1642
g69
(g70
g71
NtRp1643
(dp1644
g74
(dp1645
g82
I5
ssg83
g1639
sg76
(lp1646
S'datetime.datetime(2012, 4, 19, 20, 9, 21, 695000)'
p1647
asbasbasbag69
(g85
g71
NtRp1648
(dp1649
g74
(dp1650
sg83
g79
sg76
(lp1651
g69
(g90
g71
NtRp1652
(dp1653
g74
(dp1654
g94
g95
ssg83
g1648
sg76
(lp1655
S'post_vars'
p1656
asbag69
(g90
g71
NtRp1657
(dp1658
g74
(dp1659
g101
g102
ssg83
g1648
sg76
(lp1660
S':'
asbag69
(g90
g71
NtRp1661
(dp1662
g74
(dp1663
sg83
g1648
sg76
(lp1664
g69
(g70
g71
NtRp1665
(dp1666
g74
(dp1667
g82
I5
ssg83
g1661
sg76
(lp1668
g69
(g78
g71
NtRp1669
(dp1670
g74
(dp1671
g82
I4
ssg83
Nsg76
(lp1672
sbasbasbasbag69
(g85
g71
NtRp1673
(dp1674
g74
(dp1675
sg83
g79
sg76
(lp1676
g69
(g90
g71
NtRp1677
(dp1678
g74
(dp1679
g94
g95
ssg83
g1673
sg76
(lp1680
S'url'
p1681
asbag69
(g90
g71
NtRp1682
(dp1683
g74
(dp1684
g101
g102
ssg83
g1673
sg76
(lp1685
S':'
asbag69
(g90
g71
NtRp1686
(dp1687
g74
(dp1688
sg83
g1673
sg76
(lp1689
g69
(g70
g71
NtRp1690
(dp1691
g74
(dp1692
g82
I5
ssg83
g1686
sg76
(lp1693
S'/loja/home/index'
p1694
asbasbasbag69
(g85
g71
NtRp1695
(dp1696
g74
(dp1697
sg83
g79
sg76
(lp1698
g69
(g90
g71
NtRp1699
(dp1700
g74
(dp1701
g94
g95
ssg83
g1695
sg76
(lp1702
S'utcnow'
p1703
asbag69
(g90
g71
NtRp1704
(dp1705
g74
(dp1706
g101
g102
ssg83
g1695
sg76
(lp1707
S':'
asbag69
(g90
g71
NtRp1708
(dp1709
g74
(dp1710
sg83
g1695
sg76
(lp1711
g69
(g70
g71
NtRp1712
(dp1713
g74
(dp1714
g82
I5
ssg83
g1708
sg76
(lp1715
S'datetime.datetime(2012, 4, 19, 23, 9, 21, 695000)'
p1716
asbasbasbag69
(g85
g71
NtRp1717
(dp1718
g74
(dp1719
sg83
g79
sg76
(lp1720
g69
(g90
g71
NtRp1721
(dp1722
g74
(dp1723
g94
g95
ssg83
g1717
sg76
(lp1724
S'uuid'
p1725
asbag69
(g90
g71
NtRp1726
(dp1727
g74
(dp1728
g101
g102
ssg83
g1717
sg76
(lp1729
S':'
asbag69
(g90
g71
NtRp1730
(dp1731
g74
(dp1732
sg83
g1717
sg76
(lp1733
g69
(g70
g71
NtRp1734
(dp1735
g74
(dp1736
g82
I5
ssg83
g1730
sg76
(lp1737
S'loja/127.0.0.1.2012-04-19.20-09-21.deb1f0ba-1d92-49e9-b08e-50bb3def96be'
p1738
asbasbasbag69
(g85
g71
NtRp1739
(dp1740
g74
(dp1741
sg83
g79
sg76
(lp1742
g69
(g90
g71
NtRp1743
(dp1744
g74
(dp1745
g94
g95
ssg83
g1739
sg76
(lp1746
S'vars'
p1747
asbag69
(g90
g71
NtRp1748
(dp1749
g74
(dp1750
g101
g102
ssg83
g1739
sg76
(lp1751
S':'
asbag69
(g90
g71
NtRp1752
(dp1753
g74
(dp1754
sg83
g1739
sg76
(lp1755
g69
(g70
g71
NtRp1756
(dp1757
g74
(dp1758
g82
I5
ssg83
g1752
sg76
(lp1759
g69
(g78
g71
NtRp1760
(dp1761
g74
(dp1762
g82
I4
ssg83
Nsg76
(lp1763
sbasbasbasbag69
(g85
g71
NtRp1764
(dp1765
g74
(dp1766
sg83
g79
sg76
(lp1767
g69
(g90
g71
NtRp1768
(dp1769
g74
(dp1770
g94
g95
ssg83
g1764
sg76
(lp1771
S'wsgi'
p1772
asbag69
(g90
g71
NtRp1773
(dp1774
g74
(dp1775
g101
g102
ssg83
g1764
sg76
(lp1776
S':'
asbag69
(g90
g71
NtRp1777
(dp1778
g74
(dp1779
sg83
g1764
sg76
(lp1780
g69
(g70
g71
NtRp1781
(dp1782
g74
(dp1783
g82
I5
ssg83
g1777
sg76
(lp1784
g69
(g78
g71
NtRp1785
(dp1786
g74
(dp1787
g82
I4
ssg83
Nsg76
(lp1788
g69
(g85
g71
NtRp1789
(dp1790
g74
(dp1791
sg83
g1785
sg76
(lp1792
g69
(g90
g71
NtRp1793
(dp1794
g74
(dp1795
g94
g95
ssg83
g1789
sg76
(lp1796
S'environ'
p1797
asbag69
(g90
g71
NtRp1798
(dp1799
g74
(dp1800
g101
g102
ssg83
g1789
sg76
(lp1801
S':'
asbag69
(g90
g71
NtRp1802
(dp1803
g74
(dp1804
sg83
g1789
sg76
(lp1805
g69
(g70
g71
NtRp1806
(dp1807
g74
(dp1808
g82
I4
ssg83
g1802
sg76
(lp1809
g69
(g78
g71
NtRp1810
(dp1811
g74
(dp1812
g82
I3
ssg83
Nsg76
(lp1813
g69
(g85
g71
NtRp1814
(dp1815
g74
(dp1816
sg83
g1810
sg76
(lp1817
g69
(g90
g71
NtRp1818
(dp1819
g74
(dp1820
g94
g95
ssg83
g1814
sg76
(lp1821
S'HTTP_ACCEPT'
p1822
asbag69
(g90
g71
NtRp1823
(dp1824
g74
(dp1825
g101
g102
ssg83
g1814
sg76
(lp1826
S':'
asbag69
(g90
g71
NtRp1827
(dp1828
g74
(dp1829
sg83
g1814
sg76
(lp1830
g69
(g70
g71
NtRp1831
(dp1832
g74
(dp1833
g82
I3
ssg83
g1827
sg76
(lp1834
g452
asbasbasbag69
(g85
g71
NtRp1835
(dp1836
g74
(dp1837
sg83
g1810
sg76
(lp1838
g69
(g90
g71
NtRp1839
(dp1840
g74
(dp1841
g94
g95
ssg83
g1835
sg76
(lp1842
S'HTTP_ACCEPT_ENCODING'
p1843
asbag69
(g90
g71
NtRp1844
(dp1845
g74
(dp1846
g101
g102
ssg83
g1835
sg76
(lp1847
S':'
asbag69
(g90
g71
NtRp1848
(dp1849
g74
(dp1850
sg83
g1835
sg76
(lp1851
g69
(g70
g71
NtRp1852
(dp1853
g74
(dp1854
g82
I3
ssg83
g1848
sg76
(lp1855
g474
asbasbasbag69
(g85
g71
NtRp1856
(dp1857
g74
(dp1858
sg83
g1810
sg76
(lp1859
g69
(g90
g71
NtRp1860
(dp1861
g74
(dp1862
g94
g95
ssg83
g1856
sg76
(lp1863
S'HTTP_ACCEPT_LANGUAGE'
p1864
asbag69
(g90
g71
NtRp1865
(dp1866
g74
(dp1867
g101
g102
ssg83
g1856
sg76
(lp1868
S':'
asbag69
(g90
g71
NtRp1869
(dp1870
g74
(dp1871
sg83
g1856
sg76
(lp1872
g69
(g70
g71
NtRp1873
(dp1874
g74
(dp1875
g82
I3
ssg83
g1869
sg76
(lp1876
g496
asbasbasbag69
(g85
g71
NtRp1877
(dp1878
g74
(dp1879
sg83
g1810
sg76
(lp1880
g69
(g90
g71
NtRp1881
(dp1882
g74
(dp1883
g94
g95
ssg83
g1877
sg76
(lp1884
S'HTTP_CONNECTION'
p1885
asbag69
(g90
g71
NtRp1886
(dp1887
g74
(dp1888
g101
g102
ssg83
g1877
sg76
(lp1889
S':'
asbag69
(g90
g71
NtRp1890
(dp1891
g74
(dp1892
sg83
g1877
sg76
(lp1893
g69
(g70
g71
NtRp1894
(dp1895
g74
(dp1896
g82
I3
ssg83
g1890
sg76
(lp1897
g518
asbasbasbag69
(g85
g71
NtRp1898
(dp1899
g74
(dp1900
sg83
g1810
sg76
(lp1901
g69
(g90
g71
NtRp1902
(dp1903
g74
(dp1904
g94
g95
ssg83
g1898
sg76
(lp1905
S'HTTP_HOST'
p1906
asbag69
(g90
g71
NtRp1907
(dp1908
g74
(dp1909
g101
g102
ssg83
g1898
sg76
(lp1910
S':'
asbag69
(g90
g71
NtRp1911
(dp1912
g74
(dp1913
sg83
g1898
sg76
(lp1914
g69
(g70
g71
NtRp1915
(dp1916
g74
(dp1917
g82
I3
ssg83
g1911
sg76
(lp1918
g540
asbasbasbag69
(g85
g71
NtRp1919
(dp1920
g74
(dp1921
sg83
g1810
sg76
(lp1922
g69
(g90
g71
NtRp1923
(dp1924
g74
(dp1925
g94
g95
ssg83
g1919
sg76
(lp1926
S'HTTP_USER_AGENT'
p1927
asbag69
(g90
g71
NtRp1928
(dp1929
g74
(dp1930
g101
g102
ssg83
g1919
sg76
(lp1931
S':'
asbag69
(g90
g71
NtRp1932
(dp1933
g74
(dp1934
sg83
g1919
sg76
(lp1935
g69
(g70
g71
NtRp1936
(dp1937
g74
(dp1938
g82
I3
ssg83
g1932
sg76
(lp1939
g562
asbasbasbag69
(g85
g71
NtRp1940
(dp1941
g74
(dp1942
sg83
g1810
sg76
(lp1943
g69
(g90
g71
NtRp1944
(dp1945
g74
(dp1946
g94
g95
ssg83
g1940
sg76
(lp1947
S'PATH_INFO'
p1948
asbag69
(g90
g71
NtRp1949
(dp1950
g74
(dp1951
g101
g102
ssg83
g1940
sg76
(lp1952
S':'
asbag69
(g90
g71
NtRp1953
(dp1954
g74
(dp1955
sg83
g1940
sg76
(lp1956
g69
(g70
g71
NtRp1957
(dp1958
g74
(dp1959
g82
I3
ssg83
g1953
sg76
(lp1960
g626
asbasbasbag69
(g85
g71
NtRp1961
(dp1962
g74
(dp1963
sg83
g1810
sg76
(lp1964
g69
(g90
g71
NtRp1965
(dp1966
g74
(dp1967
g94
g95
ssg83
g1961
sg76
(lp1968
S'QUERY_STRING'
p1969
asbag69
(g90
g71
NtRp1970
(dp1971
g74
(dp1972
g101
g102
ssg83
g1961
sg76
(lp1973
S':'
asbag69
(g90
g71
NtRp1974
(dp1975
g74
(dp1976
sg83
g1961
sg76
(lp1977
g69
(g70
g71
NtRp1978
(dp1979
g74
(dp1980
g82
I3
ssg83
g1974
sg76
(lp1981
S''
asbasbasbag69
(g85
g71
NtRp1982
(dp1983
g74
(dp1984
sg83
g1810
sg76
(lp1985
g69
(g90
g71
NtRp1986
(dp1987
g74
(dp1988
g94
g95
ssg83
g1982
sg76
(lp1989
S'REMOTE_ADDR'
p1990
asbag69
(g90
g71
NtRp1991
(dp1992
g74
(dp1993
g101
g102
ssg83
g1982
sg76
(lp1994
S':'
asbag69
(g90
g71
NtRp1995
(dp1996
g74
(dp1997
sg83
g1982
sg76
(lp1998
g69
(g70
g71
NtRp1999
(dp2000
g74
(dp2001
g82
I3
ssg83
g1995
sg76
(lp2002
g202
asbasbasbag69
(g85
g71
NtRp2003
(dp2004
g74
(dp2005
sg83
g1810
sg76
(lp2006
g69
(g90
g71
NtRp2007
(dp2008
g74
(dp2009
g94
g95
ssg83
g2003
sg76
(lp2010
S'REMOTE_PORT'
p2011
asbag69
(g90
g71
NtRp2012
(dp2013
g74
(dp2014
g101
g102
ssg83
g2003
sg76
(lp2015
S':'
asbag69
(g90
g71
NtRp2016
(dp2017
g74
(dp2018
sg83
g2003
sg76
(lp2019
g69
(g70
g71
NtRp2020
(dp2021
g74
(dp2022
g82
I3
ssg83
g2016
sg76
(lp2023
g690
asbasbasbag69
(g85
g71
NtRp2024
(dp2025
g74
(dp2026
sg83
g1810
sg76
(lp2027
g69
(g90
g71
NtRp2028
(dp2029
g74
(dp2030
g94
g95
ssg83
g2024
sg76
(lp2031
S'REQUEST_METHOD'
p2032
asbag69
(g90
g71
NtRp2033
(dp2034
g74
(dp2035
g101
g102
ssg83
g2024
sg76
(lp2036
S':'
asbag69
(g90
g71
NtRp2037
(dp2038
g74
(dp2039
sg83
g2024
sg76
(lp2040
g69
(g70
g71
NtRp2041
(dp2042
g74
(dp2043
g82
I3
ssg83
g2037
sg76
(lp2044
g712
asbasbasbag69
(g85
g71
NtRp2045
(dp2046
g74
(dp2047
sg83
g1810
sg76
(lp2048
g69
(g90
g71
NtRp2049
(dp2050
g74
(dp2051
g94
g95
ssg83
g2045
sg76
(lp2052
S'REQUEST_URI'
p2053
asbag69
(g90
g71
NtRp2054
(dp2055
g74
(dp2056
g101
g102
ssg83
g2045
sg76
(lp2057
S':'
asbag69
(g90
g71
NtRp2058
(dp2059
g74
(dp2060
sg83
g2045
sg76
(lp2061
g69
(g70
g71
NtRp2062
(dp2063
g74
(dp2064
g82
I3
ssg83
g2058
sg76
(lp2065
g626
asbasbasbag69
(g85
g71
NtRp2066
(dp2067
g74
(dp2068
sg83
g1810
sg76
(lp2069
g69
(g90
g71
NtRp2070
(dp2071
g74
(dp2072
g94
g95
ssg83
g2066
sg76
(lp2073
S'SCRIPT_NAME'
p2074
asbag69
(g90
g71
NtRp2075
(dp2076
g74
(dp2077
g101
g102
ssg83
g2066
sg76
(lp2078
S':'
asbag69
(g90
g71
NtRp2079
(dp2080
g74
(dp2081
sg83
g2066
sg76
(lp2082
g69
(g70
g71
NtRp2083
(dp2084
g74
(dp2085
g82
I3
ssg83
g2079
sg76
(lp2086
S''
asbasbasbag69
(g85
g71
NtRp2087
(dp2088
g74
(dp2089
sg83
g1810
sg76
(lp2090
g69
(g90
g71
NtRp2091
(dp2092
g74
(dp2093
g94
g95
ssg83
g2087
sg76
(lp2094
S'SERVER_NAME'
p2095
asbag69
(g90
g71
NtRp2096
(dp2097
g74
(dp2098
g101
g102
ssg83
g2087
sg76
(lp2099
S':'
asbag69
(g90
g71
NtRp2100
(dp2101
g74
(dp2102
sg83
g2087
sg76
(lp2103
g69
(g70
g71
NtRp2104
(dp2105
g74
(dp2106
g82
I3
ssg83
g2100
sg76
(lp2107
g776
asbasbasbag69
(g85
g71
NtRp2108
(dp2109
g74
(dp2110
sg83
g1810
sg76
(lp2111
g69
(g90
g71
NtRp2112
(dp2113
g74
(dp2114
g94
g95
ssg83
g2108
sg76
(lp2115
S'SERVER_PORT'
p2116
asbag69
(g90
g71
NtRp2117
(dp2118
g74
(dp2119
g101
g102
ssg83
g2108
sg76
(lp2120
S':'
asbag69
(g90
g71
NtRp2121
(dp2122
g74
(dp2123
sg83
g2108
sg76
(lp2124
g69
(g70
g71
NtRp2125
(dp2126
g74
(dp2127
g82
I3
ssg83
g2121
sg76
(lp2128
g798
asbasbasbag69
(g85
g71
NtRp2129
(dp2130
g74
(dp2131
sg83
g1810
sg76
(lp2132
g69
(g90
g71
NtRp2133
(dp2134
g74
(dp2135
g94
g95
ssg83
g2129
sg76
(lp2136
S'SERVER_PROTOCOL'
p2137
asbag69
(g90
g71
NtRp2138
(dp2139
g74
(dp2140
g101
g102
ssg83
g2129
sg76
(lp2141
S':'
asbag69
(g90
g71
NtRp2142
(dp2143
g74
(dp2144
sg83
g2129
sg76
(lp2145
g69
(g70
g71
NtRp2146
(dp2147
g74
(dp2148
g82
I3
ssg83
g2142
sg76
(lp2149
g820
asbasbasbag69
(g85
g71
NtRp2150
(dp2151
g74
(dp2152
sg83
g1810
sg76
(lp2153
g69
(g90
g71
NtRp2154
(dp2155
g74
(dp2156
g94
g95
ssg83
g2150
sg76
(lp2157
S'SERVER_SOFTWARE'
p2158
asbag69
(g90
g71
NtRp2159
(dp2160
g74
(dp2161
g101
g102
ssg83
g2150
sg76
(lp2162
S':'
asbag69
(g90
g71
NtRp2163
(dp2164
g74
(dp2165
sg83
g2150
sg76
(lp2166
g69
(g70
g71
NtRp2167
(dp2168
g74
(dp2169
g82
I3
ssg83
g2163
sg76
(lp2170
g842
asbasbasbag69
(g85
g71
NtRp2171
(dp2172
g74
(dp2173
sg83
g1810
sg76
(lp2174
g69
(g90
g71
NtRp2175
(dp2176
g74
(dp2177
g94
g95
ssg83
g2171
sg76
(lp2178
S'WEB2PY_ORIGINAL_URI'
p2179
asbag69
(g90
g71
NtRp2180
(dp2181
g74
(dp2182
g101
g102
ssg83
g2171
sg76
(lp2183
S':'
asbag69
(g90
g71
NtRp2184
(dp2185
g74
(dp2186
sg83
g2171
sg76
(lp2187
g69
(g70
g71
NtRp2188
(dp2189
g74
(dp2190
g82
I3
ssg83
g2184
sg76
(lp2191
g626
asbasbasbag69
(g85
g71
NtRp2192
(dp2193
g74
(dp2194
sg83
g1810
sg76
(lp2195
g69
(g90
g71
NtRp2196
(dp2197
g74
(dp2198
g94
g95
ssg83
g2192
sg76
(lp2199
S'wsgi.errors'
p2200
asbag69
(g90
g71
NtRp2201
(dp2202
g74
(dp2203
g101
g102
ssg83
g2192
sg76
(lp2204
S':'
asbag69
(g90
g71
NtRp2205
(dp2206
g74
(dp2207
sg83
g2192
sg76
(lp2208
g69
(g70
g71
NtRp2209
(dp2210
g74
(dp2211
g82
I3
ssg83
g2205
sg76
(lp2212
S"<open file '<stderr>', mode 'w' at 0x012B50D0>"
p2213
asbasbasbag69
(g85
g71
NtRp2214
(dp2215
g74
(dp2216
sg83
g1810
sg76
(lp2217
g69
(g90
g71
NtRp2218
(dp2219
g74
(dp2220
g94
g95
ssg83
g2214
sg76
(lp2221
S'wsgi.file_wrapper'
p2222
asbag69
(g90
g71
NtRp2223
(dp2224
g74
(dp2225
g101
g102
ssg83
g2214
sg76
(lp2226
S':'
asbag69
(g90
g71
NtRp2227
(dp2228
g74
(dp2229
sg83
g2214
sg76
(lp2230
g69
(g70
g71
NtRp2231
(dp2232
g74
(dp2233
g82
I3
ssg83
g2227
sg76
(lp2234
S'<class wsgiref.util.FileWrapper at 0x02946E30>'
p2235
asbasbasbag69
(g85
g71
NtRp2236
(dp2237
g74
(dp2238
sg83
g1810
sg76
(lp2239
g69
(g90
g71
NtRp2240
(dp2241
g74
(dp2242
g94
g95
ssg83
g2236
sg76
(lp2243
S'wsgi.input'
p2244
asbag69
(g90
g71
NtRp2245
(dp2246
g74
(dp2247
g101
g102
ssg83
g2236
sg76
(lp2248
S':'
asbag69
(g90
g71
NtRp2249
(dp2250
g74
(dp2251
sg83
g2236
sg76
(lp2252
g69
(g70
g71
NtRp2253
(dp2254
g74
(dp2255
g82
I3
ssg83
g2249
sg76
(lp2256
S'<cStringIO.StringO object at 0x02A0B8E0>'
p2257
asbasbasbag69
(g85
g71
NtRp2258
(dp2259
g74
(dp2260
sg83
g1810
sg76
(lp2261
g69
(g90
g71
NtRp2262
(dp2263
g74
(dp2264
g94
g95
ssg83
g2258
sg76
(lp2265
S'wsgi.multiprocess'
p2266
asbag69
(g90
g71
NtRp2267
(dp2268
g74
(dp2269
g101
g102
ssg83
g2258
sg76
(lp2270
S':'
asbag69
(g90
g71
NtRp2271
(dp2272
g74
(dp2273
sg83
g2258
sg76
(lp2274
g69
(g70
g71
NtRp2275
(dp2276
g74
(dp2277
g82
I3
ssg83
g2271
sg76
(lp2278
g112
asbasbasbag69
(g85
g71
NtRp2279
(dp2280
g74
(dp2281
sg83
g1810
sg76
(lp2282
g69
(g90
g71
NtRp2283
(dp2284
g74
(dp2285
g94
g95
ssg83
g2279
sg76
(lp2286
S'wsgi.multithread'
p2287
asbag69
(g90
g71
NtRp2288
(dp2289
g74
(dp2290
g101
g102
ssg83
g2279
sg76
(lp2291
S':'
asbag69
(g90
g71
NtRp2292
(dp2293
g74
(dp2294
sg83
g2279
sg76
(lp2295
g69
(g70
g71
NtRp2296
(dp2297
g74
(dp2298
g82
I3
ssg83
g2292
sg76
(lp2299
g1081
asbasbasbag69
(g85
g71
NtRp2300
(dp2301
g74
(dp2302
sg83
g1810
sg76
(lp2303
g69
(g90
g71
NtRp2304
(dp2305
g74
(dp2306
g94
g95
ssg83
g2300
sg76
(lp2307
S'wsgi.run_once'
p2308
asbag69
(g90
g71
NtRp2309
(dp2310
g74
(dp2311
g101
g102
ssg83
g2300
sg76
(lp2312
S':'
asbag69
(g90
g71
NtRp2313
(dp2314
g74
(dp2315
sg83
g2300
sg76
(lp2316
g69
(g70
g71
NtRp2317
(dp2318
g74
(dp2319
g82
I3
ssg83
g2313
sg76
(lp2320
g112
asbasbasbag69
(g85
g71
NtRp2321
(dp2322
g74
(dp2323
sg83
g1810
sg76
(lp2324
g69
(g90
g71
NtRp2325
(dp2326
g74
(dp2327
g94
g95
ssg83
g2321
sg76
(lp2328
S'wsgi.url_scheme'
p2329
asbag69
(g90
g71
NtRp2330
(dp2331
g74
(dp2332
g101
g102
ssg83
g2321
sg76
(lp2333
S':'
asbag69
(g90
g71
NtRp2334
(dp2335
g74
(dp2336
sg83
g2321
sg76
(lp2337
g69
(g70
g71
NtRp2338
(dp2339
g74
(dp2340
g82
I3
ssg83
g2334
sg76
(lp2341
g1124
asbasbasbag69
(g85
g71
NtRp2342
(dp2343
g74
(dp2344
sg83
g1810
sg76
(lp2345
g69
(g90
g71
NtRp2346
(dp2347
g74
(dp2348
g94
g95
ssg83
g2342
sg76
(lp2349
S'wsgi.version'
p2350
asbag69
(g90
g71
NtRp2351
(dp2352
g74
(dp2353
g101
g102
ssg83
g2342
sg76
(lp2354
S':'
asbag69
(g90
g71
NtRp2355
(dp2356
g74
(dp2357
sg83
g2342
sg76
(lp2358
g69
(g70
g71
NtRp2359
(dp2360
g74
(dp2361
g82
I3
ssg83
g2355
sg76
(lp2362
S'1'
asbasbasbasbasbasbasbasbasbasbasbasbasbsS'frames'
p2363
(lp2364
(dp2365
S'file'
p2366
S'c:\\Users\\rochacbruno\\aula7_mar12\\web2py\\gluon\\restricted.py'
p2367
sS'dump'
p2368
(dp2369
S'code'
p2370
S'\'# coding: utf-8\\n\\n# id criado obrigatoriamente\\n# ...("numero"),\\n        Field("complemento"),\\n    )\\n\\n\''
p2371
sS'layer'
p2372
S"r'c:\\Users\\rochacbruno\\aula7_mar12\\web2py\\applications\\loja\\models\\300_datamodels.py'"
p2373
sS'global compile2'
p2374
S'<function compile2>'
p2375
sS'ccode'
p2376
S'undefined'
p2377
ssS'lnum'
p2378
I204
sS'lines'
p2379
(dp2380
I199
S"    environment['__name__'] = '__restricted__'"
p2381
sI200
S'    try:'
p2382
sI201
S'        if type(code) == types.CodeType:'
p2383
sI202
S'            ccode = code'
p2384
sI203
S'        else:'
p2385
sI204
S'            ccode = compile2(code,layer)'
p2386
sI205
S'        exec ccode in environment'
p2387
sI206
S'    except HTTP:'
p2388
sI207
S'        raise'
p2389
sI208
S'    except RestrictedError:'
p2390
ssS'call'
p2391
S'(code=\'# coding: utf-8\\n\\n# id criado obrigatoriamente\\n# ...("numero"),\\n        Field("complemento"),\\n    )\\n\\n\', environment={\'A\': <class \'gluon.html.A\'>, \'B\': <class \'gluon.html.B\'>, \'BEAUTIFY\': <class \'gluon.html.BEAUTIFY\'>, \'BODY\': <class \'gluon.html.BODY\'>, \'BR\': <class \'gluon.html.BR\'>, \'BUTTON\': <class \'gluon.html.BUTTON\'>, \'CAT\': <class \'gluon.html.CAT\'>, \'CENTER\': <class \'gluon.html.CENTER\'>, \'CLEANUP\': <class \'gluon.validators.CLEANUP\'>, \'CODE\': <class \'gluon.html.CODE\'>, ...}, layer=r\'c:\\Users\\rochacbruno\\aula7_mar12\\web2py\\applications\\loja\\models\\300_datamodels.py\')'
p2392
sS'func'
p2393
S'restricted'
p2394
sa(dp2395
g2366
S'c:\\Users\\rochacbruno\\aula7_mar12\\web2py\\gluon\\restricted.py'
p2396
sg2368
(dp2397
S'builtincompile'
p2398
S'<built-in function compile>'
p2399
sS'code'
p2400
S'\'# coding: utf-8\\n\\n# id criado obrigatoriamente\\n# ...("numero"),\\n        Field("complemento"),\\n    )\\n\\n\''
p2401
sS'code.rstrip'
p2402
S'<built-in method rstrip of str object>'
p2403
sS').replace'
p2404
g2377
sS'layer'
p2405
S"r'c:\\Users\\rochacbruno\\aula7_mar12\\web2py\\applications\\loja\\models\\300_datamodels.py'"
p2406
ssg2378
I189
sg2379
(dp2407
I192
S'    """'
p2408
sI193
S'    runs code in environment and returns the output. if an exception occurs'
p2409
sI184
S''
sI185
S'def compile2(code,layer):'
p2410
sI186
S'    """'
p2411
sI187
S"    The +'\\n' is necessary else compile fails when code ends in a comment."
p2412
sI188
S'    """'
p2413
sI189
S"    return compile(code.rstrip().replace('\\r\\n','\\n')+'\\n', layer, 'exec')"
p2414
sI190
S''
sI191
S"def restricted(code, environment=None, layer='Unknown'):"
p2415
ssg2391
S'(code=\'# coding: utf-8\\n\\n# id criado obrigatoriamente\\n# ...("numero"),\\n        Field("complemento"),\\n    )\\n\\n\', layer=r\'c:\\Users\\rochacbruno\\aula7_mar12\\web2py\\applications\\loja\\models\\300_datamodels.py\')'
p2416
sg2393
S'compile2'
p2417
sasS'pyver'
p2418
S'Python 2.7.2: c:\\Python27\\python.exe'
p2419
sS'session'
p2420
g69
(g70
g71
NtRp2421
(dp2422
g74
(dp2423
sg76
(lp2424
g69
(g78
g71
NtRp2425
(dp2426
g74
(dp2427
g82
I5
ssg83
Nsg76
(lp2428
sbasbsS'etype'
p2429
S"<type 'exceptions.SyntaxError'>"
p2430
sS'date'
p2431
S'Thu Apr 19 20:09:22 2012'
p2432
sS'response'
p2433
g69
(g70
g71
NtRp2434
(dp2435
g74
(dp2436
sg76
(lp2437
g69
(g78
g71
NtRp2438
(dp2439
g74
(dp2440
g82
I5
ssg83
Nsg76
(lp2441
g69
(g85
g71
NtRp2442
(dp2443
g74
(dp2444
sg83
g2438
sg76
(lp2445
g69
(g90
g71
NtRp2446
(dp2447
g74
(dp2448
g94
g95
ssg83
g2442
sg76
(lp2449
g167
asbag69
(g90
g71
NtRp2450
(dp2451
g74
(dp2452
g101
g102
ssg83
g2442
sg76
(lp2453
S':'
asbag69
(g90
g71
NtRp2454
(dp2455
g74
(dp2456
sg83
g2442
sg76
(lp2457
g69
(g70
g71
NtRp2458
(dp2459
g74
(dp2460
g82
I5
ssg83
g2454
sg76
(lp2461
S'<cStringIO.StringO object at 0x02A0B620>'
p2462
asbasbasbag69
(g85
g71
NtRp2463
(dp2464
g74
(dp2465
sg83
g2438
sg76
(lp2466
g69
(g90
g71
NtRp2467
(dp2468
g74
(dp2469
g94
g95
ssg83
g2463
sg76
(lp2470
g233
asbag69
(g90
g71
NtRp2471
(dp2472
g74
(dp2473
g101
g102
ssg83
g2463
sg76
(lp2474
S':'
asbag69
(g90
g71
NtRp2475
(dp2476
g74
(dp2477
sg83
g2463
sg76
(lp2478
g69
(g70
g71
NtRp2479
(dp2480
g74
(dp2481
g82
I5
ssg83
g2475
sg76
(lp2482
g69
(g78
g71
NtRp2483
(dp2484
g74
(dp2485
g82
I4
ssg83
Nsg76
(lp2486
g69
(g85
g71
NtRp2487
(dp2488
g74
(dp2489
sg83
g2483
sg76
(lp2490
g69
(g90
g71
NtRp2491
(dp2492
g74
(dp2493
g94
g95
ssg83
g2487
sg76
(lp2494
S'session_id_loja'
p2495
asbag69
(g90
g71
NtRp2496
(dp2497
g74
(dp2498
g101
g102
ssg83
g2487
sg76
(lp2499
S':'
asbag69
(g90
g71
NtRp2500
(dp2501
g74
(dp2502
sg83
g2487
sg76
(lp2503
g69
(g70
g71
NtRp2504
(dp2505
g74
(dp2506
g82
I4
ssg83
g2500
sg76
(lp2507
g69
(g78
g71
NtRp2508
(dp2509
g74
(dp2510
g82
I3
ssg83
Nsg76
(lp2511
g69
(g85
g71
NtRp2512
(dp2513
g74
(dp2514
sg83
g2508
sg76
(lp2515
g69
(g90
g71
NtRp2516
(dp2517
g74
(dp2518
g94
g95
ssg83
g2512
sg76
(lp2519
S'comment'
p2520
asbag69
(g90
g71
NtRp2521
(dp2522
g74
(dp2523
g101
g102
ssg83
g2512
sg76
(lp2524
S':'
asbag69
(g90
g71
NtRp2525
(dp2526
g74
(dp2527
sg83
g2512
sg76
(lp2528
g69
(g70
g71
NtRp2529
(dp2530
g74
(dp2531
g82
I3
ssg83
g2525
sg76
(lp2532
S''
asbasbasbag69
(g85
g71
NtRp2533
(dp2534
g74
(dp2535
sg83
g2508
sg76
(lp2536
g69
(g90
g71
NtRp2537
(dp2538
g74
(dp2539
g94
g95
ssg83
g2533
sg76
(lp2540
S'domain'
p2541
asbag69
(g90
g71
NtRp2542
(dp2543
g74
(dp2544
g101
g102
ssg83
g2533
sg76
(lp2545
S':'
asbag69
(g90
g71
NtRp2546
(dp2547
g74
(dp2548
sg83
g2533
sg76
(lp2549
g69
(g70
g71
NtRp2550
(dp2551
g74
(dp2552
g82
I3
ssg83
g2546
sg76
(lp2553
S''
asbasbasbag69
(g85
g71
NtRp2554
(dp2555
g74
(dp2556
sg83
g2508
sg76
(lp2557
g69
(g90
g71
NtRp2558
(dp2559
g74
(dp2560
g94
g95
ssg83
g2554
sg76
(lp2561
S'expires'
p2562
asbag69
(g90
g71
NtRp2563
(dp2564
g74
(dp2565
g101
g102
ssg83
g2554
sg76
(lp2566
S':'
asbag69
(g90
g71
NtRp2567
(dp2568
g74
(dp2569
sg83
g2554
sg76
(lp2570
g69
(g70
g71
NtRp2571
(dp2572
g74
(dp2573
g82
I3
ssg83
g2567
sg76
(lp2574
S''
asbasbasbag69
(g85
g71
NtRp2575
(dp2576
g74
(dp2577
sg83
g2508
sg76
(lp2578
g69
(g90
g71
NtRp2579
(dp2580
g74
(dp2581
g94
g95
ssg83
g2575
sg76
(lp2582
S'httponly'
p2583
asbag69
(g90
g71
NtRp2584
(dp2585
g74
(dp2586
g101
g102
ssg83
g2575
sg76
(lp2587
S':'
asbag69
(g90
g71
NtRp2588
(dp2589
g74
(dp2590
sg83
g2575
sg76
(lp2591
g69
(g70
g71
NtRp2592
(dp2593
g74
(dp2594
g82
I3
ssg83
g2588
sg76
(lp2595
S''
asbasbasbag69
(g85
g71
NtRp2596
(dp2597
g74
(dp2598
sg83
g2508
sg76
(lp2599
g69
(g90
g71
NtRp2600
(dp2601
g74
(dp2602
g94
g95
ssg83
g2596
sg76
(lp2603
S'max-age'
p2604
asbag69
(g90
g71
NtRp2605
(dp2606
g74
(dp2607
g101
g102
ssg83
g2596
sg76
(lp2608
S':'
asbag69
(g90
g71
NtRp2609
(dp2610
g74
(dp2611
sg83
g2596
sg76
(lp2612
g69
(g70
g71
NtRp2613
(dp2614
g74
(dp2615
g82
I3
ssg83
g2609
sg76
(lp2616
S''
asbasbasbag69
(g85
g71
NtRp2617
(dp2618
g74
(dp2619
sg83
g2508
sg76
(lp2620
g69
(g90
g71
NtRp2621
(dp2622
g74
(dp2623
g94
g95
ssg83
g2617
sg76
(lp2624
S'path'
p2625
asbag69
(g90
g71
NtRp2626
(dp2627
g74
(dp2628
g101
g102
ssg83
g2617
sg76
(lp2629
S':'
asbag69
(g90
g71
NtRp2630
(dp2631
g74
(dp2632
sg83
g2617
sg76
(lp2633
g69
(g70
g71
NtRp2634
(dp2635
g74
(dp2636
g82
I3
ssg83
g2630
sg76
(lp2637
S'/'
asbasbasbag69
(g85
g71
NtRp2638
(dp2639
g74
(dp2640
sg83
g2508
sg76
(lp2641
g69
(g90
g71
NtRp2642
(dp2643
g74
(dp2644
g94
g95
ssg83
g2638
sg76
(lp2645
S'secure'
p2646
asbag69
(g90
g71
NtRp2647
(dp2648
g74
(dp2649
g101
g102
ssg83
g2638
sg76
(lp2650
S':'
asbag69
(g90
g71
NtRp2651
(dp2652
g74
(dp2653
sg83
g2638
sg76
(lp2654
g69
(g70
g71
NtRp2655
(dp2656
g74
(dp2657
g82
I3
ssg83
g2651
sg76
(lp2658
S''
asbasbasbag69
(g85
g71
NtRp2659
(dp2660
g74
(dp2661
sg83
g2508
sg76
(lp2662
g69
(g90
g71
NtRp2663
(dp2664
g74
(dp2665
g94
g95
ssg83
g2659
sg76
(lp2666
S'version'
p2667
asbag69
(g90
g71
NtRp2668
(dp2669
g74
(dp2670
g101
g102
ssg83
g2659
sg76
(lp2671
S':'
asbag69
(g90
g71
NtRp2672
(dp2673
g74
(dp2674
sg83
g2659
sg76
(lp2675
g69
(g70
g71
NtRp2676
(dp2677
g74
(dp2678
g82
I3
ssg83
g2672
sg76
(lp2679
S''
asbasbasbasbasbasbasbasbasbasbasbag69
(g85
g71
NtRp2680
(dp2681
g74
(dp2682
sg83
g2438
sg76
(lp2683
g69
(g90
g71
NtRp2684
(dp2685
g74
(dp2686
g94
g95
ssg83
g2680
sg76
(lp2687
S'delimiters'
p2688
asbag69
(g90
g71
NtRp2689
(dp2690
g74
(dp2691
g101
g102
ssg83
g2680
sg76
(lp2692
S':'
asbag69
(g90
g71
NtRp2693
(dp2694
g74
(dp2695
sg83
g2680
sg76
(lp2696
g69
(g70
g71
NtRp2697
(dp2698
g74
(dp2699
g82
I5
ssg83
g2693
sg76
(lp2700
g69
(g78
g71
NtRp2701
(dp2702
g74
(dp2703
g82
I4
ssg83
Nsg76
(lp2704
g69
(g85
g71
NtRp2705
(dp2706
g74
(dp2707
sg83
g2701
sg76
(lp2708
g69
(g90
g71
NtRp2709
(dp2710
g74
(dp2711
sg83
g2705
sg76
(lp2712
g69
(g70
g71
NtRp2713
(dp2714
g74
(dp2715
g82
I4
ssg83
g2709
sg76
(lp2716
S'{{'
p2717
asbasbasbag69
(g85
g71
NtRp2718
(dp2719
g74
(dp2720
sg83
g2701
sg76
(lp2721
g69
(g90
g71
NtRp2722
(dp2723
g74
(dp2724
sg83
g2718
sg76
(lp2725
g69
(g70
g71
NtRp2726
(dp2727
g74
(dp2728
g82
I4
ssg83
g2722
sg76
(lp2729
S'}}'
p2730
asbasbasbasbasbasbasbag69
(g85
g71
NtRp2731
(dp2732
g74
(dp2733
sg83
g2438
sg76
(lp2734
g69
(g90
g71
NtRp2735
(dp2736
g74
(dp2737
g94
g95
ssg83
g2731
sg76
(lp2738
S'files'
p2739
asbag69
(g90
g71
NtRp2740
(dp2741
g74
(dp2742
g101
g102
ssg83
g2731
sg76
(lp2743
S':'
asbag69
(g90
g71
NtRp2744
(dp2745
g74
(dp2746
sg83
g2731
sg76
(lp2747
g69
(g70
g71
NtRp2748
(dp2749
g74
(dp2750
g82
I5
ssg83
g2744
sg76
(lp2751
g69
(g78
g71
NtRp2752
(dp2753
g74
(dp2754
g82
I4
ssg83
Nsg76
(lp2755
sbasbasbasbag69
(g85
g71
NtRp2756
(dp2757
g74
(dp2758
sg83
g2438
sg76
(lp2759
g69
(g90
g71
NtRp2760
(dp2761
g74
(dp2762
g94
g95
ssg83
g2756
sg76
(lp2763
S'flash'
p2764
asbag69
(g90
g71
NtRp2765
(dp2766
g74
(dp2767
g101
g102
ssg83
g2756
sg76
(lp2768
S':'
asbag69
(g90
g71
NtRp2769
(dp2770
g74
(dp2771
sg83
g2756
sg76
(lp2772
g69
(g70
g71
NtRp2773
(dp2774
g74
(dp2775
g82
I5
ssg83
g2769
sg76
(lp2776
S''
asbasbasbag69
(g85
g71
NtRp2777
(dp2778
g74
(dp2779
sg83
g2438
sg76
(lp2780
g69
(g90
g71
NtRp2781
(dp2782
g74
(dp2783
g94
g95
ssg83
g2777
sg76
(lp2784
S'generic_patterns'
p2785
asbag69
(g90
g71
NtRp2786
(dp2787
g74
(dp2788
g101
g102
ssg83
g2777
sg76
(lp2789
S':'
asbag69
(g90
g71
NtRp2790
(dp2791
g74
(dp2792
sg83
g2777
sg76
(lp2793
g69
(g70
g71
NtRp2794
(dp2795
g74
(dp2796
g82
I5
ssg83
g2790
sg76
(lp2797
g69
(g78
g71
NtRp2798
(dp2799
g74
(dp2800
g82
I4
ssg83
Nsg76
(lp2801
sbasbasbasbag69
(g85
g71
NtRp2802
(dp2803
g74
(dp2804
sg83
g2438
sg76
(lp2805
g69
(g90
g71
NtRp2806
(dp2807
g74
(dp2808
g94
g95
ssg83
g2802
sg76
(lp2809
S'headers'
p2810
asbag69
(g90
g71
NtRp2811
(dp2812
g74
(dp2813
g101
g102
ssg83
g2802
sg76
(lp2814
S':'
asbag69
(g90
g71
NtRp2815
(dp2816
g74
(dp2817
sg83
g2802
sg76
(lp2818
g69
(g70
g71
NtRp2819
(dp2820
g74
(dp2821
g82
I5
ssg83
g2815
sg76
(lp2822
g69
(g78
g71
NtRp2823
(dp2824
g74
(dp2825
g82
I4
ssg83
Nsg76
(lp2826
g69
(g85
g71
NtRp2827
(dp2828
g74
(dp2829
sg83
g2823
sg76
(lp2830
g69
(g90
g71
NtRp2831
(dp2832
g74
(dp2833
g94
g95
ssg83
g2827
sg76
(lp2834
S'Cache-Control'
p2835
asbag69
(g90
g71
NtRp2836
(dp2837
g74
(dp2838
g101
g102
ssg83
g2827
sg76
(lp2839
S':'
asbag69
(g90
g71
NtRp2840
(dp2841
g74
(dp2842
sg83
g2827
sg76
(lp2843
g69
(g70
g71
NtRp2844
(dp2845
g74
(dp2846
g82
I4
ssg83
g2840
sg76
(lp2847
S'no-store, no-cache, must-revalidate, post-check=0, pre-check=0'
p2848
asbasbasbag69
(g85
g71
NtRp2849
(dp2850
g74
(dp2851
sg83
g2823
sg76
(lp2852
g69
(g90
g71
NtRp2853
(dp2854
g74
(dp2855
g94
g95
ssg83
g2849
sg76
(lp2856
S'Content-Type'
p2857
asbag69
(g90
g71
NtRp2858
(dp2859
g74
(dp2860
g101
g102
ssg83
g2849
sg76
(lp2861
S':'
asbag69
(g90
g71
NtRp2862
(dp2863
g74
(dp2864
sg83
g2849
sg76
(lp2865
g69
(g70
g71
NtRp2866
(dp2867
g74
(dp2868
g82
I4
ssg83
g2862
sg76
(lp2869
S'text/html; charset=utf-8'
p2870
asbasbasbag69
(g85
g71
NtRp2871
(dp2872
g74
(dp2873
sg83
g2823
sg76
(lp2874
g69
(g90
g71
NtRp2875
(dp2876
g74
(dp2877
g94
g95
ssg83
g2871
sg76
(lp2878
S'Expires'
p2879
asbag69
(g90
g71
NtRp2880
(dp2881
g74
(dp2882
g101
g102
ssg83
g2871
sg76
(lp2883
S':'
asbag69
(g90
g71
NtRp2884
(dp2885
g74
(dp2886
sg83
g2871
sg76
(lp2887
g69
(g70
g71
NtRp2888
(dp2889
g74
(dp2890
g82
I4
ssg83
g2884
sg76
(lp2891
S'Thu, 19 Apr 2012 23:09:21 GMT'
p2892
asbasbasbag69
(g85
g71
NtRp2893
(dp2894
g74
(dp2895
sg83
g2823
sg76
(lp2896
g69
(g90
g71
NtRp2897
(dp2898
g74
(dp2899
g94
g95
ssg83
g2893
sg76
(lp2900
S'Pragma'
p2901
asbag69
(g90
g71
NtRp2902
(dp2903
g74
(dp2904
g101
g102
ssg83
g2893
sg76
(lp2905
S':'
asbag69
(g90
g71
NtRp2906
(dp2907
g74
(dp2908
sg83
g2893
sg76
(lp2909
g69
(g70
g71
NtRp2910
(dp2911
g74
(dp2912
g82
I4
ssg83
g2906
sg76
(lp2913
S'no-cache'
p2914
asbasbasbag69
(g85
g71
NtRp2915
(dp2916
g74
(dp2917
sg83
g2823
sg76
(lp2918
g69
(g90
g71
NtRp2919
(dp2920
g74
(dp2921
g94
g95
ssg83
g2915
sg76
(lp2922
S'X-Powered-By'
p2923
asbag69
(g90
g71
NtRp2924
(dp2925
g74
(dp2926
g101
g102
ssg83
g2915
sg76
(lp2927
S':'
asbag69
(g90
g71
NtRp2928
(dp2929
g74
(dp2930
sg83
g2915
sg76
(lp2931
g69
(g70
g71
NtRp2932
(dp2933
g74
(dp2934
g82
I4
ssg83
g2928
sg76
(lp2935
S'web2py'
p2936
asbasbasbasbasbasbasbag69
(g85
g71
NtRp2937
(dp2938
g74
(dp2939
sg83
g2438
sg76
(lp2940
g69
(g90
g71
NtRp2941
(dp2942
g74
(dp2943
g94
g95
ssg83
g2937
sg76
(lp2944
S'menu'
p2945
asbag69
(g90
g71
NtRp2946
(dp2947
g74
(dp2948
g101
g102
ssg83
g2937
sg76
(lp2949
S':'
asbag69
(g90
g71
NtRp2950
(dp2951
g74
(dp2952
sg83
g2937
sg76
(lp2953
g69
(g70
g71
NtRp2954
(dp2955
g74
(dp2956
g82
I5
ssg83
g2950
sg76
(lp2957
g69
(g78
g71
NtRp2958
(dp2959
g74
(dp2960
g82
I4
ssg83
Nsg76
(lp2961
sbasbasbasbag69
(g85
g71
NtRp2962
(dp2963
g74
(dp2964
sg83
g2438
sg76
(lp2965
g69
(g90
g71
NtRp2966
(dp2967
g74
(dp2968
g94
g95
ssg83
g2962
sg76
(lp2969
S'meta'
p2970
asbag69
(g90
g71
NtRp2971
(dp2972
g74
(dp2973
g101
g102
ssg83
g2962
sg76
(lp2974
S':'
asbag69
(g90
g71
NtRp2975
(dp2976
g74
(dp2977
sg83
g2962
sg76
(lp2978
g69
(g70
g71
NtRp2979
(dp2980
g74
(dp2981
g82
I5
ssg83
g2975
sg76
(lp2982
g69
(g78
g71
NtRp2983
(dp2984
g74
(dp2985
g82
I4
ssg83
Nsg76
(lp2986
g69
(g85
g71
NtRp2987
(dp2988
g74
(dp2989
sg83
g2983
sg76
(lp2990
g69
(g90
g71
NtRp2991
(dp2992
g74
(dp2993
g94
g95
ssg83
g2987
sg76
(lp2994
S'description'
p2995
asbag69
(g90
g71
NtRp2996
(dp2997
g74
(dp2998
g101
g102
ssg83
g2987
sg76
(lp2999
S':'
asbag69
(g90
g71
NtRp3000
(dp3001
g74
(dp3002
sg83
g2987
sg76
(lp3003
g69
(g70
g71
NtRp3004
(dp3005
g74
(dp3006
g82
I4
ssg83
g3000
sg76
(lp3007
S'Loja virtual'
p3008
asbasbasbasbasbasbasbag69
(g85
g71
NtRp3009
(dp3010
g74
(dp3011
sg83
g2438
sg76
(lp3012
g69
(g90
g71
NtRp3013
(dp3014
g74
(dp3015
g94
g95
ssg83
g3009
sg76
(lp3016
S'postprocessing'
p3017
asbag69
(g90
g71
NtRp3018
(dp3019
g74
(dp3020
g101
g102
ssg83
g3009
sg76
(lp3021
S':'
asbag69
(g90
g71
NtRp3022
(dp3023
g74
(dp3024
sg83
g3009
sg76
(lp3025
g69
(g70
g71
NtRp3026
(dp3027
g74
(dp3028
g82
I5
ssg83
g3022
sg76
(lp3029
g69
(g78
g71
NtRp3030
(dp3031
g74
(dp3032
g82
I4
ssg83
Nsg76
(lp3033
sbasbasbasbag69
(g85
g71
NtRp3034
(dp3035
g74
(dp3036
sg83
g2438
sg76
(lp3037
g69
(g90
g71
NtRp3038
(dp3039
g74
(dp3040
g94
g95
ssg83
g3034
sg76
(lp3041
S'session_filename'
p3042
asbag69
(g90
g71
NtRp3043
(dp3044
g74
(dp3045
g101
g102
ssg83
g3034
sg76
(lp3046
S':'
asbag69
(g90
g71
NtRp3047
(dp3048
g74
(dp3049
sg83
g3034
sg76
(lp3050
g69
(g70
g71
NtRp3051
(dp3052
g74
(dp3053
g82
I5
ssg83
g3047
sg76
(lp3054
S'c:\\Users\\rochacbruno\\aula7_mar12\\web2py\\applications\\loja\\sessions\\127.0.0.1-39218604-9b46-41b5-a12d-0b3b03c93f60'
p3055
asbasbasbag69
(g85
g71
NtRp3056
(dp3057
g74
(dp3058
sg83
g2438
sg76
(lp3059
g69
(g90
g71
NtRp3060
(dp3061
g74
(dp3062
g94
g95
ssg83
g3056
sg76
(lp3063
S'session_id'
p3064
asbag69
(g90
g71
NtRp3065
(dp3066
g74
(dp3067
g101
g102
ssg83
g3056
sg76
(lp3068
S':'
asbag69
(g90
g71
NtRp3069
(dp3070
g74
(dp3071
sg83
g3056
sg76
(lp3072
g69
(g70
g71
NtRp3073
(dp3074
g74
(dp3075
g82
I5
ssg83
g3069
sg76
(lp3076
S'127.0.0.1-39218604-9b46-41b5-a12d-0b3b03c93f60'
p3077
asbasbasbag69
(g85
g71
NtRp3078
(dp3079
g74
(dp3080
sg83
g2438
sg76
(lp3081
g69
(g90
g71
NtRp3082
(dp3083
g74
(dp3084
g94
g95
ssg83
g3078
sg76
(lp3085
S'session_id_name'
p3086
asbag69
(g90
g71
NtRp3087
(dp3088
g74
(dp3089
g101
g102
ssg83
g3078
sg76
(lp3090
S':'
asbag69
(g90
g71
NtRp3091
(dp3092
g74
(dp3093
sg83
g3078
sg76
(lp3094
g69
(g70
g71
NtRp3095
(dp3096
g74
(dp3097
g82
I5
ssg83
g3091
sg76
(lp3098
g2495
asbasbasbag69
(g85
g71
NtRp3099
(dp3100
g74
(dp3101
sg83
g2438
sg76
(lp3102
g69
(g90
g71
NtRp3103
(dp3104
g74
(dp3105
g94
g95
ssg83
g3099
sg76
(lp3106
S'session_new'
p3107
asbag69
(g90
g71
NtRp3108
(dp3109
g74
(dp3110
g101
g102
ssg83
g3099
sg76
(lp3111
S':'
asbag69
(g90
g71
NtRp3112
(dp3113
g74
(dp3114
sg83
g3099
sg76
(lp3115
g69
(g70
g71
NtRp3116
(dp3117
g74
(dp3118
g82
I5
ssg83
g3112
sg76
(lp3119
g1081
asbasbasbag69
(g85
g71
NtRp3120
(dp3121
g74
(dp3122
sg83
g2438
sg76
(lp3123
g69
(g90
g71
NtRp3124
(dp3125
g74
(dp3126
g94
g95
ssg83
g3120
sg76
(lp3127
S'status'
p3128
asbag69
(g90
g71
NtRp3129
(dp3130
g74
(dp3131
g101
g102
ssg83
g3120
sg76
(lp3132
S':'
asbag69
(g90
g71
NtRp3133
(dp3134
g74
(dp3135
sg83
g3120
sg76
(lp3136
g69
(g70
g71
NtRp3137
(dp3138
g74
(dp3139
g82
I5
ssg83
g3133
sg76
(lp3140
S'200'
p3141
asbasbasbag69
(g85
g71
NtRp3142
(dp3143
g74
(dp3144
sg83
g2438
sg76
(lp3145
g69
(g90
g71
NtRp3146
(dp3147
g74
(dp3148
g94
g95
ssg83
g3142
sg76
(lp3149
S'title'
p3150
asbag69
(g90
g71
NtRp3151
(dp3152
g74
(dp3153
g101
g102
ssg83
g3142
sg76
(lp3154
S':'
asbag69
(g90
g71
NtRp3155
(dp3156
g74
(dp3157
sg83
g3142
sg76
(lp3158
g69
(g70
g71
NtRp3159
(dp3160
g74
(dp3161
g82
I5
ssg83
g3155
sg76
(lp3162
S'loja web2py'
p3163
asbasbasbag69
(g85
g71
NtRp3164
(dp3165
g74
(dp3166
sg83
g2438
sg76
(lp3167
g69
(g90
g71
NtRp3168
(dp3169
g74
(dp3170
g94
g95
ssg83
g3164
sg76
(lp3171
g1725
asbag69
(g90
g71
NtRp3172
(dp3173
g74
(dp3174
g101
g102
ssg83
g3164
sg76
(lp3175
S':'
asbag69
(g90
g71
NtRp3176
(dp3177
g74
(dp3178
sg83
g3164
sg76
(lp3179
g69
(g70
g71
NtRp3180
(dp3181
g74
(dp3182
g82
I5
ssg83
g3176
sg76
(lp3183
g1738
asbasbasbag69
(g85
g71
NtRp3184
(dp3185
g74
(dp3186
sg83
g2438
sg76
(lp3187
g69
(g90
g71
NtRp3188
(dp3189
g74
(dp3190
g94
g95
ssg83
g3184
sg76
(lp3191
S'view'
p3192
asbag69
(g90
g71
NtRp3193
(dp3194
g74
(dp3195
g101
g102
ssg83
g3184
sg76
(lp3196
S':'
asbag69
(g90
g71
NtRp3197
(dp3198
g74
(dp3199
sg83
g3184
sg76
(lp3200
g69
(g70
g71
NtRp3201
(dp3202
g74
(dp3203
g82
I5
ssg83
g3197
sg76
(lp3204
S'home/index.html'
p3205
asbasbasbasbasbsS'locals'
p3206
(dp3207
g4
S"r'c:\\Users\\rochacbruno\\aula7_mar12\\web2py\\applications\\loja\\models\\300_datamodels.py'"
p3208
sg6
S'\'# coding: utf-8\\n\\n# id criado obrigatoriamente\\n# ...("numero"),\\n        Field("complemento"),\\n    )\\n\\n\''
p3209
sssS'traceback'
p3210
S'Traceback (most recent call last):\n  File "c:\\Users\\rochacbruno\\aula7_mar12\\web2py\\gluon\\restricted.py", line 204, in restricted\n    ccode = compile2(code,layer)\n  File "c:\\Users\\rochacbruno\\aula7_mar12\\web2py\\gluon\\restricted.py", line 189, in compile2\n    return compile(code.rstrip().replace(\'\\r\\n\',\'\\n\')+\'\\n\', layer, \'exec\')\n  File "c:\\Users\\rochacbruno\\aula7_mar12\\web2py\\applications\\loja\\models\\300_datamodels.py", line 39\n    Field("status"),\n        ^\nSyntaxError: invalid syntax\n'
p3211
s.