(dp1
S'output'
p2
S"<type 'exceptions.NameError'> global name 'resquest' is not defined"
p3
sS'layer'
p4
S'c:\\Users\\rochacbruno\\aula7_mar12\\web2py\\applications\\loja\\controllers/produto.py'
p5
sS'code'
p6
S'# coding: utf-8\n\ndef exibir():\n    print resquest.args\n    print request.vars\n    return "produto"\n\nresponse._vars=response._caller(exibir)\n'
p7
sS'snapshot'
p8
(dp9
S'exception'
p10
(dp11
S'__hash__'
p12
S"<method-wrapper '__hash__' of exceptions.NameError object>"
p13
sS'__setattr__'
p14
S"<method-wrapper '__setattr__' of exceptions.NameError object>"
p15
sS'__reduce_ex__'
p16
S'<built-in method __reduce_ex__ of exceptions.NameError object>'
p17
sS'__getslice__'
p18
S"<method-wrapper '__getslice__' of exceptions.NameError object>"
p19
sS'__getitem__'
p20
S"<method-wrapper '__getitem__' of exceptions.NameError object>"
p21
sS'__setstate__'
p22
S'<built-in method __setstate__ of exceptions.NameError object>'
p23
sS'__reduce__'
p24
S'<built-in method __reduce__ of exceptions.NameError object>'
p25
sS'__str__'
p26
S"<method-wrapper '__str__' of exceptions.NameError object>"
p27
sS'__format__'
p28
S'<built-in method __format__ of exceptions.NameError object>'
p29
sS'__getattribute__'
p30
S"<method-wrapper '__getattribute__' of exceptions.NameError object>"
p31
sS'__class__'
p32
S"<type 'exceptions.NameError'>"
p33
sS'__unicode__'
p34
S'<built-in method __unicode__ of exceptions.NameError object>'
p35
sS'__delattr__'
p36
S"<method-wrapper '__delattr__' of exceptions.NameError object>"
p37
sS'__subclasshook__'
p38
S'<built-in method __subclasshook__ of type object>'
p39
sS'__repr__'
p40
S"<method-wrapper '__repr__' of exceptions.NameError object>"
p41
sS'args'
p42
S'("global name \'resquest\' is not defined",)'
p43
sS'__dict__'
p44
S'{}'
p45
sS'__sizeof__'
p46
S'<built-in method __sizeof__ of exceptions.NameError object>'
p47
sS'__doc__'
p48
S"'Name not found globally.'"
p49
sS'__init__'
p50
S"<method-wrapper '__init__' of exceptions.NameError object>"
p51
sS'__new__'
p52
S'<built-in method __new__ of type object>'
p53
ssS'evalue'
p54
S"global name 'resquest' is not defined"
p55
sS'request'
p56
ccopy_reg
_reconstructor
p57
(cgluon.html
BEAUTIFY
p58
c__builtin__
object
p59
NtRp60
(dp61
S'attributes'
p62
(dp63
sS'components'
p64
(lp65
g57
(cgluon.html
TABLE
p66
g59
NtRp67
(dp68
g62
(dp69
S'level'
p70
I5
ssS'parent'
p71
Nsg64
(lp72
g57
(cgluon.html
TR
p73
g59
NtRp74
(dp75
g62
(dp76
sg71
g67
sg64
(lp77
g57
(cgluon.html
TD
p78
g59
NtRp79
(dp80
g62
(dp81
S'_style'
p82
S'font-weight:bold;vertical-align:top'
p83
ssg71
g74
sg64
(lp84
S'ajax'
p85
asbag57
(g78
g59
NtRp86
(dp87
g62
(dp88
S'_valign'
p89
S'top'
p90
ssg71
g74
sg64
(lp91
S':'
asbag57
(g78
g59
NtRp92
(dp93
g62
(dp94
sg71
g74
sg64
(lp95
g57
(g58
g59
NtRp96
(dp97
g62
(dp98
g70
I5
ssg71
g92
sg64
(lp99
S'False'
p100
asbasbasbag57
(g73
g59
NtRp101
(dp102
g62
(dp103
sg71
g67
sg64
(lp104
g57
(g78
g59
NtRp105
(dp106
g62
(dp107
g82
g83
ssg71
g101
sg64
(lp108
S'application'
p109
asbag57
(g78
g59
NtRp110
(dp111
g62
(dp112
g89
g90
ssg71
g101
sg64
(lp113
S':'
asbag57
(g78
g59
NtRp114
(dp115
g62
(dp116
sg71
g101
sg64
(lp117
g57
(g58
g59
NtRp118
(dp119
g62
(dp120
g70
I5
ssg71
g114
sg64
(lp121
S'loja'
p122
asbasbasbag57
(g73
g59
NtRp123
(dp124
g62
(dp125
sg71
g67
sg64
(lp126
g57
(g78
g59
NtRp127
(dp128
g62
(dp129
g82
g83
ssg71
g123
sg64
(lp130
g42
asbag57
(g78
g59
NtRp131
(dp132
g62
(dp133
g89
g90
ssg71
g123
sg64
(lp134
S':'
asbag57
(g78
g59
NtRp135
(dp136
g62
(dp137
sg71
g123
sg64
(lp138
g57
(g58
g59
NtRp139
(dp140
g62
(dp141
g70
I5
ssg71
g135
sg64
(lp142
g57
(g66
g59
NtRp143
(dp144
g62
(dp145
g70
I4
ssg71
Nsg64
(lp146
g57
(g73
g59
NtRp147
(dp148
g62
(dp149
sg71
g143
sg64
(lp150
g57
(g78
g59
NtRp151
(dp152
g62
(dp153
sg71
g147
sg64
(lp154
g57
(g58
g59
NtRp155
(dp156
g62
(dp157
g70
I4
ssg71
g151
sg64
(lp158
S'45'
p159
asbasbasbasbasbasbasbag57
(g73
g59
NtRp160
(dp161
g62
(dp162
sg71
g67
sg64
(lp163
g57
(g78
g59
NtRp164
(dp165
g62
(dp166
g82
g83
ssg71
g160
sg64
(lp167
S'body'
p168
asbag57
(g78
g59
NtRp169
(dp170
g62
(dp171
g89
g90
ssg71
g160
sg64
(lp172
S':'
asbag57
(g78
g59
NtRp173
(dp174
g62
(dp175
sg71
g160
sg64
(lp176
g57
(g58
g59
NtRp177
(dp178
g62
(dp179
g70
I5
ssg71
g173
sg64
(lp180
S'<cStringIO.StringO object at 0x02646960>'
p181
asbasbasbag57
(g73
g59
NtRp182
(dp183
g62
(dp184
sg71
g67
sg64
(lp185
g57
(g78
g59
NtRp186
(dp187
g62
(dp188
g82
g83
ssg71
g182
sg64
(lp189
S'client'
p190
asbag57
(g78
g59
NtRp191
(dp192
g62
(dp193
g89
g90
ssg71
g182
sg64
(lp194
S':'
asbag57
(g78
g59
NtRp195
(dp196
g62
(dp197
sg71
g182
sg64
(lp198
g57
(g58
g59
NtRp199
(dp200
g62
(dp201
g70
I5
ssg71
g195
sg64
(lp202
S'127.0.0.1'
p203
asbasbasbag57
(g73
g59
NtRp204
(dp205
g62
(dp206
sg71
g67
sg64
(lp207
g57
(g78
g59
NtRp208
(dp209
g62
(dp210
g82
g83
ssg71
g204
sg64
(lp211
S'controller'
p212
asbag57
(g78
g59
NtRp213
(dp214
g62
(dp215
g89
g90
ssg71
g204
sg64
(lp216
S':'
asbag57
(g78
g59
NtRp217
(dp218
g62
(dp219
sg71
g204
sg64
(lp220
g57
(g58
g59
NtRp221
(dp222
g62
(dp223
g70
I5
ssg71
g217
sg64
(lp224
S'produto'
p225
asbasbasbag57
(g73
g59
NtRp226
(dp227
g62
(dp228
sg71
g67
sg64
(lp229
g57
(g78
g59
NtRp230
(dp231
g62
(dp232
g82
g83
ssg71
g226
sg64
(lp233
S'cookies'
p234
asbag57
(g78
g59
NtRp235
(dp236
g62
(dp237
g89
g90
ssg71
g226
sg64
(lp238
S':'
asbag57
(g78
g59
NtRp239
(dp240
g62
(dp241
sg71
g226
sg64
(lp242
g57
(g58
g59
NtRp243
(dp244
g62
(dp245
g70
I5
ssg71
g239
sg64
(lp246
g57
(g66
g59
NtRp247
(dp248
g62
(dp249
g70
I4
ssg71
Nsg64
(lp250
g57
(g73
g59
NtRp251
(dp252
g62
(dp253
sg71
g247
sg64
(lp254
g57
(g78
g59
NtRp255
(dp256
g62
(dp257
g82
g83
ssg71
g251
sg64
(lp258
S'session_id_admin'
p259
asbag57
(g78
g59
NtRp260
(dp261
g62
(dp262
g89
g90
ssg71
g251
sg64
(lp263
S':'
asbag57
(g78
g59
NtRp264
(dp265
g62
(dp266
sg71
g251
sg64
(lp267
g57
(g58
g59
NtRp268
(dp269
g62
(dp270
g70
I4
ssg71
g264
sg64
(lp271
g57
(g66
g59
NtRp272
(dp273
g62
(dp274
g70
I3
ssg71
Nsg64
(lp275
g57
(g73
g59
NtRp276
(dp277
g62
(dp278
sg71
g272
sg64
(lp279
g57
(g78
g59
NtRp280
(dp281
g62
(dp282
g82
g83
ssg71
g276
sg64
(lp283
S'comment'
p284
asbag57
(g78
g59
NtRp285
(dp286
g62
(dp287
g89
g90
ssg71
g276
sg64
(lp288
S':'
asbag57
(g78
g59
NtRp289
(dp290
g62
(dp291
sg71
g276
sg64
(lp292
g57
(g58
g59
NtRp293
(dp294
g62
(dp295
g70
I3
ssg71
g289
sg64
(lp296
S''
asbasbasbag57
(g73
g59
NtRp297
(dp298
g62
(dp299
sg71
g272
sg64
(lp300
g57
(g78
g59
NtRp301
(dp302
g62
(dp303
g82
g83
ssg71
g297
sg64
(lp304
S'domain'
p305
asbag57
(g78
g59
NtRp306
(dp307
g62
(dp308
g89
g90
ssg71
g297
sg64
(lp309
S':'
asbag57
(g78
g59
NtRp310
(dp311
g62
(dp312
sg71
g297
sg64
(lp313
g57
(g58
g59
NtRp314
(dp315
g62
(dp316
g70
I3
ssg71
g310
sg64
(lp317
S''
asbasbasbag57
(g73
g59
NtRp318
(dp319
g62
(dp320
sg71
g272
sg64
(lp321
g57
(g78
g59
NtRp322
(dp323
g62
(dp324
g82
g83
ssg71
g318
sg64
(lp325
S'expires'
p326
asbag57
(g78
g59
NtRp327
(dp328
g62
(dp329
g89
g90
ssg71
g318
sg64
(lp330
S':'
asbag57
(g78
g59
NtRp331
(dp332
g62
(dp333
sg71
g318
sg64
(lp334
g57
(g58
g59
NtRp335
(dp336
g62
(dp337
g70
I3
ssg71
g331
sg64
(lp338
S''
asbasbasbag57
(g73
g59
NtRp339
(dp340
g62
(dp341
sg71
g272
sg64
(lp342
g57
(g78
g59
NtRp343
(dp344
g62
(dp345
g82
g83
ssg71
g339
sg64
(lp346
S'httponly'
p347
asbag57
(g78
g59
NtRp348
(dp349
g62
(dp350
g89
g90
ssg71
g339
sg64
(lp351
S':'
asbag57
(g78
g59
NtRp352
(dp353
g62
(dp354
sg71
g339
sg64
(lp355
g57
(g58
g59
NtRp356
(dp357
g62
(dp358
g70
I3
ssg71
g352
sg64
(lp359
S''
asbasbasbag57
(g73
g59
NtRp360
(dp361
g62
(dp362
sg71
g272
sg64
(lp363
g57
(g78
g59
NtRp364
(dp365
g62
(dp366
g82
g83
ssg71
g360
sg64
(lp367
S'max-age'
p368
asbag57
(g78
g59
NtRp369
(dp370
g62
(dp371
g89
g90
ssg71
g360
sg64
(lp372
S':'
asbag57
(g78
g59
NtRp373
(dp374
g62
(dp375
sg71
g360
sg64
(lp376
g57
(g58
g59
NtRp377
(dp378
g62
(dp379
g70
I3
ssg71
g373
sg64
(lp380
S''
asbasbasbag57
(g73
g59
NtRp381
(dp382
g62
(dp383
sg71
g272
sg64
(lp384
g57
(g78
g59
NtRp385
(dp386
g62
(dp387
g82
g83
ssg71
g381
sg64
(lp388
S'path'
p389
asbag57
(g78
g59
NtRp390
(dp391
g62
(dp392
g89
g90
ssg71
g381
sg64
(lp393
S':'
asbag57
(g78
g59
NtRp394
(dp395
g62
(dp396
sg71
g381
sg64
(lp397
g57
(g58
g59
NtRp398
(dp399
g62
(dp400
g70
I3
ssg71
g394
sg64
(lp401
S''
asbasbasbag57
(g73
g59
NtRp402
(dp403
g62
(dp404
sg71
g272
sg64
(lp405
g57
(g78
g59
NtRp406
(dp407
g62
(dp408
g82
g83
ssg71
g402
sg64
(lp409
S'secure'
p410
asbag57
(g78
g59
NtRp411
(dp412
g62
(dp413
g89
g90
ssg71
g402
sg64
(lp414
S':'
asbag57
(g78
g59
NtRp415
(dp416
g62
(dp417
sg71
g402
sg64
(lp418
g57
(g58
g59
NtRp419
(dp420
g62
(dp421
g70
I3
ssg71
g415
sg64
(lp422
S''
asbasbasbag57
(g73
g59
NtRp423
(dp424
g62
(dp425
sg71
g272
sg64
(lp426
g57
(g78
g59
NtRp427
(dp428
g62
(dp429
g82
g83
ssg71
g423
sg64
(lp430
S'version'
p431
asbag57
(g78
g59
NtRp432
(dp433
g62
(dp434
g89
g90
ssg71
g423
sg64
(lp435
S':'
asbag57
(g78
g59
NtRp436
(dp437
g62
(dp438
sg71
g423
sg64
(lp439
g57
(g58
g59
NtRp440
(dp441
g62
(dp442
g70
I3
ssg71
g436
sg64
(lp443
S''
asbasbasbasbasbasbasbag57
(g73
g59
NtRp444
(dp445
g62
(dp446
sg71
g247
sg64
(lp447
g57
(g78
g59
NtRp448
(dp449
g62
(dp450
g82
g83
ssg71
g444
sg64
(lp451
S'session_id_loja'
p452
asbag57
(g78
g59
NtRp453
(dp454
g62
(dp455
g89
g90
ssg71
g444
sg64
(lp456
S':'
asbag57
(g78
g59
NtRp457
(dp458
g62
(dp459
sg71
g444
sg64
(lp460
g57
(g58
g59
NtRp461
(dp462
g62
(dp463
g70
I4
ssg71
g457
sg64
(lp464
g57
(g66
g59
NtRp465
(dp466
g62
(dp467
g70
I3
ssg71
Nsg64
(lp468
g57
(g73
g59
NtRp469
(dp470
g62
(dp471
sg71
g465
sg64
(lp472
g57
(g78
g59
NtRp473
(dp474
g62
(dp475
g82
g83
ssg71
g469
sg64
(lp476
g284
asbag57
(g78
g59
NtRp477
(dp478
g62
(dp479
g89
g90
ssg71
g469
sg64
(lp480
S':'
asbag57
(g78
g59
NtRp481
(dp482
g62
(dp483
sg71
g469
sg64
(lp484
g57
(g58
g59
NtRp485
(dp486
g62
(dp487
g70
I3
ssg71
g481
sg64
(lp488
S''
asbasbasbag57
(g73
g59
NtRp489
(dp490
g62
(dp491
sg71
g465
sg64
(lp492
g57
(g78
g59
NtRp493
(dp494
g62
(dp495
g82
g83
ssg71
g489
sg64
(lp496
g305
asbag57
(g78
g59
NtRp497
(dp498
g62
(dp499
g89
g90
ssg71
g489
sg64
(lp500
S':'
asbag57
(g78
g59
NtRp501
(dp502
g62
(dp503
sg71
g489
sg64
(lp504
g57
(g58
g59
NtRp505
(dp506
g62
(dp507
g70
I3
ssg71
g501
sg64
(lp508
S''
asbasbasbag57
(g73
g59
NtRp509
(dp510
g62
(dp511
sg71
g465
sg64
(lp512
g57
(g78
g59
NtRp513
(dp514
g62
(dp515
g82
g83
ssg71
g509
sg64
(lp516
g326
asbag57
(g78
g59
NtRp517
(dp518
g62
(dp519
g89
g90
ssg71
g509
sg64
(lp520
S':'
asbag57
(g78
g59
NtRp521
(dp522
g62
(dp523
sg71
g509
sg64
(lp524
g57
(g58
g59
NtRp525
(dp526
g62
(dp527
g70
I3
ssg71
g521
sg64
(lp528
S''
asbasbasbag57
(g73
g59
NtRp529
(dp530
g62
(dp531
sg71
g465
sg64
(lp532
g57
(g78
g59
NtRp533
(dp534
g62
(dp535
g82
g83
ssg71
g529
sg64
(lp536
g347
asbag57
(g78
g59
NtRp537
(dp538
g62
(dp539
g89
g90
ssg71
g529
sg64
(lp540
S':'
asbag57
(g78
g59
NtRp541
(dp542
g62
(dp543
sg71
g529
sg64
(lp544
g57
(g58
g59
NtRp545
(dp546
g62
(dp547
g70
I3
ssg71
g541
sg64
(lp548
S''
asbasbasbag57
(g73
g59
NtRp549
(dp550
g62
(dp551
sg71
g465
sg64
(lp552
g57
(g78
g59
NtRp553
(dp554
g62
(dp555
g82
g83
ssg71
g549
sg64
(lp556
g368
asbag57
(g78
g59
NtRp557
(dp558
g62
(dp559
g89
g90
ssg71
g549
sg64
(lp560
S':'
asbag57
(g78
g59
NtRp561
(dp562
g62
(dp563
sg71
g549
sg64
(lp564
g57
(g58
g59
NtRp565
(dp566
g62
(dp567
g70
I3
ssg71
g561
sg64
(lp568
S''
asbasbasbag57
(g73
g59
NtRp569
(dp570
g62
(dp571
sg71
g465
sg64
(lp572
g57
(g78
g59
NtRp573
(dp574
g62
(dp575
g82
g83
ssg71
g569
sg64
(lp576
g389
asbag57
(g78
g59
NtRp577
(dp578
g62
(dp579
g89
g90
ssg71
g569
sg64
(lp580
S':'
asbag57
(g78
g59
NtRp581
(dp582
g62
(dp583
sg71
g569
sg64
(lp584
g57
(g58
g59
NtRp585
(dp586
g62
(dp587
g70
I3
ssg71
g581
sg64
(lp588
S''
asbasbasbag57
(g73
g59
NtRp589
(dp590
g62
(dp591
sg71
g465
sg64
(lp592
g57
(g78
g59
NtRp593
(dp594
g62
(dp595
g82
g83
ssg71
g589
sg64
(lp596
g410
asbag57
(g78
g59
NtRp597
(dp598
g62
(dp599
g89
g90
ssg71
g589
sg64
(lp600
S':'
asbag57
(g78
g59
NtRp601
(dp602
g62
(dp603
sg71
g589
sg64
(lp604
g57
(g58
g59
NtRp605
(dp606
g62
(dp607
g70
I3
ssg71
g601
sg64
(lp608
S''
asbasbasbag57
(g73
g59
NtRp609
(dp610
g62
(dp611
sg71
g465
sg64
(lp612
g57
(g78
g59
NtRp613
(dp614
g62
(dp615
g82
g83
ssg71
g609
sg64
(lp616
g431
asbag57
(g78
g59
NtRp617
(dp618
g62
(dp619
g89
g90
ssg71
g609
sg64
(lp620
S':'
asbag57
(g78
g59
NtRp621
(dp622
g62
(dp623
sg71
g609
sg64
(lp624
g57
(g58
g59
NtRp625
(dp626
g62
(dp627
g70
I3
ssg71
g621
sg64
(lp628
S''
asbasbasbasbasbasbasbag57
(g73
g59
NtRp629
(dp630
g62
(dp631
sg71
g247
sg64
(lp632
g57
(g78
g59
NtRp633
(dp634
g62
(dp635
g82
g83
ssg71
g629
sg64
(lp636
S'session_id_welcome'
p637
asbag57
(g78
g59
NtRp638
(dp639
g62
(dp640
g89
g90
ssg71
g629
sg64
(lp641
S':'
asbag57
(g78
g59
NtRp642
(dp643
g62
(dp644
sg71
g629
sg64
(lp645
g57
(g58
g59
NtRp646
(dp647
g62
(dp648
g70
I4
ssg71
g642
sg64
(lp649
g57
(g66
g59
NtRp650
(dp651
g62
(dp652
g70
I3
ssg71
Nsg64
(lp653
g57
(g73
g59
NtRp654
(dp655
g62
(dp656
sg71
g650
sg64
(lp657
g57
(g78
g59
NtRp658
(dp659
g62
(dp660
g82
g83
ssg71
g654
sg64
(lp661
g284
asbag57
(g78
g59
NtRp662
(dp663
g62
(dp664
g89
g90
ssg71
g654
sg64
(lp665
S':'
asbag57
(g78
g59
NtRp666
(dp667
g62
(dp668
sg71
g654
sg64
(lp669
g57
(g58
g59
NtRp670
(dp671
g62
(dp672
g70
I3
ssg71
g666
sg64
(lp673
S''
asbasbasbag57
(g73
g59
NtRp674
(dp675
g62
(dp676
sg71
g650
sg64
(lp677
g57
(g78
g59
NtRp678
(dp679
g62
(dp680
g82
g83
ssg71
g674
sg64
(lp681
g305
asbag57
(g78
g59
NtRp682
(dp683
g62
(dp684
g89
g90
ssg71
g674
sg64
(lp685
S':'
asbag57
(g78
g59
NtRp686
(dp687
g62
(dp688
sg71
g674
sg64
(lp689
g57
(g58
g59
NtRp690
(dp691
g62
(dp692
g70
I3
ssg71
g686
sg64
(lp693
S''
asbasbasbag57
(g73
g59
NtRp694
(dp695
g62
(dp696
sg71
g650
sg64
(lp697
g57
(g78
g59
NtRp698
(dp699
g62
(dp700
g82
g83
ssg71
g694
sg64
(lp701
g326
asbag57
(g78
g59
NtRp702
(dp703
g62
(dp704
g89
g90
ssg71
g694
sg64
(lp705
S':'
asbag57
(g78
g59
NtRp706
(dp707
g62
(dp708
sg71
g694
sg64
(lp709
g57
(g58
g59
NtRp710
(dp711
g62
(dp712
g70
I3
ssg71
g706
sg64
(lp713
S''
asbasbasbag57
(g73
g59
NtRp714
(dp715
g62
(dp716
sg71
g650
sg64
(lp717
g57
(g78
g59
NtRp718
(dp719
g62
(dp720
g82
g83
ssg71
g714
sg64
(lp721
g347
asbag57
(g78
g59
NtRp722
(dp723
g62
(dp724
g89
g90
ssg71
g714
sg64
(lp725
S':'
asbag57
(g78
g59
NtRp726
(dp727
g62
(dp728
sg71
g714
sg64
(lp729
g57
(g58
g59
NtRp730
(dp731
g62
(dp732
g70
I3
ssg71
g726
sg64
(lp733
S''
asbasbasbag57
(g73
g59
NtRp734
(dp735
g62
(dp736
sg71
g650
sg64
(lp737
g57
(g78
g59
NtRp738
(dp739
g62
(dp740
g82
g83
ssg71
g734
sg64
(lp741
g368
asbag57
(g78
g59
NtRp742
(dp743
g62
(dp744
g89
g90
ssg71
g734
sg64
(lp745
S':'
asbag57
(g78
g59
NtRp746
(dp747
g62
(dp748
sg71
g734
sg64
(lp749
g57
(g58
g59
NtRp750
(dp751
g62
(dp752
g70
I3
ssg71
g746
sg64
(lp753
S''
asbasbasbag57
(g73
g59
NtRp754
(dp755
g62
(dp756
sg71
g650
sg64
(lp757
g57
(g78
g59
NtRp758
(dp759
g62
(dp760
g82
g83
ssg71
g754
sg64
(lp761
g389
asbag57
(g78
g59
NtRp762
(dp763
g62
(dp764
g89
g90
ssg71
g754
sg64
(lp765
S':'
asbag57
(g78
g59
NtRp766
(dp767
g62
(dp768
sg71
g754
sg64
(lp769
g57
(g58
g59
NtRp770
(dp771
g62
(dp772
g70
I3
ssg71
g766
sg64
(lp773
S''
asbasbasbag57
(g73
g59
NtRp774
(dp775
g62
(dp776
sg71
g650
sg64
(lp777
g57
(g78
g59
NtRp778
(dp779
g62
(dp780
g82
g83
ssg71
g774
sg64
(lp781
g410
asbag57
(g78
g59
NtRp782
(dp783
g62
(dp784
g89
g90
ssg71
g774
sg64
(lp785
S':'
asbag57
(g78
g59
NtRp786
(dp787
g62
(dp788
sg71
g774
sg64
(lp789
g57
(g58
g59
NtRp790
(dp791
g62
(dp792
g70
I3
ssg71
g786
sg64
(lp793
S''
asbasbasbag57
(g73
g59
NtRp794
(dp795
g62
(dp796
sg71
g650
sg64
(lp797
g57
(g78
g59
NtRp798
(dp799
g62
(dp800
g82
g83
ssg71
g794
sg64
(lp801
g431
asbag57
(g78
g59
NtRp802
(dp803
g62
(dp804
g89
g90
ssg71
g794
sg64
(lp805
S':'
asbag57
(g78
g59
NtRp806
(dp807
g62
(dp808
sg71
g794
sg64
(lp809
g57
(g58
g59
NtRp810
(dp811
g62
(dp812
g70
I3
ssg71
g806
sg64
(lp813
S''
asbasbasbasbasbasbasbasbasbasbasbag57
(g73
g59
NtRp814
(dp815
g62
(dp816
sg71
g67
sg64
(lp817
g57
(g78
g59
NtRp818
(dp819
g62
(dp820
g82
g83
ssg71
g814
sg64
(lp821
S'env'
p822
asbag57
(g78
g59
NtRp823
(dp824
g62
(dp825
g89
g90
ssg71
g814
sg64
(lp826
S':'
asbag57
(g78
g59
NtRp827
(dp828
g62
(dp829
sg71
g814
sg64
(lp830
g57
(g58
g59
NtRp831
(dp832
g62
(dp833
g70
I5
ssg71
g827
sg64
(lp834
g57
(g66
g59
NtRp835
(dp836
g62
(dp837
g70
I4
ssg71
Nsg64
(lp838
g57
(g73
g59
NtRp839
(dp840
g62
(dp841
sg71
g835
sg64
(lp842
g57
(g78
g59
NtRp843
(dp844
g62
(dp845
g82
g83
ssg71
g839
sg64
(lp846
S'app_folders'
p847
asbag57
(g78
g59
NtRp848
(dp849
g62
(dp850
g89
g90
ssg71
g839
sg64
(lp851
S':'
asbag57
(g78
g59
NtRp852
(dp853
g62
(dp854
sg71
g839
sg64
(lp855
g57
(g58
g59
NtRp856
(dp857
g62
(dp858
g70
I4
ssg71
g852
sg64
(lp859
S"set(['c:\\\\Users\\\\rochacbruno\\\\aula7_mar12\\\\web2py\\\\applications\\\\loja\\\\'])"
p860
asbasbasbag57
(g73
g59
NtRp861
(dp862
g62
(dp863
sg71
g835
sg64
(lp864
g57
(g78
g59
NtRp865
(dp866
g62
(dp867
g82
g83
ssg71
g861
sg64
(lp868
S'applications_parent'
p869
asbag57
(g78
g59
NtRp870
(dp871
g62
(dp872
g89
g90
ssg71
g861
sg64
(lp873
S':'
asbag57
(g78
g59
NtRp874
(dp875
g62
(dp876
sg71
g861
sg64
(lp877
g57
(g58
g59
NtRp878
(dp879
g62
(dp880
g70
I4
ssg71
g874
sg64
(lp881
S'c:\\Users\\rochacbruno\\aula7_mar12\\web2py'
p882
asbasbasbag57
(g73
g59
NtRp883
(dp884
g62
(dp885
sg71
g835
sg64
(lp886
g57
(g78
g59
NtRp887
(dp888
g62
(dp889
g82
g83
ssg71
g883
sg64
(lp890
S'cmd_args'
p891
asbag57
(g78
g59
NtRp892
(dp893
g62
(dp894
g89
g90
ssg71
g883
sg64
(lp895
S':'
asbag57
(g78
g59
NtRp896
(dp897
g62
(dp898
sg71
g883
sg64
(lp899
g57
(g58
g59
NtRp900
(dp901
g62
(dp902
g70
I4
ssg71
g896
sg64
(lp903
g57
(g66
g59
NtRp904
(dp905
g62
(dp906
g70
I3
ssg71
Nsg64
(lp907
sbasbasbasbag57
(g73
g59
NtRp908
(dp909
g62
(dp910
sg71
g835
sg64
(lp911
g57
(g78
g59
NtRp912
(dp913
g62
(dp914
g82
g83
ssg71
g908
sg64
(lp915
S'cmd_options'
p916
asbag57
(g78
g59
NtRp917
(dp918
g62
(dp919
g89
g90
ssg71
g908
sg64
(lp920
S':'
asbag57
(g78
g59
NtRp921
(dp922
g62
(dp923
sg71
g908
sg64
(lp924
g57
(g58
g59
NtRp925
(dp926
g62
(dp927
g70
I4
ssg71
g921
sg64
(lp928
S"<Values at 0x263e788: {'verbose': False, 'ip': '0.0.0.0', 'shutdown_timeout': 5, 'taskbar': False, 'nocron': True, 'pid_filename': 'httpserver.pid', 'maxthreads': None, 'softcron': False, 'server_name': 'rochacbruno-HP', 'bpython': False, 'nogui': False, 'port': 8000, 'extcron': False, 'debuglevel': 30, 'test': None, 'folder': 'c:\\\\Users\\\\rochacbruno\\\\aula7_mar12\\\\web2py', 'config': '', 'import_models': False, 'winservice': '', 'shell': None, 'run': '', 'log_filename': 'httpserver.log', 'args': [''], 'socket_timeout': 5, 'ssl_ca_certificate': None, 'scheduler': None, 'profiler_filename': None, 'ssl_private_key': '', 'password': '1234', 'request_queue_size': 5, 'ssl_certificate': '', 'cronjob': False, 'numthreads': None, 'quiet': False, 'interfaces': None, 'minthreads': None, 'timeout': 10, 'plain': False, 'nobanner': False}>"
p929
asbasbasbag57
(g73
g59
NtRp930
(dp931
g62
(dp932
sg71
g835
sg64
(lp933
g57
(g78
g59
NtRp934
(dp935
g62
(dp936
g82
g83
ssg71
g930
sg64
(lp937
S'db_sessions'
p938
asbag57
(g78
g59
NtRp939
(dp940
g62
(dp941
g89
g90
ssg71
g930
sg64
(lp942
S':'
asbag57
(g78
g59
NtRp943
(dp944
g62
(dp945
sg71
g930
sg64
(lp946
g57
(g58
g59
NtRp947
(dp948
g62
(dp949
g70
I4
ssg71
g943
sg64
(lp950
S'set([])'
p951
asbasbasbag57
(g73
g59
NtRp952
(dp953
g62
(dp954
sg71
g835
sg64
(lp955
g57
(g78
g59
NtRp956
(dp957
g62
(dp958
g82
g83
ssg71
g952
sg64
(lp959
S'debugging'
p960
asbag57
(g78
g59
NtRp961
(dp962
g62
(dp963
g89
g90
ssg71
g952
sg64
(lp964
S':'
asbag57
(g78
g59
NtRp965
(dp966
g62
(dp967
sg71
g952
sg64
(lp968
g57
(g58
g59
NtRp969
(dp970
g62
(dp971
g70
I4
ssg71
g965
sg64
(lp972
g100
asbasbasbag57
(g73
g59
NtRp973
(dp974
g62
(dp975
sg71
g835
sg64
(lp976
g57
(g78
g59
NtRp977
(dp978
g62
(dp979
g82
g83
ssg71
g973
sg64
(lp980
S'gluon_parent'
p981
asbag57
(g78
g59
NtRp982
(dp983
g62
(dp984
g89
g90
ssg71
g973
sg64
(lp985
S':'
asbag57
(g78
g59
NtRp986
(dp987
g62
(dp988
sg71
g973
sg64
(lp989
g57
(g58
g59
NtRp990
(dp991
g62
(dp992
g70
I4
ssg71
g986
sg64
(lp993
S'c:\\Users\\rochacbruno\\aula7_mar12\\web2py'
p994
asbasbasbag57
(g73
g59
NtRp995
(dp996
g62
(dp997
sg71
g835
sg64
(lp998
g57
(g78
g59
NtRp999
(dp1000
g62
(dp1001
g82
g83
ssg71
g995
sg64
(lp1002
S'http_accept'
p1003
asbag57
(g78
g59
NtRp1004
(dp1005
g62
(dp1006
g89
g90
ssg71
g995
sg64
(lp1007
S':'
asbag57
(g78
g59
NtRp1008
(dp1009
g62
(dp1010
sg71
g995
sg64
(lp1011
g57
(g58
g59
NtRp1012
(dp1013
g62
(dp1014
g70
I4
ssg71
g1008
sg64
(lp1015
S'text/html,application/xhtml+xml,application/xml;q=0.9,*/*;q=0.8'
p1016
asbasbasbag57
(g73
g59
NtRp1017
(dp1018
g62
(dp1019
sg71
g835
sg64
(lp1020
g57
(g78
g59
NtRp1021
(dp1022
g62
(dp1023
g82
g83
ssg71
g1017
sg64
(lp1024
S'http_accept_encoding'
p1025
asbag57
(g78
g59
NtRp1026
(dp1027
g62
(dp1028
g89
g90
ssg71
g1017
sg64
(lp1029
S':'
asbag57
(g78
g59
NtRp1030
(dp1031
g62
(dp1032
sg71
g1017
sg64
(lp1033
g57
(g58
g59
NtRp1034
(dp1035
g62
(dp1036
g70
I4
ssg71
g1030
sg64
(lp1037
S'gzip, deflate'
p1038
asbasbasbag57
(g73
g59
NtRp1039
(dp1040
g62
(dp1041
sg71
g835
sg64
(lp1042
g57
(g78
g59
NtRp1043
(dp1044
g62
(dp1045
g82
g83
ssg71
g1039
sg64
(lp1046
S'http_accept_language'
p1047
asbag57
(g78
g59
NtRp1048
(dp1049
g62
(dp1050
g89
g90
ssg71
g1039
sg64
(lp1051
S':'
asbag57
(g78
g59
NtRp1052
(dp1053
g62
(dp1054
sg71
g1039
sg64
(lp1055
g57
(g58
g59
NtRp1056
(dp1057
g62
(dp1058
g70
I4
ssg71
g1052
sg64
(lp1059
S'pt-br,en;q=0.8,pt;q=0.5,en-us;q=0.3'
p1060
asbasbasbag57
(g73
g59
NtRp1061
(dp1062
g62
(dp1063
sg71
g835
sg64
(lp1064
g57
(g78
g59
NtRp1065
(dp1066
g62
(dp1067
g82
g83
ssg71
g1061
sg64
(lp1068
S'http_connection'
p1069
asbag57
(g78
g59
NtRp1070
(dp1071
g62
(dp1072
g89
g90
ssg71
g1061
sg64
(lp1073
S':'
asbag57
(g78
g59
NtRp1074
(dp1075
g62
(dp1076
sg71
g1061
sg64
(lp1077
g57
(g58
g59
NtRp1078
(dp1079
g62
(dp1080
g70
I4
ssg71
g1074
sg64
(lp1081
S'keep-alive'
p1082
asbasbasbag57
(g73
g59
NtRp1083
(dp1084
g62
(dp1085
sg71
g835
sg64
(lp1086
g57
(g78
g59
NtRp1087
(dp1088
g62
(dp1089
g82
g83
ssg71
g1083
sg64
(lp1090
S'http_cookie'
p1091
asbag57
(g78
g59
NtRp1092
(dp1093
g62
(dp1094
g89
g90
ssg71
g1083
sg64
(lp1095
S':'
asbag57
(g78
g59
NtRp1096
(dp1097
g62
(dp1098
sg71
g1083
sg64
(lp1099
g57
(g58
g59
NtRp1100
(dp1101
g62
(dp1102
g70
I4
ssg71
g1096
sg64
(lp1103
S'session_id_welcome=127.0.0.1-86a3bae0-9ce1-46de-b4d1-57b3672f2f5d; session_id_admin=127.0.0.1-68d4c57c-9ce2-48ee-b07a-7d93559d37cd; session_id_loja=127.0.0.1-4cf5e95c-6c9f-4460-af19-e96eec5bd591'
p1104
asbasbasbag57
(g73
g59
NtRp1105
(dp1106
g62
(dp1107
sg71
g835
sg64
(lp1108
g57
(g78
g59
NtRp1109
(dp1110
g62
(dp1111
g82
g83
ssg71
g1105
sg64
(lp1112
S'http_host'
p1113
asbag57
(g78
g59
NtRp1114
(dp1115
g62
(dp1116
g89
g90
ssg71
g1105
sg64
(lp1117
S':'
asbag57
(g78
g59
NtRp1118
(dp1119
g62
(dp1120
sg71
g1105
sg64
(lp1121
g57
(g58
g59
NtRp1122
(dp1123
g62
(dp1124
g70
I4
ssg71
g1118
sg64
(lp1125
S'localhost:8000'
p1126
asbasbasbag57
(g73
g59
NtRp1127
(dp1128
g62
(dp1129
sg71
g835
sg64
(lp1130
g57
(g78
g59
NtRp1131
(dp1132
g62
(dp1133
g82
g83
ssg71
g1127
sg64
(lp1134
S'http_user_agent'
p1135
asbag57
(g78
g59
NtRp1136
(dp1137
g62
(dp1138
g89
g90
ssg71
g1127
sg64
(lp1139
S':'
asbag57
(g78
g59
NtRp1140
(dp1141
g62
(dp1142
sg71
g1127
sg64
(lp1143
g57
(g58
g59
NtRp1144
(dp1145
g62
(dp1146
g70
I4
ssg71
g1140
sg64
(lp1147
S'Mozilla/5.0 (Windows NT 6.1; rv:11.0) Gecko/20100101 Firefox/11.0'
p1148
asbasbasbag57
(g73
g59
NtRp1149
(dp1150
g62
(dp1151
sg71
g835
sg64
(lp1152
g57
(g78
g59
NtRp1153
(dp1154
g62
(dp1155
g82
g83
ssg71
g1149
sg64
(lp1156
S'is_jython'
p1157
asbag57
(g78
g59
NtRp1158
(dp1159
g62
(dp1160
g89
g90
ssg71
g1149
sg64
(lp1161
S':'
asbag57
(g78
g59
NtRp1162
(dp1163
g62
(dp1164
sg71
g1149
sg64
(lp1165
g57
(g58
g59
NtRp1166
(dp1167
g62
(dp1168
g70
I4
ssg71
g1162
sg64
(lp1169
g100
asbasbasbag57
(g73
g59
NtRp1170
(dp1171
g62
(dp1172
sg71
g835
sg64
(lp1173
g57
(g78
g59
NtRp1174
(dp1175
g62
(dp1176
g82
g83
ssg71
g1170
sg64
(lp1177
S'is_pypy'
p1178
asbag57
(g78
g59
NtRp1179
(dp1180
g62
(dp1181
g89
g90
ssg71
g1170
sg64
(lp1182
S':'
asbag57
(g78
g59
NtRp1183
(dp1184
g62
(dp1185
sg71
g1170
sg64
(lp1186
g57
(g58
g59
NtRp1187
(dp1188
g62
(dp1189
g70
I4
ssg71
g1183
sg64
(lp1190
g100
asbasbasbag57
(g73
g59
NtRp1191
(dp1192
g62
(dp1193
sg71
g835
sg64
(lp1194
g57
(g78
g59
NtRp1195
(dp1196
g62
(dp1197
g82
g83
ssg71
g1191
sg64
(lp1198
S'path_info'
p1199
asbag57
(g78
g59
NtRp1200
(dp1201
g62
(dp1202
g89
g90
ssg71
g1191
sg64
(lp1203
S':'
asbag57
(g78
g59
NtRp1204
(dp1205
g62
(dp1206
sg71
g1191
sg64
(lp1207
g57
(g58
g59
NtRp1208
(dp1209
g62
(dp1210
g70
I4
ssg71
g1204
sg64
(lp1211
S'/loja/produto/exibir/45'
p1212
asbasbasbag57
(g73
g59
NtRp1213
(dp1214
g62
(dp1215
sg71
g835
sg64
(lp1216
g57
(g78
g59
NtRp1217
(dp1218
g62
(dp1219
g82
g83
ssg71
g1213
sg64
(lp1220
S'query_string'
p1221
asbag57
(g78
g59
NtRp1222
(dp1223
g62
(dp1224
g89
g90
ssg71
g1213
sg64
(lp1225
S':'
asbag57
(g78
g59
NtRp1226
(dp1227
g62
(dp1228
sg71
g1213
sg64
(lp1229
g57
(g58
g59
NtRp1230
(dp1231
g62
(dp1232
g70
I4
ssg71
g1226
sg64
(lp1233
S''
asbasbasbag57
(g73
g59
NtRp1234
(dp1235
g62
(dp1236
sg71
g835
sg64
(lp1237
g57
(g78
g59
NtRp1238
(dp1239
g62
(dp1240
g82
g83
ssg71
g1234
sg64
(lp1241
S'remote_addr'
p1242
asbag57
(g78
g59
NtRp1243
(dp1244
g62
(dp1245
g89
g90
ssg71
g1234
sg64
(lp1246
S':'
asbag57
(g78
g59
NtRp1247
(dp1248
g62
(dp1249
sg71
g1234
sg64
(lp1250
g57
(g58
g59
NtRp1251
(dp1252
g62
(dp1253
g70
I4
ssg71
g1247
sg64
(lp1254
g203
asbasbasbag57
(g73
g59
NtRp1255
(dp1256
g62
(dp1257
sg71
g835
sg64
(lp1258
g57
(g78
g59
NtRp1259
(dp1260
g62
(dp1261
g82
g83
ssg71
g1255
sg64
(lp1262
S'remote_port'
p1263
asbag57
(g78
g59
NtRp1264
(dp1265
g62
(dp1266
g89
g90
ssg71
g1255
sg64
(lp1267
S':'
asbag57
(g78
g59
NtRp1268
(dp1269
g62
(dp1270
sg71
g1255
sg64
(lp1271
g57
(g58
g59
NtRp1272
(dp1273
g62
(dp1274
g70
I4
ssg71
g1268
sg64
(lp1275
S'49856'
p1276
asbasbasbag57
(g73
g59
NtRp1277
(dp1278
g62
(dp1279
sg71
g835
sg64
(lp1280
g57
(g78
g59
NtRp1281
(dp1282
g62
(dp1283
g82
g83
ssg71
g1277
sg64
(lp1284
S'request_method'
p1285
asbag57
(g78
g59
NtRp1286
(dp1287
g62
(dp1288
g89
g90
ssg71
g1277
sg64
(lp1289
S':'
asbag57
(g78
g59
NtRp1290
(dp1291
g62
(dp1292
sg71
g1277
sg64
(lp1293
g57
(g58
g59
NtRp1294
(dp1295
g62
(dp1296
g70
I4
ssg71
g1290
sg64
(lp1297
S'GET'
p1298
asbasbasbag57
(g73
g59
NtRp1299
(dp1300
g62
(dp1301
sg71
g835
sg64
(lp1302
g57
(g78
g59
NtRp1303
(dp1304
g62
(dp1305
g82
g83
ssg71
g1299
sg64
(lp1306
S'request_uri'
p1307
asbag57
(g78
g59
NtRp1308
(dp1309
g62
(dp1310
g89
g90
ssg71
g1299
sg64
(lp1311
S':'
asbag57
(g78
g59
NtRp1312
(dp1313
g62
(dp1314
sg71
g1299
sg64
(lp1315
g57
(g58
g59
NtRp1316
(dp1317
g62
(dp1318
g70
I4
ssg71
g1312
sg64
(lp1319
g1212
asbasbasbag57
(g73
g59
NtRp1320
(dp1321
g62
(dp1322
sg71
g835
sg64
(lp1323
g57
(g78
g59
NtRp1324
(dp1325
g62
(dp1326
g82
g83
ssg71
g1320
sg64
(lp1327
S'script_name'
p1328
asbag57
(g78
g59
NtRp1329
(dp1330
g62
(dp1331
g89
g90
ssg71
g1320
sg64
(lp1332
S':'
asbag57
(g78
g59
NtRp1333
(dp1334
g62
(dp1335
sg71
g1320
sg64
(lp1336
g57
(g58
g59
NtRp1337
(dp1338
g62
(dp1339
g70
I4
ssg71
g1333
sg64
(lp1340
S''
asbasbasbag57
(g73
g59
NtRp1341
(dp1342
g62
(dp1343
sg71
g835
sg64
(lp1344
g57
(g78
g59
NtRp1345
(dp1346
g62
(dp1347
g82
g83
ssg71
g1341
sg64
(lp1348
S'server_name'
p1349
asbag57
(g78
g59
NtRp1350
(dp1351
g62
(dp1352
g89
g90
ssg71
g1341
sg64
(lp1353
S':'
asbag57
(g78
g59
NtRp1354
(dp1355
g62
(dp1356
sg71
g1341
sg64
(lp1357
g57
(g58
g59
NtRp1358
(dp1359
g62
(dp1360
g70
I4
ssg71
g1354
sg64
(lp1361
S'rochacbruno-HP'
p1362
asbasbasbag57
(g73
g59
NtRp1363
(dp1364
g62
(dp1365
sg71
g835
sg64
(lp1366
g57
(g78
g59
NtRp1367
(dp1368
g62
(dp1369
g82
g83
ssg71
g1363
sg64
(lp1370
S'server_port'
p1371
asbag57
(g78
g59
NtRp1372
(dp1373
g62
(dp1374
g89
g90
ssg71
g1363
sg64
(lp1375
S':'
asbag57
(g78
g59
NtRp1376
(dp1377
g62
(dp1378
sg71
g1363
sg64
(lp1379
g57
(g58
g59
NtRp1380
(dp1381
g62
(dp1382
g70
I4
ssg71
g1376
sg64
(lp1383
S'8000'
p1384
asbasbasbag57
(g73
g59
NtRp1385
(dp1386
g62
(dp1387
sg71
g835
sg64
(lp1388
g57
(g78
g59
NtRp1389
(dp1390
g62
(dp1391
g82
g83
ssg71
g1385
sg64
(lp1392
S'server_protocol'
p1393
asbag57
(g78
g59
NtRp1394
(dp1395
g62
(dp1396
g89
g90
ssg71
g1385
sg64
(lp1397
S':'
asbag57
(g78
g59
NtRp1398
(dp1399
g62
(dp1400
sg71
g1385
sg64
(lp1401
g57
(g58
g59
NtRp1402
(dp1403
g62
(dp1404
g70
I4
ssg71
g1398
sg64
(lp1405
S'HTTP/1.1'
p1406
asbasbasbag57
(g73
g59
NtRp1407
(dp1408
g62
(dp1409
sg71
g835
sg64
(lp1410
g57
(g78
g59
NtRp1411
(dp1412
g62
(dp1413
g82
g83
ssg71
g1407
sg64
(lp1414
S'server_software'
p1415
asbag57
(g78
g59
NtRp1416
(dp1417
g62
(dp1418
g89
g90
ssg71
g1407
sg64
(lp1419
S':'
asbag57
(g78
g59
NtRp1420
(dp1421
g62
(dp1422
sg71
g1407
sg64
(lp1423
g57
(g58
g59
NtRp1424
(dp1425
g62
(dp1426
g70
I4
ssg71
g1420
sg64
(lp1427
S'Rocket 1.2.4'
p1428
asbasbasbag57
(g73
g59
NtRp1429
(dp1430
g62
(dp1431
sg71
g835
sg64
(lp1432
g57
(g78
g59
NtRp1433
(dp1434
g62
(dp1435
g82
g83
ssg71
g1429
sg64
(lp1436
S'web2py_original_uri'
p1437
asbag57
(g78
g59
NtRp1438
(dp1439
g62
(dp1440
g89
g90
ssg71
g1429
sg64
(lp1441
S':'
asbag57
(g78
g59
NtRp1442
(dp1443
g62
(dp1444
sg71
g1429
sg64
(lp1445
g57
(g58
g59
NtRp1446
(dp1447
g62
(dp1448
g70
I4
ssg71
g1442
sg64
(lp1449
g1212
asbasbasbag57
(g73
g59
NtRp1450
(dp1451
g62
(dp1452
sg71
g835
sg64
(lp1453
g57
(g78
g59
NtRp1454
(dp1455
g62
(dp1456
g82
g83
ssg71
g1450
sg64
(lp1457
S'web2py_path'
p1458
asbag57
(g78
g59
NtRp1459
(dp1460
g62
(dp1461
g89
g90
ssg71
g1450
sg64
(lp1462
S':'
asbag57
(g78
g59
NtRp1463
(dp1464
g62
(dp1465
sg71
g1450
sg64
(lp1466
g57
(g58
g59
NtRp1467
(dp1468
g62
(dp1469
g70
I4
ssg71
g1463
sg64
(lp1470
g882
asbasbasbag57
(g73
g59
NtRp1471
(dp1472
g62
(dp1473
sg71
g835
sg64
(lp1474
g57
(g78
g59
NtRp1475
(dp1476
g62
(dp1477
g82
g83
ssg71
g1471
sg64
(lp1478
S'web2py_version'
p1479
asbag57
(g78
g59
NtRp1480
(dp1481
g62
(dp1482
g89
g90
ssg71
g1471
sg64
(lp1483
S':'
asbag57
(g78
g59
NtRp1484
(dp1485
g62
(dp1486
sg71
g1471
sg64
(lp1487
g57
(g58
g59
NtRp1488
(dp1489
g62
(dp1490
g70
I4
ssg71
g1484
sg64
(lp1491
g57
(g66
g59
NtRp1492
(dp1493
g62
(dp1494
g70
I3
ssg71
Nsg64
(lp1495
g57
(g73
g59
NtRp1496
(dp1497
g62
(dp1498
sg71
g1492
sg64
(lp1499
g57
(g78
g59
NtRp1500
(dp1501
g62
(dp1502
sg71
g1496
sg64
(lp1503
g57
(g58
g59
NtRp1504
(dp1505
g62
(dp1506
g70
I3
ssg71
g1500
sg64
(lp1507
S'1'
asbasbasbag57
(g73
g59
NtRp1508
(dp1509
g62
(dp1510
sg71
g1492
sg64
(lp1511
g57
(g78
g59
NtRp1512
(dp1513
g62
(dp1514
sg71
g1508
sg64
(lp1515
g57
(g58
g59
NtRp1516
(dp1517
g62
(dp1518
g70
I3
ssg71
g1512
sg64
(lp1519
S'99'
p1520
asbasbasbag57
(g73
g59
NtRp1521
(dp1522
g62
(dp1523
sg71
g1492
sg64
(lp1524
g57
(g78
g59
NtRp1525
(dp1526
g62
(dp1527
sg71
g1521
sg64
(lp1528
g57
(g58
g59
NtRp1529
(dp1530
g62
(dp1531
g70
I3
ssg71
g1525
sg64
(lp1532
S'7'
asbasbasbag57
(g73
g59
NtRp1533
(dp1534
g62
(dp1535
sg71
g1492
sg64
(lp1536
g57
(g78
g59
NtRp1537
(dp1538
g62
(dp1539
sg71
g1533
sg64
(lp1540
g57
(g58
g59
NtRp1541
(dp1542
g62
(dp1543
g70
I3
ssg71
g1537
sg64
(lp1544
S'datetime.datetime(2012, 3, 4, 22, 12, 8)'
p1545
asbasbasbag57
(g73
g59
NtRp1546
(dp1547
g62
(dp1548
sg71
g1492
sg64
(lp1549
g57
(g78
g59
NtRp1550
(dp1551
g62
(dp1552
sg71
g1546
sg64
(lp1553
g57
(g58
g59
NtRp1554
(dp1555
g62
(dp1556
g70
I3
ssg71
g1550
sg64
(lp1557
S'stable'
p1558
asbasbasbasbasbasbasbag57
(g73
g59
NtRp1559
(dp1560
g62
(dp1561
sg71
g835
sg64
(lp1562
g57
(g78
g59
NtRp1563
(dp1564
g62
(dp1565
g82
g83
ssg71
g1559
sg64
(lp1566
S'wsgi_errors'
p1567
asbag57
(g78
g59
NtRp1568
(dp1569
g62
(dp1570
g89
g90
ssg71
g1559
sg64
(lp1571
S':'
asbag57
(g78
g59
NtRp1572
(dp1573
g62
(dp1574
sg71
g1559
sg64
(lp1575
g57
(g58
g59
NtRp1576
(dp1577
g62
(dp1578
g70
I4
ssg71
g1572
sg64
(lp1579
S"<open file '<stderr>', mode 'w' at 0x013350D0>"
p1580
asbasbasbag57
(g73
g59
NtRp1581
(dp1582
g62
(dp1583
sg71
g835
sg64
(lp1584
g57
(g78
g59
NtRp1585
(dp1586
g62
(dp1587
g82
g83
ssg71
g1581
sg64
(lp1588
S'wsgi_file_wrapper'
p1589
asbag57
(g78
g59
NtRp1590
(dp1591
g62
(dp1592
g89
g90
ssg71
g1581
sg64
(lp1593
S':'
asbag57
(g78
g59
NtRp1594
(dp1595
g62
(dp1596
sg71
g1581
sg64
(lp1597
g57
(g58
g59
NtRp1598
(dp1599
g62
(dp1600
g70
I4
ssg71
g1594
sg64
(lp1601
S'<class wsgiref.util.FileWrapper at 0x02576B20>'
p1602
asbasbasbag57
(g73
g59
NtRp1603
(dp1604
g62
(dp1605
sg71
g835
sg64
(lp1606
g57
(g78
g59
NtRp1607
(dp1608
g62
(dp1609
g82
g83
ssg71
g1603
sg64
(lp1610
S'wsgi_input'
p1611
asbag57
(g78
g59
NtRp1612
(dp1613
g62
(dp1614
g89
g90
ssg71
g1603
sg64
(lp1615
S':'
asbag57
(g78
g59
NtRp1616
(dp1617
g62
(dp1618
sg71
g1603
sg64
(lp1619
g57
(g58
g59
NtRp1620
(dp1621
g62
(dp1622
g70
I4
ssg71
g1616
sg64
(lp1623
S'<socket._fileobject object at 0x0263C730>'
p1624
asbasbasbag57
(g73
g59
NtRp1625
(dp1626
g62
(dp1627
sg71
g835
sg64
(lp1628
g57
(g78
g59
NtRp1629
(dp1630
g62
(dp1631
g82
g83
ssg71
g1625
sg64
(lp1632
S'wsgi_multiprocess'
p1633
asbag57
(g78
g59
NtRp1634
(dp1635
g62
(dp1636
g89
g90
ssg71
g1625
sg64
(lp1637
S':'
asbag57
(g78
g59
NtRp1638
(dp1639
g62
(dp1640
sg71
g1625
sg64
(lp1641
g57
(g58
g59
NtRp1642
(dp1643
g62
(dp1644
g70
I4
ssg71
g1638
sg64
(lp1645
g100
asbasbasbag57
(g73
g59
NtRp1646
(dp1647
g62
(dp1648
sg71
g835
sg64
(lp1649
g57
(g78
g59
NtRp1650
(dp1651
g62
(dp1652
g82
g83
ssg71
g1646
sg64
(lp1653
S'wsgi_multithread'
p1654
asbag57
(g78
g59
NtRp1655
(dp1656
g62
(dp1657
g89
g90
ssg71
g1646
sg64
(lp1658
S':'
asbag57
(g78
g59
NtRp1659
(dp1660
g62
(dp1661
sg71
g1646
sg64
(lp1662
g57
(g58
g59
NtRp1663
(dp1664
g62
(dp1665
g70
I4
ssg71
g1659
sg64
(lp1666
S'True'
p1667
asbasbasbag57
(g73
g59
NtRp1668
(dp1669
g62
(dp1670
sg71
g835
sg64
(lp1671
g57
(g78
g59
NtRp1672
(dp1673
g62
(dp1674
g82
g83
ssg71
g1668
sg64
(lp1675
S'wsgi_run_once'
p1676
asbag57
(g78
g59
NtRp1677
(dp1678
g62
(dp1679
g89
g90
ssg71
g1668
sg64
(lp1680
S':'
asbag57
(g78
g59
NtRp1681
(dp1682
g62
(dp1683
sg71
g1668
sg64
(lp1684
g57
(g58
g59
NtRp1685
(dp1686
g62
(dp1687
g70
I4
ssg71
g1681
sg64
(lp1688
g100
asbasbasbag57
(g73
g59
NtRp1689
(dp1690
g62
(dp1691
sg71
g835
sg64
(lp1692
g57
(g78
g59
NtRp1693
(dp1694
g62
(dp1695
g82
g83
ssg71
g1689
sg64
(lp1696
S'wsgi_url_scheme'
p1697
asbag57
(g78
g59
NtRp1698
(dp1699
g62
(dp1700
g89
g90
ssg71
g1689
sg64
(lp1701
S':'
asbag57
(g78
g59
NtRp1702
(dp1703
g62
(dp1704
sg71
g1689
sg64
(lp1705
g57
(g58
g59
NtRp1706
(dp1707
g62
(dp1708
g70
I4
ssg71
g1702
sg64
(lp1709
S'http'
p1710
asbasbasbag57
(g73
g59
NtRp1711
(dp1712
g62
(dp1713
sg71
g835
sg64
(lp1714
g57
(g78
g59
NtRp1715
(dp1716
g62
(dp1717
g82
g83
ssg71
g1711
sg64
(lp1718
S'wsgi_version'
p1719
asbag57
(g78
g59
NtRp1720
(dp1721
g62
(dp1722
g89
g90
ssg71
g1711
sg64
(lp1723
S':'
asbag57
(g78
g59
NtRp1724
(dp1725
g62
(dp1726
sg71
g1711
sg64
(lp1727
g57
(g58
g59
NtRp1728
(dp1729
g62
(dp1730
g70
I4
ssg71
g1724
sg64
(lp1731
g57
(g66
g59
NtRp1732
(dp1733
g62
(dp1734
g70
I3
ssg71
Nsg64
(lp1735
g57
(g73
g59
NtRp1736
(dp1737
g62
(dp1738
sg71
g1732
sg64
(lp1739
g57
(g78
g59
NtRp1740
(dp1741
g62
(dp1742
sg71
g1736
sg64
(lp1743
g57
(g58
g59
NtRp1744
(dp1745
g62
(dp1746
g70
I3
ssg71
g1740
sg64
(lp1747
S'1'
asbasbasbag57
(g73
g59
NtRp1748
(dp1749
g62
(dp1750
sg71
g1732
sg64
(lp1751
g57
(g78
g59
NtRp1752
(dp1753
g62
(dp1754
sg71
g1748
sg64
(lp1755
g57
(g58
g59
NtRp1756
(dp1757
g62
(dp1758
g70
I3
ssg71
g1752
sg64
(lp1759
S'0'
asbasbasbasbasbasbasbasbasbasbasbag57
(g73
g59
NtRp1760
(dp1761
g62
(dp1762
sg71
g67
sg64
(lp1763
g57
(g78
g59
NtRp1764
(dp1765
g62
(dp1766
g82
g83
ssg71
g1760
sg64
(lp1767
S'extension'
p1768
asbag57
(g78
g59
NtRp1769
(dp1770
g62
(dp1771
g89
g90
ssg71
g1760
sg64
(lp1772
S':'
asbag57
(g78
g59
NtRp1773
(dp1774
g62
(dp1775
sg71
g1760
sg64
(lp1776
g57
(g58
g59
NtRp1777
(dp1778
g62
(dp1779
g70
I5
ssg71
g1773
sg64
(lp1780
S'html'
p1781
asbasbasbag57
(g73
g59
NtRp1782
(dp1783
g62
(dp1784
sg71
g67
sg64
(lp1785
g57
(g78
g59
NtRp1786
(dp1787
g62
(dp1788
g82
g83
ssg71
g1782
sg64
(lp1789
S'folder'
p1790
asbag57
(g78
g59
NtRp1791
(dp1792
g62
(dp1793
g89
g90
ssg71
g1782
sg64
(lp1794
S':'
asbag57
(g78
g59
NtRp1795
(dp1796
g62
(dp1797
sg71
g1782
sg64
(lp1798
g57
(g58
g59
NtRp1799
(dp1800
g62
(dp1801
g70
I5
ssg71
g1795
sg64
(lp1802
S'c:\\Users\\rochacbruno\\aula7_mar12\\web2py\\applications\\loja\\'
p1803
asbasbasbag57
(g73
g59
NtRp1804
(dp1805
g62
(dp1806
sg71
g67
sg64
(lp1807
g57
(g78
g59
NtRp1808
(dp1809
g62
(dp1810
g82
g83
ssg71
g1804
sg64
(lp1811
S'function'
p1812
asbag57
(g78
g59
NtRp1813
(dp1814
g62
(dp1815
g89
g90
ssg71
g1804
sg64
(lp1816
S':'
asbag57
(g78
g59
NtRp1817
(dp1818
g62
(dp1819
sg71
g1804
sg64
(lp1820
g57
(g58
g59
NtRp1821
(dp1822
g62
(dp1823
g70
I5
ssg71
g1817
sg64
(lp1824
S'exibir'
p1825
asbasbasbag57
(g73
g59
NtRp1826
(dp1827
g62
(dp1828
sg71
g67
sg64
(lp1829
g57
(g78
g59
NtRp1830
(dp1831
g62
(dp1832
g82
g83
ssg71
g1826
sg64
(lp1833
S'get_vars'
p1834
asbag57
(g78
g59
NtRp1835
(dp1836
g62
(dp1837
g89
g90
ssg71
g1826
sg64
(lp1838
S':'
asbag57
(g78
g59
NtRp1839
(dp1840
g62
(dp1841
sg71
g1826
sg64
(lp1842
g57
(g58
g59
NtRp1843
(dp1844
g62
(dp1845
g70
I5
ssg71
g1839
sg64
(lp1846
g57
(g66
g59
NtRp1847
(dp1848
g62
(dp1849
g70
I4
ssg71
Nsg64
(lp1850
sbasbasbasbag57
(g73
g59
NtRp1851
(dp1852
g62
(dp1853
sg71
g67
sg64
(lp1854
g57
(g78
g59
NtRp1855
(dp1856
g62
(dp1857
g82
g83
ssg71
g1851
sg64
(lp1858
S'global_settings'
p1859
asbag57
(g78
g59
NtRp1860
(dp1861
g62
(dp1862
g89
g90
ssg71
g1851
sg64
(lp1863
S':'
asbag57
(g78
g59
NtRp1864
(dp1865
g62
(dp1866
sg71
g1851
sg64
(lp1867
g57
(g58
g59
NtRp1868
(dp1869
g62
(dp1870
g70
I5
ssg71
g1864
sg64
(lp1871
g57
(g66
g59
NtRp1872
(dp1873
g62
(dp1874
g70
I4
ssg71
Nsg64
(lp1875
g57
(g73
g59
NtRp1876
(dp1877
g62
(dp1878
sg71
g1872
sg64
(lp1879
g57
(g78
g59
NtRp1880
(dp1881
g62
(dp1882
g82
g83
ssg71
g1876
sg64
(lp1883
g847
asbag57
(g78
g59
NtRp1884
(dp1885
g62
(dp1886
g89
g90
ssg71
g1876
sg64
(lp1887
S':'
asbag57
(g78
g59
NtRp1888
(dp1889
g62
(dp1890
sg71
g1876
sg64
(lp1891
g57
(g58
g59
NtRp1892
(dp1893
g62
(dp1894
g70
I4
ssg71
g1888
sg64
(lp1895
S"set(['c:\\\\Users\\\\rochacbruno\\\\aula7_mar12\\\\web2py\\\\applications\\\\loja\\\\'])"
p1896
asbasbasbag57
(g73
g59
NtRp1897
(dp1898
g62
(dp1899
sg71
g1872
sg64
(lp1900
g57
(g78
g59
NtRp1901
(dp1902
g62
(dp1903
g82
g83
ssg71
g1897
sg64
(lp1904
g869
asbag57
(g78
g59
NtRp1905
(dp1906
g62
(dp1907
g89
g90
ssg71
g1897
sg64
(lp1908
S':'
asbag57
(g78
g59
NtRp1909
(dp1910
g62
(dp1911
sg71
g1897
sg64
(lp1912
g57
(g58
g59
NtRp1913
(dp1914
g62
(dp1915
g70
I4
ssg71
g1909
sg64
(lp1916
g882
asbasbasbag57
(g73
g59
NtRp1917
(dp1918
g62
(dp1919
sg71
g1872
sg64
(lp1920
g57
(g78
g59
NtRp1921
(dp1922
g62
(dp1923
g82
g83
ssg71
g1917
sg64
(lp1924
g891
asbag57
(g78
g59
NtRp1925
(dp1926
g62
(dp1927
g89
g90
ssg71
g1917
sg64
(lp1928
S':'
asbag57
(g78
g59
NtRp1929
(dp1930
g62
(dp1931
sg71
g1917
sg64
(lp1932
g57
(g58
g59
NtRp1933
(dp1934
g62
(dp1935
g70
I4
ssg71
g1929
sg64
(lp1936
g57
(g66
g59
NtRp1937
(dp1938
g62
(dp1939
g70
I3
ssg71
Nsg64
(lp1940
sbasbasbasbag57
(g73
g59
NtRp1941
(dp1942
g62
(dp1943
sg71
g1872
sg64
(lp1944
g57
(g78
g59
NtRp1945
(dp1946
g62
(dp1947
g82
g83
ssg71
g1941
sg64
(lp1948
g916
asbag57
(g78
g59
NtRp1949
(dp1950
g62
(dp1951
g89
g90
ssg71
g1941
sg64
(lp1952
S':'
asbag57
(g78
g59
NtRp1953
(dp1954
g62
(dp1955
sg71
g1941
sg64
(lp1956
g57
(g58
g59
NtRp1957
(dp1958
g62
(dp1959
g70
I4
ssg71
g1953
sg64
(lp1960
S"<Values at 0x263e788: {'verbose': False, 'ip': '0.0.0.0', 'shutdown_timeout': 5, 'taskbar': False, 'nocron': True, 'pid_filename': 'httpserver.pid', 'maxthreads': None, 'softcron': False, 'server_name': 'rochacbruno-HP', 'bpython': False, 'nogui': False, 'port': 8000, 'extcron': False, 'debuglevel': 30, 'test': None, 'folder': 'c:\\\\Users\\\\rochacbruno\\\\aula7_mar12\\\\web2py', 'config': '', 'import_models': False, 'winservice': '', 'shell': None, 'run': '', 'log_filename': 'httpserver.log', 'args': [''], 'socket_timeout': 5, 'ssl_ca_certificate': None, 'scheduler': None, 'profiler_filename': None, 'ssl_private_key': '', 'password': '1234', 'request_queue_size': 5, 'ssl_certificate': '', 'cronjob': False, 'numthreads': None, 'quiet': False, 'interfaces': None, 'minthreads': None, 'timeout': 10, 'plain': False, 'nobanner': False}>"
p1961
asbasbasbag57
(g73
g59
NtRp1962
(dp1963
g62
(dp1964
sg71
g1872
sg64
(lp1965
g57
(g78
g59
NtRp1966
(dp1967
g62
(dp1968
g82
g83
ssg71
g1962
sg64
(lp1969
g938
asbag57
(g78
g59
NtRp1970
(dp1971
g62
(dp1972
g89
g90
ssg71
g1962
sg64
(lp1973
S':'
asbag57
(g78
g59
NtRp1974
(dp1975
g62
(dp1976
sg71
g1962
sg64
(lp1977
g57
(g58
g59
NtRp1978
(dp1979
g62
(dp1980
g70
I4
ssg71
g1974
sg64
(lp1981
S'set([])'
p1982
asbasbasbag57
(g73
g59
NtRp1983
(dp1984
g62
(dp1985
sg71
g1872
sg64
(lp1986
g57
(g78
g59
NtRp1987
(dp1988
g62
(dp1989
g82
g83
ssg71
g1983
sg64
(lp1990
g960
asbag57
(g78
g59
NtRp1991
(dp1992
g62
(dp1993
g89
g90
ssg71
g1983
sg64
(lp1994
S':'
asbag57
(g78
g59
NtRp1995
(dp1996
g62
(dp1997
sg71
g1983
sg64
(lp1998
g57
(g58
g59
NtRp1999
(dp2000
g62
(dp2001
g70
I4
ssg71
g1995
sg64
(lp2002
g100
asbasbasbag57
(g73
g59
NtRp2003
(dp2004
g62
(dp2005
sg71
g1872
sg64
(lp2006
g57
(g78
g59
NtRp2007
(dp2008
g62
(dp2009
g82
g83
ssg71
g2003
sg64
(lp2010
g981
asbag57
(g78
g59
NtRp2011
(dp2012
g62
(dp2013
g89
g90
ssg71
g2003
sg64
(lp2014
S':'
asbag57
(g78
g59
NtRp2015
(dp2016
g62
(dp2017
sg71
g2003
sg64
(lp2018
g57
(g58
g59
NtRp2019
(dp2020
g62
(dp2021
g70
I4
ssg71
g2015
sg64
(lp2022
g994
asbasbasbag57
(g73
g59
NtRp2023
(dp2024
g62
(dp2025
sg71
g1872
sg64
(lp2026
g57
(g78
g59
NtRp2027
(dp2028
g62
(dp2029
g82
g83
ssg71
g2023
sg64
(lp2030
g1157
asbag57
(g78
g59
NtRp2031
(dp2032
g62
(dp2033
g89
g90
ssg71
g2023
sg64
(lp2034
S':'
asbag57
(g78
g59
NtRp2035
(dp2036
g62
(dp2037
sg71
g2023
sg64
(lp2038
g57
(g58
g59
NtRp2039
(dp2040
g62
(dp2041
g70
I4
ssg71
g2035
sg64
(lp2042
g100
asbasbasbag57
(g73
g59
NtRp2043
(dp2044
g62
(dp2045
sg71
g1872
sg64
(lp2046
g57
(g78
g59
NtRp2047
(dp2048
g62
(dp2049
g82
g83
ssg71
g2043
sg64
(lp2050
g1178
asbag57
(g78
g59
NtRp2051
(dp2052
g62
(dp2053
g89
g90
ssg71
g2043
sg64
(lp2054
S':'
asbag57
(g78
g59
NtRp2055
(dp2056
g62
(dp2057
sg71
g2043
sg64
(lp2058
g57
(g58
g59
NtRp2059
(dp2060
g62
(dp2061
g70
I4
ssg71
g2055
sg64
(lp2062
g100
asbasbasbag57
(g73
g59
NtRp2063
(dp2064
g62
(dp2065
sg71
g1872
sg64
(lp2066
g57
(g78
g59
NtRp2067
(dp2068
g62
(dp2069
g82
g83
ssg71
g2063
sg64
(lp2070
g1479
asbag57
(g78
g59
NtRp2071
(dp2072
g62
(dp2073
g89
g90
ssg71
g2063
sg64
(lp2074
S':'
asbag57
(g78
g59
NtRp2075
(dp2076
g62
(dp2077
sg71
g2063
sg64
(lp2078
g57
(g58
g59
NtRp2079
(dp2080
g62
(dp2081
g70
I4
ssg71
g2075
sg64
(lp2082
g57
(g66
g59
NtRp2083
(dp2084
g62
(dp2085
g70
I3
ssg71
Nsg64
(lp2086
g57
(g73
g59
NtRp2087
(dp2088
g62
(dp2089
sg71
g2083
sg64
(lp2090
g57
(g78
g59
NtRp2091
(dp2092
g62
(dp2093
sg71
g2087
sg64
(lp2094
g57
(g58
g59
NtRp2095
(dp2096
g62
(dp2097
g70
I3
ssg71
g2091
sg64
(lp2098
S'1'
asbasbasbag57
(g73
g59
NtRp2099
(dp2100
g62
(dp2101
sg71
g2083
sg64
(lp2102
g57
(g78
g59
NtRp2103
(dp2104
g62
(dp2105
sg71
g2099
sg64
(lp2106
g57
(g58
g59
NtRp2107
(dp2108
g62
(dp2109
g70
I3
ssg71
g2103
sg64
(lp2110
S'99'
p2111
asbasbasbag57
(g73
g59
NtRp2112
(dp2113
g62
(dp2114
sg71
g2083
sg64
(lp2115
g57
(g78
g59
NtRp2116
(dp2117
g62
(dp2118
sg71
g2112
sg64
(lp2119
g57
(g58
g59
NtRp2120
(dp2121
g62
(dp2122
g70
I3
ssg71
g2116
sg64
(lp2123
S'7'
asbasbasbag57
(g73
g59
NtRp2124
(dp2125
g62
(dp2126
sg71
g2083
sg64
(lp2127
g57
(g78
g59
NtRp2128
(dp2129
g62
(dp2130
sg71
g2124
sg64
(lp2131
g57
(g58
g59
NtRp2132
(dp2133
g62
(dp2134
g70
I3
ssg71
g2128
sg64
(lp2135
S'datetime.datetime(2012, 3, 4, 22, 12, 8)'
p2136
asbasbasbag57
(g73
g59
NtRp2137
(dp2138
g62
(dp2139
sg71
g2083
sg64
(lp2140
g57
(g78
g59
NtRp2141
(dp2142
g62
(dp2143
sg71
g2137
sg64
(lp2144
g57
(g58
g59
NtRp2145
(dp2146
g62
(dp2147
g70
I3
ssg71
g2141
sg64
(lp2148
g1558
asbasbasbasbasbasbasbasbasbasbasbag57
(g73
g59
NtRp2149
(dp2150
g62
(dp2151
sg71
g67
sg64
(lp2152
g57
(g78
g59
NtRp2153
(dp2154
g62
(dp2155
g82
g83
ssg71
g2149
sg64
(lp2156
S'is_https'
p2157
asbag57
(g78
g59
NtRp2158
(dp2159
g62
(dp2160
g89
g90
ssg71
g2149
sg64
(lp2161
S':'
asbag57
(g78
g59
NtRp2162
(dp2163
g62
(dp2164
sg71
g2149
sg64
(lp2165
g57
(g58
g59
NtRp2166
(dp2167
g62
(dp2168
g70
I5
ssg71
g2162
sg64
(lp2169
g100
asbasbasbag57
(g73
g59
NtRp2170
(dp2171
g62
(dp2172
sg71
g67
sg64
(lp2173
g57
(g78
g59
NtRp2174
(dp2175
g62
(dp2176
g82
g83
ssg71
g2170
sg64
(lp2177
S'is_local'
p2178
asbag57
(g78
g59
NtRp2179
(dp2180
g62
(dp2181
g89
g90
ssg71
g2170
sg64
(lp2182
S':'
asbag57
(g78
g59
NtRp2183
(dp2184
g62
(dp2185
sg71
g2170
sg64
(lp2186
g57
(g58
g59
NtRp2187
(dp2188
g62
(dp2189
g70
I5
ssg71
g2183
sg64
(lp2190
g1667
asbasbasbag57
(g73
g59
NtRp2191
(dp2192
g62
(dp2193
sg71
g67
sg64
(lp2194
g57
(g78
g59
NtRp2195
(dp2196
g62
(dp2197
g82
g83
ssg71
g2191
sg64
(lp2198
S'is_restful'
p2199
asbag57
(g78
g59
NtRp2200
(dp2201
g62
(dp2202
g89
g90
ssg71
g2191
sg64
(lp2203
S':'
asbag57
(g78
g59
NtRp2204
(dp2205
g62
(dp2206
sg71
g2191
sg64
(lp2207
g57
(g58
g59
NtRp2208
(dp2209
g62
(dp2210
g70
I5
ssg71
g2204
sg64
(lp2211
g100
asbasbasbag57
(g73
g59
NtRp2212
(dp2213
g62
(dp2214
sg71
g67
sg64
(lp2215
g57
(g78
g59
NtRp2216
(dp2217
g62
(dp2218
g82
g83
ssg71
g2212
sg64
(lp2219
S'now'
p2220
asbag57
(g78
g59
NtRp2221
(dp2222
g62
(dp2223
g89
g90
ssg71
g2212
sg64
(lp2224
S':'
asbag57
(g78
g59
NtRp2225
(dp2226
g62
(dp2227
sg71
g2212
sg64
(lp2228
g57
(g58
g59
NtRp2229
(dp2230
g62
(dp2231
g70
I5
ssg71
g2225
sg64
(lp2232
S'datetime.datetime(2012, 4, 12, 22, 4, 10, 866000)'
p2233
asbasbasbag57
(g73
g59
NtRp2234
(dp2235
g62
(dp2236
sg71
g67
sg64
(lp2237
g57
(g78
g59
NtRp2238
(dp2239
g62
(dp2240
g82
g83
ssg71
g2234
sg64
(lp2241
S'post_vars'
p2242
asbag57
(g78
g59
NtRp2243
(dp2244
g62
(dp2245
g89
g90
ssg71
g2234
sg64
(lp2246
S':'
asbag57
(g78
g59
NtRp2247
(dp2248
g62
(dp2249
sg71
g2234
sg64
(lp2250
g57
(g58
g59
NtRp2251
(dp2252
g62
(dp2253
g70
I5
ssg71
g2247
sg64
(lp2254
g57
(g66
g59
NtRp2255
(dp2256
g62
(dp2257
g70
I4
ssg71
Nsg64
(lp2258
sbasbasbasbag57
(g73
g59
NtRp2259
(dp2260
g62
(dp2261
sg71
g67
sg64
(lp2262
g57
(g78
g59
NtRp2263
(dp2264
g62
(dp2265
g82
g83
ssg71
g2259
sg64
(lp2266
S'raw_args'
p2267
asbag57
(g78
g59
NtRp2268
(dp2269
g62
(dp2270
g89
g90
ssg71
g2259
sg64
(lp2271
S':'
asbag57
(g78
g59
NtRp2272
(dp2273
g62
(dp2274
sg71
g2259
sg64
(lp2275
g57
(g58
g59
NtRp2276
(dp2277
g62
(dp2278
g70
I5
ssg71
g2272
sg64
(lp2279
g159
asbasbasbag57
(g73
g59
NtRp2280
(dp2281
g62
(dp2282
sg71
g67
sg64
(lp2283
g57
(g78
g59
NtRp2284
(dp2285
g62
(dp2286
g82
g83
ssg71
g2280
sg64
(lp2287
S'url'
p2288
asbag57
(g78
g59
NtRp2289
(dp2290
g62
(dp2291
g89
g90
ssg71
g2280
sg64
(lp2292
S':'
asbag57
(g78
g59
NtRp2293
(dp2294
g62
(dp2295
sg71
g2280
sg64
(lp2296
g57
(g58
g59
NtRp2297
(dp2298
g62
(dp2299
g70
I5
ssg71
g2293
sg64
(lp2300
S'/loja/produto/exibir/45'
p2301
asbasbasbag57
(g73
g59
NtRp2302
(dp2303
g62
(dp2304
sg71
g67
sg64
(lp2305
g57
(g78
g59
NtRp2306
(dp2307
g62
(dp2308
g82
g83
ssg71
g2302
sg64
(lp2309
S'utcnow'
p2310
asbag57
(g78
g59
NtRp2311
(dp2312
g62
(dp2313
g89
g90
ssg71
g2302
sg64
(lp2314
S':'
asbag57
(g78
g59
NtRp2315
(dp2316
g62
(dp2317
sg71
g2302
sg64
(lp2318
g57
(g58
g59
NtRp2319
(dp2320
g62
(dp2321
g70
I5
ssg71
g2315
sg64
(lp2322
S'datetime.datetime(2012, 4, 13, 1, 4, 10, 866000)'
p2323
asbasbasbag57
(g73
g59
NtRp2324
(dp2325
g62
(dp2326
sg71
g67
sg64
(lp2327
g57
(g78
g59
NtRp2328
(dp2329
g62
(dp2330
g82
g83
ssg71
g2324
sg64
(lp2331
S'uuid'
p2332
asbag57
(g78
g59
NtRp2333
(dp2334
g62
(dp2335
g89
g90
ssg71
g2324
sg64
(lp2336
S':'
asbag57
(g78
g59
NtRp2337
(dp2338
g62
(dp2339
sg71
g2324
sg64
(lp2340
g57
(g58
g59
NtRp2341
(dp2342
g62
(dp2343
g70
I5
ssg71
g2337
sg64
(lp2344
S'loja/127.0.0.1.2012-04-12.22-04-10.68d496e1-a6f0-4a4d-9a7e-b53917de2bf9'
p2345
asbasbasbag57
(g73
g59
NtRp2346
(dp2347
g62
(dp2348
sg71
g67
sg64
(lp2349
g57
(g78
g59
NtRp2350
(dp2351
g62
(dp2352
g82
g83
ssg71
g2346
sg64
(lp2353
S'vars'
p2354
asbag57
(g78
g59
NtRp2355
(dp2356
g62
(dp2357
g89
g90
ssg71
g2346
sg64
(lp2358
S':'
asbag57
(g78
g59
NtRp2359
(dp2360
g62
(dp2361
sg71
g2346
sg64
(lp2362
g57
(g58
g59
NtRp2363
(dp2364
g62
(dp2365
g70
I5
ssg71
g2359
sg64
(lp2366
g57
(g66
g59
NtRp2367
(dp2368
g62
(dp2369
g70
I4
ssg71
Nsg64
(lp2370
sbasbasbasbag57
(g73
g59
NtRp2371
(dp2372
g62
(dp2373
sg71
g67
sg64
(lp2374
g57
(g78
g59
NtRp2375
(dp2376
g62
(dp2377
g82
g83
ssg71
g2371
sg64
(lp2378
S'wsgi'
p2379
asbag57
(g78
g59
NtRp2380
(dp2381
g62
(dp2382
g89
g90
ssg71
g2371
sg64
(lp2383
S':'
asbag57
(g78
g59
NtRp2384
(dp2385
g62
(dp2386
sg71
g2371
sg64
(lp2387
g57
(g58
g59
NtRp2388
(dp2389
g62
(dp2390
g70
I5
ssg71
g2384
sg64
(lp2391
g57
(g66
g59
NtRp2392
(dp2393
g62
(dp2394
g70
I4
ssg71
Nsg64
(lp2395
g57
(g73
g59
NtRp2396
(dp2397
g62
(dp2398
sg71
g2392
sg64
(lp2399
g57
(g78
g59
NtRp2400
(dp2401
g62
(dp2402
g82
g83
ssg71
g2396
sg64
(lp2403
S'environ'
p2404
asbag57
(g78
g59
NtRp2405
(dp2406
g62
(dp2407
g89
g90
ssg71
g2396
sg64
(lp2408
S':'
asbag57
(g78
g59
NtRp2409
(dp2410
g62
(dp2411
sg71
g2396
sg64
(lp2412
g57
(g58
g59
NtRp2413
(dp2414
g62
(dp2415
g70
I4
ssg71
g2409
sg64
(lp2416
g57
(g66
g59
NtRp2417
(dp2418
g62
(dp2419
g70
I3
ssg71
Nsg64
(lp2420
g57
(g73
g59
NtRp2421
(dp2422
g62
(dp2423
sg71
g2417
sg64
(lp2424
g57
(g78
g59
NtRp2425
(dp2426
g62
(dp2427
g82
g83
ssg71
g2421
sg64
(lp2428
S'HTTP_ACCEPT'
p2429
asbag57
(g78
g59
NtRp2430
(dp2431
g62
(dp2432
g89
g90
ssg71
g2421
sg64
(lp2433
S':'
asbag57
(g78
g59
NtRp2434
(dp2435
g62
(dp2436
sg71
g2421
sg64
(lp2437
g57
(g58
g59
NtRp2438
(dp2439
g62
(dp2440
g70
I3
ssg71
g2434
sg64
(lp2441
g1016
asbasbasbag57
(g73
g59
NtRp2442
(dp2443
g62
(dp2444
sg71
g2417
sg64
(lp2445
g57
(g78
g59
NtRp2446
(dp2447
g62
(dp2448
g82
g83
ssg71
g2442
sg64
(lp2449
S'HTTP_ACCEPT_ENCODING'
p2450
asbag57
(g78
g59
NtRp2451
(dp2452
g62
(dp2453
g89
g90
ssg71
g2442
sg64
(lp2454
S':'
asbag57
(g78
g59
NtRp2455
(dp2456
g62
(dp2457
sg71
g2442
sg64
(lp2458
g57
(g58
g59
NtRp2459
(dp2460
g62
(dp2461
g70
I3
ssg71
g2455
sg64
(lp2462
g1038
asbasbasbag57
(g73
g59
NtRp2463
(dp2464
g62
(dp2465
sg71
g2417
sg64
(lp2466
g57
(g78
g59
NtRp2467
(dp2468
g62
(dp2469
g82
g83
ssg71
g2463
sg64
(lp2470
S'HTTP_ACCEPT_LANGUAGE'
p2471
asbag57
(g78
g59
NtRp2472
(dp2473
g62
(dp2474
g89
g90
ssg71
g2463
sg64
(lp2475
S':'
asbag57
(g78
g59
NtRp2476
(dp2477
g62
(dp2478
sg71
g2463
sg64
(lp2479
g57
(g58
g59
NtRp2480
(dp2481
g62
(dp2482
g70
I3
ssg71
g2476
sg64
(lp2483
g1060
asbasbasbag57
(g73
g59
NtRp2484
(dp2485
g62
(dp2486
sg71
g2417
sg64
(lp2487
g57
(g78
g59
NtRp2488
(dp2489
g62
(dp2490
g82
g83
ssg71
g2484
sg64
(lp2491
S'HTTP_CONNECTION'
p2492
asbag57
(g78
g59
NtRp2493
(dp2494
g62
(dp2495
g89
g90
ssg71
g2484
sg64
(lp2496
S':'
asbag57
(g78
g59
NtRp2497
(dp2498
g62
(dp2499
sg71
g2484
sg64
(lp2500
g57
(g58
g59
NtRp2501
(dp2502
g62
(dp2503
g70
I3
ssg71
g2497
sg64
(lp2504
g1082
asbasbasbag57
(g73
g59
NtRp2505
(dp2506
g62
(dp2507
sg71
g2417
sg64
(lp2508
g57
(g78
g59
NtRp2509
(dp2510
g62
(dp2511
g82
g83
ssg71
g2505
sg64
(lp2512
S'HTTP_COOKIE'
p2513
asbag57
(g78
g59
NtRp2514
(dp2515
g62
(dp2516
g89
g90
ssg71
g2505
sg64
(lp2517
S':'
asbag57
(g78
g59
NtRp2518
(dp2519
g62
(dp2520
sg71
g2505
sg64
(lp2521
g57
(g58
g59
NtRp2522
(dp2523
g62
(dp2524
g70
I3
ssg71
g2518
sg64
(lp2525
g1104
asbasbasbag57
(g73
g59
NtRp2526
(dp2527
g62
(dp2528
sg71
g2417
sg64
(lp2529
g57
(g78
g59
NtRp2530
(dp2531
g62
(dp2532
g82
g83
ssg71
g2526
sg64
(lp2533
S'HTTP_HOST'
p2534
asbag57
(g78
g59
NtRp2535
(dp2536
g62
(dp2537
g89
g90
ssg71
g2526
sg64
(lp2538
S':'
asbag57
(g78
g59
NtRp2539
(dp2540
g62
(dp2541
sg71
g2526
sg64
(lp2542
g57
(g58
g59
NtRp2543
(dp2544
g62
(dp2545
g70
I3
ssg71
g2539
sg64
(lp2546
g1126
asbasbasbag57
(g73
g59
NtRp2547
(dp2548
g62
(dp2549
sg71
g2417
sg64
(lp2550
g57
(g78
g59
NtRp2551
(dp2552
g62
(dp2553
g82
g83
ssg71
g2547
sg64
(lp2554
S'HTTP_USER_AGENT'
p2555
asbag57
(g78
g59
NtRp2556
(dp2557
g62
(dp2558
g89
g90
ssg71
g2547
sg64
(lp2559
S':'
asbag57
(g78
g59
NtRp2560
(dp2561
g62
(dp2562
sg71
g2547
sg64
(lp2563
g57
(g58
g59
NtRp2564
(dp2565
g62
(dp2566
g70
I3
ssg71
g2560
sg64
(lp2567
g1148
asbasbasbag57
(g73
g59
NtRp2568
(dp2569
g62
(dp2570
sg71
g2417
sg64
(lp2571
g57
(g78
g59
NtRp2572
(dp2573
g62
(dp2574
g82
g83
ssg71
g2568
sg64
(lp2575
S'PATH_INFO'
p2576
asbag57
(g78
g59
NtRp2577
(dp2578
g62
(dp2579
g89
g90
ssg71
g2568
sg64
(lp2580
S':'
asbag57
(g78
g59
NtRp2581
(dp2582
g62
(dp2583
sg71
g2568
sg64
(lp2584
g57
(g58
g59
NtRp2585
(dp2586
g62
(dp2587
g70
I3
ssg71
g2581
sg64
(lp2588
g1212
asbasbasbag57
(g73
g59
NtRp2589
(dp2590
g62
(dp2591
sg71
g2417
sg64
(lp2592
g57
(g78
g59
NtRp2593
(dp2594
g62
(dp2595
g82
g83
ssg71
g2589
sg64
(lp2596
S'QUERY_STRING'
p2597
asbag57
(g78
g59
NtRp2598
(dp2599
g62
(dp2600
g89
g90
ssg71
g2589
sg64
(lp2601
S':'
asbag57
(g78
g59
NtRp2602
(dp2603
g62
(dp2604
sg71
g2589
sg64
(lp2605
g57
(g58
g59
NtRp2606
(dp2607
g62
(dp2608
g70
I3
ssg71
g2602
sg64
(lp2609
S''
asbasbasbag57
(g73
g59
NtRp2610
(dp2611
g62
(dp2612
sg71
g2417
sg64
(lp2613
g57
(g78
g59
NtRp2614
(dp2615
g62
(dp2616
g82
g83
ssg71
g2610
sg64
(lp2617
S'REMOTE_ADDR'
p2618
asbag57
(g78
g59
NtRp2619
(dp2620
g62
(dp2621
g89
g90
ssg71
g2610
sg64
(lp2622
S':'
asbag57
(g78
g59
NtRp2623
(dp2624
g62
(dp2625
sg71
g2610
sg64
(lp2626
g57
(g58
g59
NtRp2627
(dp2628
g62
(dp2629
g70
I3
ssg71
g2623
sg64
(lp2630
g203
asbasbasbag57
(g73
g59
NtRp2631
(dp2632
g62
(dp2633
sg71
g2417
sg64
(lp2634
g57
(g78
g59
NtRp2635
(dp2636
g62
(dp2637
g82
g83
ssg71
g2631
sg64
(lp2638
S'REMOTE_PORT'
p2639
asbag57
(g78
g59
NtRp2640
(dp2641
g62
(dp2642
g89
g90
ssg71
g2631
sg64
(lp2643
S':'
asbag57
(g78
g59
NtRp2644
(dp2645
g62
(dp2646
sg71
g2631
sg64
(lp2647
g57
(g58
g59
NtRp2648
(dp2649
g62
(dp2650
g70
I3
ssg71
g2644
sg64
(lp2651
g1276
asbasbasbag57
(g73
g59
NtRp2652
(dp2653
g62
(dp2654
sg71
g2417
sg64
(lp2655
g57
(g78
g59
NtRp2656
(dp2657
g62
(dp2658
g82
g83
ssg71
g2652
sg64
(lp2659
S'REQUEST_METHOD'
p2660
asbag57
(g78
g59
NtRp2661
(dp2662
g62
(dp2663
g89
g90
ssg71
g2652
sg64
(lp2664
S':'
asbag57
(g78
g59
NtRp2665
(dp2666
g62
(dp2667
sg71
g2652
sg64
(lp2668
g57
(g58
g59
NtRp2669
(dp2670
g62
(dp2671
g70
I3
ssg71
g2665
sg64
(lp2672
g1298
asbasbasbag57
(g73
g59
NtRp2673
(dp2674
g62
(dp2675
sg71
g2417
sg64
(lp2676
g57
(g78
g59
NtRp2677
(dp2678
g62
(dp2679
g82
g83
ssg71
g2673
sg64
(lp2680
S'REQUEST_URI'
p2681
asbag57
(g78
g59
NtRp2682
(dp2683
g62
(dp2684
g89
g90
ssg71
g2673
sg64
(lp2685
S':'
asbag57
(g78
g59
NtRp2686
(dp2687
g62
(dp2688
sg71
g2673
sg64
(lp2689
g57
(g58
g59
NtRp2690
(dp2691
g62
(dp2692
g70
I3
ssg71
g2686
sg64
(lp2693
g1212
asbasbasbag57
(g73
g59
NtRp2694
(dp2695
g62
(dp2696
sg71
g2417
sg64
(lp2697
g57
(g78
g59
NtRp2698
(dp2699
g62
(dp2700
g82
g83
ssg71
g2694
sg64
(lp2701
S'SCRIPT_NAME'
p2702
asbag57
(g78
g59
NtRp2703
(dp2704
g62
(dp2705
g89
g90
ssg71
g2694
sg64
(lp2706
S':'
asbag57
(g78
g59
NtRp2707
(dp2708
g62
(dp2709
sg71
g2694
sg64
(lp2710
g57
(g58
g59
NtRp2711
(dp2712
g62
(dp2713
g70
I3
ssg71
g2707
sg64
(lp2714
S''
asbasbasbag57
(g73
g59
NtRp2715
(dp2716
g62
(dp2717
sg71
g2417
sg64
(lp2718
g57
(g78
g59
NtRp2719
(dp2720
g62
(dp2721
g82
g83
ssg71
g2715
sg64
(lp2722
S'SERVER_NAME'
p2723
asbag57
(g78
g59
NtRp2724
(dp2725
g62
(dp2726
g89
g90
ssg71
g2715
sg64
(lp2727
S':'
asbag57
(g78
g59
NtRp2728
(dp2729
g62
(dp2730
sg71
g2715
sg64
(lp2731
g57
(g58
g59
NtRp2732
(dp2733
g62
(dp2734
g70
I3
ssg71
g2728
sg64
(lp2735
g1362
asbasbasbag57
(g73
g59
NtRp2736
(dp2737
g62
(dp2738
sg71
g2417
sg64
(lp2739
g57
(g78
g59
NtRp2740
(dp2741
g62
(dp2742
g82
g83
ssg71
g2736
sg64
(lp2743
S'SERVER_PORT'
p2744
asbag57
(g78
g59
NtRp2745
(dp2746
g62
(dp2747
g89
g90
ssg71
g2736
sg64
(lp2748
S':'
asbag57
(g78
g59
NtRp2749
(dp2750
g62
(dp2751
sg71
g2736
sg64
(lp2752
g57
(g58
g59
NtRp2753
(dp2754
g62
(dp2755
g70
I3
ssg71
g2749
sg64
(lp2756
g1384
asbasbasbag57
(g73
g59
NtRp2757
(dp2758
g62
(dp2759
sg71
g2417
sg64
(lp2760
g57
(g78
g59
NtRp2761
(dp2762
g62
(dp2763
g82
g83
ssg71
g2757
sg64
(lp2764
S'SERVER_PROTOCOL'
p2765
asbag57
(g78
g59
NtRp2766
(dp2767
g62
(dp2768
g89
g90
ssg71
g2757
sg64
(lp2769
S':'
asbag57
(g78
g59
NtRp2770
(dp2771
g62
(dp2772
sg71
g2757
sg64
(lp2773
g57
(g58
g59
NtRp2774
(dp2775
g62
(dp2776
g70
I3
ssg71
g2770
sg64
(lp2777
g1406
asbasbasbag57
(g73
g59
NtRp2778
(dp2779
g62
(dp2780
sg71
g2417
sg64
(lp2781
g57
(g78
g59
NtRp2782
(dp2783
g62
(dp2784
g82
g83
ssg71
g2778
sg64
(lp2785
S'SERVER_SOFTWARE'
p2786
asbag57
(g78
g59
NtRp2787
(dp2788
g62
(dp2789
g89
g90
ssg71
g2778
sg64
(lp2790
S':'
asbag57
(g78
g59
NtRp2791
(dp2792
g62
(dp2793
sg71
g2778
sg64
(lp2794
g57
(g58
g59
NtRp2795
(dp2796
g62
(dp2797
g70
I3
ssg71
g2791
sg64
(lp2798
g1428
asbasbasbag57
(g73
g59
NtRp2799
(dp2800
g62
(dp2801
sg71
g2417
sg64
(lp2802
g57
(g78
g59
NtRp2803
(dp2804
g62
(dp2805
g82
g83
ssg71
g2799
sg64
(lp2806
S'WEB2PY_ORIGINAL_URI'
p2807
asbag57
(g78
g59
NtRp2808
(dp2809
g62
(dp2810
g89
g90
ssg71
g2799
sg64
(lp2811
S':'
asbag57
(g78
g59
NtRp2812
(dp2813
g62
(dp2814
sg71
g2799
sg64
(lp2815
g57
(g58
g59
NtRp2816
(dp2817
g62
(dp2818
g70
I3
ssg71
g2812
sg64
(lp2819
g1212
asbasbasbag57
(g73
g59
NtRp2820
(dp2821
g62
(dp2822
sg71
g2417
sg64
(lp2823
g57
(g78
g59
NtRp2824
(dp2825
g62
(dp2826
g82
g83
ssg71
g2820
sg64
(lp2827
S'wsgi.errors'
p2828
asbag57
(g78
g59
NtRp2829
(dp2830
g62
(dp2831
g89
g90
ssg71
g2820
sg64
(lp2832
S':'
asbag57
(g78
g59
NtRp2833
(dp2834
g62
(dp2835
sg71
g2820
sg64
(lp2836
g57
(g58
g59
NtRp2837
(dp2838
g62
(dp2839
g70
I3
ssg71
g2833
sg64
(lp2840
S"<open file '<stderr>', mode 'w' at 0x013350D0>"
p2841
asbasbasbag57
(g73
g59
NtRp2842
(dp2843
g62
(dp2844
sg71
g2417
sg64
(lp2845
g57
(g78
g59
NtRp2846
(dp2847
g62
(dp2848
g82
g83
ssg71
g2842
sg64
(lp2849
S'wsgi.file_wrapper'
p2850
asbag57
(g78
g59
NtRp2851
(dp2852
g62
(dp2853
g89
g90
ssg71
g2842
sg64
(lp2854
S':'
asbag57
(g78
g59
NtRp2855
(dp2856
g62
(dp2857
sg71
g2842
sg64
(lp2858
g57
(g58
g59
NtRp2859
(dp2860
g62
(dp2861
g70
I3
ssg71
g2855
sg64
(lp2862
S'<class wsgiref.util.FileWrapper at 0x02576B20>'
p2863
asbasbasbag57
(g73
g59
NtRp2864
(dp2865
g62
(dp2866
sg71
g2417
sg64
(lp2867
g57
(g78
g59
NtRp2868
(dp2869
g62
(dp2870
g82
g83
ssg71
g2864
sg64
(lp2871
S'wsgi.input'
p2872
asbag57
(g78
g59
NtRp2873
(dp2874
g62
(dp2875
g89
g90
ssg71
g2864
sg64
(lp2876
S':'
asbag57
(g78
g59
NtRp2877
(dp2878
g62
(dp2879
sg71
g2864
sg64
(lp2880
g57
(g58
g59
NtRp2881
(dp2882
g62
(dp2883
g70
I3
ssg71
g2877
sg64
(lp2884
S'<cStringIO.StringO object at 0x02646960>'
p2885
asbasbasbag57
(g73
g59
NtRp2886
(dp2887
g62
(dp2888
sg71
g2417
sg64
(lp2889
g57
(g78
g59
NtRp2890
(dp2891
g62
(dp2892
g82
g83
ssg71
g2886
sg64
(lp2893
S'wsgi.multiprocess'
p2894
asbag57
(g78
g59
NtRp2895
(dp2896
g62
(dp2897
g89
g90
ssg71
g2886
sg64
(lp2898
S':'
asbag57
(g78
g59
NtRp2899
(dp2900
g62
(dp2901
sg71
g2886
sg64
(lp2902
g57
(g58
g59
NtRp2903
(dp2904
g62
(dp2905
g70
I3
ssg71
g2899
sg64
(lp2906
g100
asbasbasbag57
(g73
g59
NtRp2907
(dp2908
g62
(dp2909
sg71
g2417
sg64
(lp2910
g57
(g78
g59
NtRp2911
(dp2912
g62
(dp2913
g82
g83
ssg71
g2907
sg64
(lp2914
S'wsgi.multithread'
p2915
asbag57
(g78
g59
NtRp2916
(dp2917
g62
(dp2918
g89
g90
ssg71
g2907
sg64
(lp2919
S':'
asbag57
(g78
g59
NtRp2920
(dp2921
g62
(dp2922
sg71
g2907
sg64
(lp2923
g57
(g58
g59
NtRp2924
(dp2925
g62
(dp2926
g70
I3
ssg71
g2920
sg64
(lp2927
g1667
asbasbasbag57
(g73
g59
NtRp2928
(dp2929
g62
(dp2930
sg71
g2417
sg64
(lp2931
g57
(g78
g59
NtRp2932
(dp2933
g62
(dp2934
g82
g83
ssg71
g2928
sg64
(lp2935
S'wsgi.run_once'
p2936
asbag57
(g78
g59
NtRp2937
(dp2938
g62
(dp2939
g89
g90
ssg71
g2928
sg64
(lp2940
S':'
asbag57
(g78
g59
NtRp2941
(dp2942
g62
(dp2943
sg71
g2928
sg64
(lp2944
g57
(g58
g59
NtRp2945
(dp2946
g62
(dp2947
g70
I3
ssg71
g2941
sg64
(lp2948
g100
asbasbasbag57
(g73
g59
NtRp2949
(dp2950
g62
(dp2951
sg71
g2417
sg64
(lp2952
g57
(g78
g59
NtRp2953
(dp2954
g62
(dp2955
g82
g83
ssg71
g2949
sg64
(lp2956
S'wsgi.url_scheme'
p2957
asbag57
(g78
g59
NtRp2958
(dp2959
g62
(dp2960
g89
g90
ssg71
g2949
sg64
(lp2961
S':'
asbag57
(g78
g59
NtRp2962
(dp2963
g62
(dp2964
sg71
g2949
sg64
(lp2965
g57
(g58
g59
NtRp2966
(dp2967
g62
(dp2968
g70
I3
ssg71
g2962
sg64
(lp2969
g1710
asbasbasbag57
(g73
g59
NtRp2970
(dp2971
g62
(dp2972
sg71
g2417
sg64
(lp2973
g57
(g78
g59
NtRp2974
(dp2975
g62
(dp2976
g82
g83
ssg71
g2970
sg64
(lp2977
S'wsgi.version'
p2978
asbag57
(g78
g59
NtRp2979
(dp2980
g62
(dp2981
g89
g90
ssg71
g2970
sg64
(lp2982
S':'
asbag57
(g78
g59
NtRp2983
(dp2984
g62
(dp2985
sg71
g2970
sg64
(lp2986
g57
(g58
g59
NtRp2987
(dp2988
g62
(dp2989
g70
I3
ssg71
g2983
sg64
(lp2990
S'1'
asbasbasbasbasbasbasbasbasbasbasbasbasbsS'frames'
p2991
(lp2992
(dp2993
S'file'
p2994
S'c:\\Users\\rochacbruno\\aula7_mar12\\web2py\\gluon\\restricted.py'
p2995
sS'dump'
p2996
(dp2997
S'environment'
p2998
S"{'A': <class 'gluon.html.A'>, 'B': <class 'gluon.html.B'>, 'BEAUTIFY': <class 'gluon.html.BEAUTIFY'>, 'BODY': <class 'gluon.html.BODY'>, 'BR': <class 'gluon.html.BR'>, 'BUTTON': <class 'gluon.html.BUTTON'>, 'CAT': <class 'gluon.html.CAT'>, 'CENTER': <class 'gluon.html.CENTER'>, 'CLEANUP': <class 'gluon.validators.CLEANUP'>, 'CODE': <class 'gluon.html.CODE'>, ...}"
p2999
sS'ccode'
p3000
S'<code object <module> at 0265C188, file "c:\\User...pplications\\loja\\controllers/produto.py", line 3>'
p3001
ssS'lnum'
p3002
I205
sS'lines'
p3003
(dp3004
I200
S'    try:'
p3005
sI201
S'        if type(code) == types.CodeType:'
p3006
sI202
S'            ccode = code'
p3007
sI203
S'        else:'
p3008
sI204
S'            ccode = compile2(code,layer)'
p3009
sI205
S'        exec ccode in environment'
p3010
sI206
S'    except HTTP:'
p3011
sI207
S'        raise'
p3012
sI208
S'    except RestrictedError:'
p3013
sI209
S'        # do not encapsulate (obfuscate) the original RestrictedError'
p3014
ssS'call'
p3015
S'(code=\'# coding: utf-8\\n\\ndef exibir():\\n    print resques...roduto"\\n\\nresponse._vars=response._caller(exibir)\\n\', environment={\'A\': <class \'gluon.html.A\'>, \'B\': <class \'gluon.html.B\'>, \'BEAUTIFY\': <class \'gluon.html.BEAUTIFY\'>, \'BODY\': <class \'gluon.html.BODY\'>, \'BR\': <class \'gluon.html.BR\'>, \'BUTTON\': <class \'gluon.html.BUTTON\'>, \'CAT\': <class \'gluon.html.CAT\'>, \'CENTER\': <class \'gluon.html.CENTER\'>, \'CLEANUP\': <class \'gluon.validators.CLEANUP\'>, \'CODE\': <class \'gluon.html.CODE\'>, ...}, layer=r\'c:\\Users\\rochacbruno\\aula7_mar12\\web2py\\applications\\loja\\controllers/produto.py\')'
p3016
sS'func'
p3017
S'restricted'
p3018
sa(dp3019
g2994
S'c:\\Users\\rochacbruno\\aula7_mar12\\web2py\\applications\\loja\\controllers\\produto.py'
p3020
sg2996
(dp3021
sg3002
I8
sg3003
(dp3022
I1
S'# coding: utf-8'
p3023
sI2
S''
sI3
S'def exibir():'
p3024
sI4
S'    print resquest.args'
p3025
sI5
S'    print request.vars'
p3026
sI6
S'    return "produto"'
p3027
ssg3015
S'()'
p3028
sg3017
S'<module>'
p3029
sa(dp3030
g2994
S'c:\\Users\\rochacbruno\\aula7_mar12\\web2py\\gluon\\globals.py'
p3031
sg2996
(dp3032
S'self'
p3033
S'undefined'
p3034
sS'f'
S'<function exibir>'
p3035
ssg3002
I173
sg3003
(dp3036
I168
S'        self.menu = []             # used by the default view layout'
p3037
sI169
S'        self.files = []            # used by web2py_ajax.html'
p3038
sI170
S'        self.generic_patterns = [] # patterns to allow generic views'
p3039
sI171
S"        self.delimiters = ('{{','}}')"
p3040
sI172
S'        self._vars = None'
p3041
sI173
S'        self._caller = lambda f: f()'
p3042
sI174
S'        self._view_environment = None'
p3043
sI175
S'        self._custom_commit = None'
p3044
sI176
S'        self._custom_rollback = None'
p3045
sI177
S''
ssg3015
S'(f=<function exibir>)'
p3046
sg3017
S'<lambda>'
p3047
sa(dp3048
g2994
S'c:\\Users\\rochacbruno\\aula7_mar12\\web2py\\applications\\loja\\controllers\\produto.py'
p3049
sg2996
(dp3050
S'resquest'
p3051
g3034
ssg3002
I4
sg3003
(dp3052
I1
S'# coding: utf-8'
p3053
sI2
S''
sI3
S'def exibir():'
p3054
sI4
S'    print resquest.args'
p3055
sI5
S'    print request.vars'
p3056
sI6
S'    return "produto"'
p3057
ssg3015
S'()'
p3058
sg3017
S'exibir'
p3059
sasS'pyver'
p3060
S'Python 2.7.2: c:\\Python27\\python.exe'
p3061
sS'session'
p3062
g57
(g58
g59
NtRp3063
(dp3064
g62
(dp3065
sg64
(lp3066
g57
(g66
g59
NtRp3067
(dp3068
g62
(dp3069
g70
I5
ssg71
Nsg64
(lp3070
sbasbsS'etype'
p3071
S"<type 'exceptions.NameError'>"
p3072
sS'date'
p3073
S'Thu Apr 12 22:04:11 2012'
p3074
sS'response'
p3075
g57
(g58
g59
NtRp3076
(dp3077
g62
(dp3078
sg64
(lp3079
g57
(g66
g59
NtRp3080
(dp3081
g62
(dp3082
g70
I5
ssg71
Nsg64
(lp3083
g57
(g73
g59
NtRp3084
(dp3085
g62
(dp3086
sg71
g3080
sg64
(lp3087
g57
(g78
g59
NtRp3088
(dp3089
g62
(dp3090
g82
g83
ssg71
g3084
sg64
(lp3091
g168
asbag57
(g78
g59
NtRp3092
(dp3093
g62
(dp3094
g89
g90
ssg71
g3084
sg64
(lp3095
S':'
asbag57
(g78
g59
NtRp3096
(dp3097
g62
(dp3098
sg71
g3084
sg64
(lp3099
g57
(g58
g59
NtRp3100
(dp3101
g62
(dp3102
g70
I5
ssg71
g3096
sg64
(lp3103
S'<cStringIO.StringO object at 0x02646680>'
p3104
asbasbasbag57
(g73
g59
NtRp3105
(dp3106
g62
(dp3107
sg71
g3080
sg64
(lp3108
g57
(g78
g59
NtRp3109
(dp3110
g62
(dp3111
g82
g83
ssg71
g3105
sg64
(lp3112
g234
asbag57
(g78
g59
NtRp3113
(dp3114
g62
(dp3115
g89
g90
ssg71
g3105
sg64
(lp3116
S':'
asbag57
(g78
g59
NtRp3117
(dp3118
g62
(dp3119
sg71
g3105
sg64
(lp3120
g57
(g58
g59
NtRp3121
(dp3122
g62
(dp3123
g70
I5
ssg71
g3117
sg64
(lp3124
g57
(g66
g59
NtRp3125
(dp3126
g62
(dp3127
g70
I4
ssg71
Nsg64
(lp3128
g57
(g73
g59
NtRp3129
(dp3130
g62
(dp3131
sg71
g3125
sg64
(lp3132
g57
(g78
g59
NtRp3133
(dp3134
g62
(dp3135
g82
g83
ssg71
g3129
sg64
(lp3136
S'session_id_loja'
p3137
asbag57
(g78
g59
NtRp3138
(dp3139
g62
(dp3140
g89
g90
ssg71
g3129
sg64
(lp3141
S':'
asbag57
(g78
g59
NtRp3142
(dp3143
g62
(dp3144
sg71
g3129
sg64
(lp3145
g57
(g58
g59
NtRp3146
(dp3147
g62
(dp3148
g70
I4
ssg71
g3142
sg64
(lp3149
g57
(g66
g59
NtRp3150
(dp3151
g62
(dp3152
g70
I3
ssg71
Nsg64
(lp3153
g57
(g73
g59
NtRp3154
(dp3155
g62
(dp3156
sg71
g3150
sg64
(lp3157
g57
(g78
g59
NtRp3158
(dp3159
g62
(dp3160
g82
g83
ssg71
g3154
sg64
(lp3161
g284
asbag57
(g78
g59
NtRp3162
(dp3163
g62
(dp3164
g89
g90
ssg71
g3154
sg64
(lp3165
S':'
asbag57
(g78
g59
NtRp3166
(dp3167
g62
(dp3168
sg71
g3154
sg64
(lp3169
g57
(g58
g59
NtRp3170
(dp3171
g62
(dp3172
g70
I3
ssg71
g3166
sg64
(lp3173
S''
asbasbasbag57
(g73
g59
NtRp3174
(dp3175
g62
(dp3176
sg71
g3150
sg64
(lp3177
g57
(g78
g59
NtRp3178
(dp3179
g62
(dp3180
g82
g83
ssg71
g3174
sg64
(lp3181
g305
asbag57
(g78
g59
NtRp3182
(dp3183
g62
(dp3184
g89
g90
ssg71
g3174
sg64
(lp3185
S':'
asbag57
(g78
g59
NtRp3186
(dp3187
g62
(dp3188
sg71
g3174
sg64
(lp3189
g57
(g58
g59
NtRp3190
(dp3191
g62
(dp3192
g70
I3
ssg71
g3186
sg64
(lp3193
S''
asbasbasbag57
(g73
g59
NtRp3194
(dp3195
g62
(dp3196
sg71
g3150
sg64
(lp3197
g57
(g78
g59
NtRp3198
(dp3199
g62
(dp3200
g82
g83
ssg71
g3194
sg64
(lp3201
g326
asbag57
(g78
g59
NtRp3202
(dp3203
g62
(dp3204
g89
g90
ssg71
g3194
sg64
(lp3205
S':'
asbag57
(g78
g59
NtRp3206
(dp3207
g62
(dp3208
sg71
g3194
sg64
(lp3209
g57
(g58
g59
NtRp3210
(dp3211
g62
(dp3212
g70
I3
ssg71
g3206
sg64
(lp3213
S''
asbasbasbag57
(g73
g59
NtRp3214
(dp3215
g62
(dp3216
sg71
g3150
sg64
(lp3217
g57
(g78
g59
NtRp3218
(dp3219
g62
(dp3220
g82
g83
ssg71
g3214
sg64
(lp3221
g347
asbag57
(g78
g59
NtRp3222
(dp3223
g62
(dp3224
g89
g90
ssg71
g3214
sg64
(lp3225
S':'
asbag57
(g78
g59
NtRp3226
(dp3227
g62
(dp3228
sg71
g3214
sg64
(lp3229
g57
(g58
g59
NtRp3230
(dp3231
g62
(dp3232
g70
I3
ssg71
g3226
sg64
(lp3233
S''
asbasbasbag57
(g73
g59
NtRp3234
(dp3235
g62
(dp3236
sg71
g3150
sg64
(lp3237
g57
(g78
g59
NtRp3238
(dp3239
g62
(dp3240
g82
g83
ssg71
g3234
sg64
(lp3241
g368
asbag57
(g78
g59
NtRp3242
(dp3243
g62
(dp3244
g89
g90
ssg71
g3234
sg64
(lp3245
S':'
asbag57
(g78
g59
NtRp3246
(dp3247
g62
(dp3248
sg71
g3234
sg64
(lp3249
g57
(g58
g59
NtRp3250
(dp3251
g62
(dp3252
g70
I3
ssg71
g3246
sg64
(lp3253
S''
asbasbasbag57
(g73
g59
NtRp3254
(dp3255
g62
(dp3256
sg71
g3150
sg64
(lp3257
g57
(g78
g59
NtRp3258
(dp3259
g62
(dp3260
g82
g83
ssg71
g3254
sg64
(lp3261
g389
asbag57
(g78
g59
NtRp3262
(dp3263
g62
(dp3264
g89
g90
ssg71
g3254
sg64
(lp3265
S':'
asbag57
(g78
g59
NtRp3266
(dp3267
g62
(dp3268
sg71
g3254
sg64
(lp3269
g57
(g58
g59
NtRp3270
(dp3271
g62
(dp3272
g70
I3
ssg71
g3266
sg64
(lp3273
S'/'
asbasbasbag57
(g73
g59
NtRp3274
(dp3275
g62
(dp3276
sg71
g3150
sg64
(lp3277
g57
(g78
g59
NtRp3278
(dp3279
g62
(dp3280
g82
g83
ssg71
g3274
sg64
(lp3281
g410
asbag57
(g78
g59
NtRp3282
(dp3283
g62
(dp3284
g89
g90
ssg71
g3274
sg64
(lp3285
S':'
asbag57
(g78
g59
NtRp3286
(dp3287
g62
(dp3288
sg71
g3274
sg64
(lp3289
g57
(g58
g59
NtRp3290
(dp3291
g62
(dp3292
g70
I3
ssg71
g3286
sg64
(lp3293
S''
asbasbasbag57
(g73
g59
NtRp3294
(dp3295
g62
(dp3296
sg71
g3150
sg64
(lp3297
g57
(g78
g59
NtRp3298
(dp3299
g62
(dp3300
g82
g83
ssg71
g3294
sg64
(lp3301
g431
asbag57
(g78
g59
NtRp3302
(dp3303
g62
(dp3304
g89
g90
ssg71
g3294
sg64
(lp3305
S':'
asbag57
(g78
g59
NtRp3306
(dp3307
g62
(dp3308
sg71
g3294
sg64
(lp3309
g57
(g58
g59
NtRp3310
(dp3311
g62
(dp3312
g70
I3
ssg71
g3306
sg64
(lp3313
S''
asbasbasbasbasbasbasbasbasbasbasbag57
(g73
g59
NtRp3314
(dp3315
g62
(dp3316
sg71
g3080
sg64
(lp3317
g57
(g78
g59
NtRp3318
(dp3319
g62
(dp3320
g82
g83
ssg71
g3314
sg64
(lp3321
S'delimiters'
p3322
asbag57
(g78
g59
NtRp3323
(dp3324
g62
(dp3325
g89
g90
ssg71
g3314
sg64
(lp3326
S':'
asbag57
(g78
g59
NtRp3327
(dp3328
g62
(dp3329
sg71
g3314
sg64
(lp3330
g57
(g58
g59
NtRp3331
(dp3332
g62
(dp3333
g70
I5
ssg71
g3327
sg64
(lp3334
g57
(g66
g59
NtRp3335
(dp3336
g62
(dp3337
g70
I4
ssg71
Nsg64
(lp3338
g57
(g73
g59
NtRp3339
(dp3340
g62
(dp3341
sg71
g3335
sg64
(lp3342
g57
(g78
g59
NtRp3343
(dp3344
g62
(dp3345
sg71
g3339
sg64
(lp3346
g57
(g58
g59
NtRp3347
(dp3348
g62
(dp3349
g70
I4
ssg71
g3343
sg64
(lp3350
S'{{'
p3351
asbasbasbag57
(g73
g59
NtRp3352
(dp3353
g62
(dp3354
sg71
g3335
sg64
(lp3355
g57
(g78
g59
NtRp3356
(dp3357
g62
(dp3358
sg71
g3352
sg64
(lp3359
g57
(g58
g59
NtRp3360
(dp3361
g62
(dp3362
g70
I4
ssg71
g3356
sg64
(lp3363
S'}}'
p3364
asbasbasbasbasbasbasbag57
(g73
g59
NtRp3365
(dp3366
g62
(dp3367
sg71
g3080
sg64
(lp3368
g57
(g78
g59
NtRp3369
(dp3370
g62
(dp3371
g82
g83
ssg71
g3365
sg64
(lp3372
S'files'
p3373
asbag57
(g78
g59
NtRp3374
(dp3375
g62
(dp3376
g89
g90
ssg71
g3365
sg64
(lp3377
S':'
asbag57
(g78
g59
NtRp3378
(dp3379
g62
(dp3380
sg71
g3365
sg64
(lp3381
g57
(g58
g59
NtRp3382
(dp3383
g62
(dp3384
g70
I5
ssg71
g3378
sg64
(lp3385
g57
(g66
g59
NtRp3386
(dp3387
g62
(dp3388
g70
I4
ssg71
Nsg64
(lp3389
sbasbasbasbag57
(g73
g59
NtRp3390
(dp3391
g62
(dp3392
sg71
g3080
sg64
(lp3393
g57
(g78
g59
NtRp3394
(dp3395
g62
(dp3396
g82
g83
ssg71
g3390
sg64
(lp3397
S'flash'
p3398
asbag57
(g78
g59
NtRp3399
(dp3400
g62
(dp3401
g89
g90
ssg71
g3390
sg64
(lp3402
S':'
asbag57
(g78
g59
NtRp3403
(dp3404
g62
(dp3405
sg71
g3390
sg64
(lp3406
g57
(g58
g59
NtRp3407
(dp3408
g62
(dp3409
g70
I5
ssg71
g3403
sg64
(lp3410
S''
asbasbasbag57
(g73
g59
NtRp3411
(dp3412
g62
(dp3413
sg71
g3080
sg64
(lp3414
g57
(g78
g59
NtRp3415
(dp3416
g62
(dp3417
g82
g83
ssg71
g3411
sg64
(lp3418
S'generic_patterns'
p3419
asbag57
(g78
g59
NtRp3420
(dp3421
g62
(dp3422
g89
g90
ssg71
g3411
sg64
(lp3423
S':'
asbag57
(g78
g59
NtRp3424
(dp3425
g62
(dp3426
sg71
g3411
sg64
(lp3427
g57
(g58
g59
NtRp3428
(dp3429
g62
(dp3430
g70
I5
ssg71
g3424
sg64
(lp3431
g57
(g66
g59
NtRp3432
(dp3433
g62
(dp3434
g70
I4
ssg71
Nsg64
(lp3435
sbasbasbasbag57
(g73
g59
NtRp3436
(dp3437
g62
(dp3438
sg71
g3080
sg64
(lp3439
g57
(g78
g59
NtRp3440
(dp3441
g62
(dp3442
g82
g83
ssg71
g3436
sg64
(lp3443
S'headers'
p3444
asbag57
(g78
g59
NtRp3445
(dp3446
g62
(dp3447
g89
g90
ssg71
g3436
sg64
(lp3448
S':'
asbag57
(g78
g59
NtRp3449
(dp3450
g62
(dp3451
sg71
g3436
sg64
(lp3452
g57
(g58
g59
NtRp3453
(dp3454
g62
(dp3455
g70
I5
ssg71
g3449
sg64
(lp3456
g57
(g66
g59
NtRp3457
(dp3458
g62
(dp3459
g70
I4
ssg71
Nsg64
(lp3460
g57
(g73
g59
NtRp3461
(dp3462
g62
(dp3463
sg71
g3457
sg64
(lp3464
g57
(g78
g59
NtRp3465
(dp3466
g62
(dp3467
g82
g83
ssg71
g3461
sg64
(lp3468
S'Cache-Control'
p3469
asbag57
(g78
g59
NtRp3470
(dp3471
g62
(dp3472
g89
g90
ssg71
g3461
sg64
(lp3473
S':'
asbag57
(g78
g59
NtRp3474
(dp3475
g62
(dp3476
sg71
g3461
sg64
(lp3477
g57
(g58
g59
NtRp3478
(dp3479
g62
(dp3480
g70
I4
ssg71
g3474
sg64
(lp3481
S'no-store, no-cache, must-revalidate, post-check=0, pre-check=0'
p3482
asbasbasbag57
(g73
g59
NtRp3483
(dp3484
g62
(dp3485
sg71
g3457
sg64
(lp3486
g57
(g78
g59
NtRp3487
(dp3488
g62
(dp3489
g82
g83
ssg71
g3483
sg64
(lp3490
S'Content-Type'
p3491
asbag57
(g78
g59
NtRp3492
(dp3493
g62
(dp3494
g89
g90
ssg71
g3483
sg64
(lp3495
S':'
asbag57
(g78
g59
NtRp3496
(dp3497
g62
(dp3498
sg71
g3483
sg64
(lp3499
g57
(g58
g59
NtRp3500
(dp3501
g62
(dp3502
g70
I4
ssg71
g3496
sg64
(lp3503
S'text/html; charset=utf-8'
p3504
asbasbasbag57
(g73
g59
NtRp3505
(dp3506
g62
(dp3507
sg71
g3457
sg64
(lp3508
g57
(g78
g59
NtRp3509
(dp3510
g62
(dp3511
g82
g83
ssg71
g3505
sg64
(lp3512
S'Expires'
p3513
asbag57
(g78
g59
NtRp3514
(dp3515
g62
(dp3516
g89
g90
ssg71
g3505
sg64
(lp3517
S':'
asbag57
(g78
g59
NtRp3518
(dp3519
g62
(dp3520
sg71
g3505
sg64
(lp3521
g57
(g58
g59
NtRp3522
(dp3523
g62
(dp3524
g70
I4
ssg71
g3518
sg64
(lp3525
S'Fri, 13 Apr 2012 01:04:10 GMT'
p3526
asbasbasbag57
(g73
g59
NtRp3527
(dp3528
g62
(dp3529
sg71
g3457
sg64
(lp3530
g57
(g78
g59
NtRp3531
(dp3532
g62
(dp3533
g82
g83
ssg71
g3527
sg64
(lp3534
S'Pragma'
p3535
asbag57
(g78
g59
NtRp3536
(dp3537
g62
(dp3538
g89
g90
ssg71
g3527
sg64
(lp3539
S':'
asbag57
(g78
g59
NtRp3540
(dp3541
g62
(dp3542
sg71
g3527
sg64
(lp3543
g57
(g58
g59
NtRp3544
(dp3545
g62
(dp3546
g70
I4
ssg71
g3540
sg64
(lp3547
S'no-cache'
p3548
asbasbasbag57
(g73
g59
NtRp3549
(dp3550
g62
(dp3551
sg71
g3457
sg64
(lp3552
g57
(g78
g59
NtRp3553
(dp3554
g62
(dp3555
g82
g83
ssg71
g3549
sg64
(lp3556
S'X-Powered-By'
p3557
asbag57
(g78
g59
NtRp3558
(dp3559
g62
(dp3560
g89
g90
ssg71
g3549
sg64
(lp3561
S':'
asbag57
(g78
g59
NtRp3562
(dp3563
g62
(dp3564
sg71
g3549
sg64
(lp3565
g57
(g58
g59
NtRp3566
(dp3567
g62
(dp3568
g70
I4
ssg71
g3562
sg64
(lp3569
S'web2py'
p3570
asbasbasbasbasbasbasbag57
(g73
g59
NtRp3571
(dp3572
g62
(dp3573
sg71
g3080
sg64
(lp3574
g57
(g78
g59
NtRp3575
(dp3576
g62
(dp3577
g82
g83
ssg71
g3571
sg64
(lp3578
S'menu'
p3579
asbag57
(g78
g59
NtRp3580
(dp3581
g62
(dp3582
g89
g90
ssg71
g3571
sg64
(lp3583
S':'
asbag57
(g78
g59
NtRp3584
(dp3585
g62
(dp3586
sg71
g3571
sg64
(lp3587
g57
(g58
g59
NtRp3588
(dp3589
g62
(dp3590
g70
I5
ssg71
g3584
sg64
(lp3591
g57
(g66
g59
NtRp3592
(dp3593
g62
(dp3594
g70
I4
ssg71
Nsg64
(lp3595
sbasbasbasbag57
(g73
g59
NtRp3596
(dp3597
g62
(dp3598
sg71
g3080
sg64
(lp3599
g57
(g78
g59
NtRp3600
(dp3601
g62
(dp3602
g82
g83
ssg71
g3596
sg64
(lp3603
S'meta'
p3604
asbag57
(g78
g59
NtRp3605
(dp3606
g62
(dp3607
g89
g90
ssg71
g3596
sg64
(lp3608
S':'
asbag57
(g78
g59
NtRp3609
(dp3610
g62
(dp3611
sg71
g3596
sg64
(lp3612
g57
(g58
g59
NtRp3613
(dp3614
g62
(dp3615
g70
I5
ssg71
g3609
sg64
(lp3616
g57
(g66
g59
NtRp3617
(dp3618
g62
(dp3619
g70
I4
ssg71
Nsg64
(lp3620
sbasbasbasbag57
(g73
g59
NtRp3621
(dp3622
g62
(dp3623
sg71
g3080
sg64
(lp3624
g57
(g78
g59
NtRp3625
(dp3626
g62
(dp3627
g82
g83
ssg71
g3621
sg64
(lp3628
S'postprocessing'
p3629
asbag57
(g78
g59
NtRp3630
(dp3631
g62
(dp3632
g89
g90
ssg71
g3621
sg64
(lp3633
S':'
asbag57
(g78
g59
NtRp3634
(dp3635
g62
(dp3636
sg71
g3621
sg64
(lp3637
g57
(g58
g59
NtRp3638
(dp3639
g62
(dp3640
g70
I5
ssg71
g3634
sg64
(lp3641
g57
(g66
g59
NtRp3642
(dp3643
g62
(dp3644
g70
I4
ssg71
Nsg64
(lp3645
sbasbasbasbag57
(g73
g59
NtRp3646
(dp3647
g62
(dp3648
sg71
g3080
sg64
(lp3649
g57
(g78
g59
NtRp3650
(dp3651
g62
(dp3652
g82
g83
ssg71
g3646
sg64
(lp3653
S'session_filename'
p3654
asbag57
(g78
g59
NtRp3655
(dp3656
g62
(dp3657
g89
g90
ssg71
g3646
sg64
(lp3658
S':'
asbag57
(g78
g59
NtRp3659
(dp3660
g62
(dp3661
sg71
g3646
sg64
(lp3662
g57
(g58
g59
NtRp3663
(dp3664
g62
(dp3665
g70
I5
ssg71
g3659
sg64
(lp3666
S'c:\\Users\\rochacbruno\\aula7_mar12\\web2py\\applications\\loja\\sessions\\127.0.0.1-9c61f107-3492-4065-a321-91e3125b5ece'
p3667
asbasbasbag57
(g73
g59
NtRp3668
(dp3669
g62
(dp3670
sg71
g3080
sg64
(lp3671
g57
(g78
g59
NtRp3672
(dp3673
g62
(dp3674
g82
g83
ssg71
g3668
sg64
(lp3675
S'session_id'
p3676
asbag57
(g78
g59
NtRp3677
(dp3678
g62
(dp3679
g89
g90
ssg71
g3668
sg64
(lp3680
S':'
asbag57
(g78
g59
NtRp3681
(dp3682
g62
(dp3683
sg71
g3668
sg64
(lp3684
g57
(g58
g59
NtRp3685
(dp3686
g62
(dp3687
g70
I5
ssg71
g3681
sg64
(lp3688
S'127.0.0.1-9c61f107-3492-4065-a321-91e3125b5ece'
p3689
asbasbasbag57
(g73
g59
NtRp3690
(dp3691
g62
(dp3692
sg71
g3080
sg64
(lp3693
g57
(g78
g59
NtRp3694
(dp3695
g62
(dp3696
g82
g83
ssg71
g3690
sg64
(lp3697
S'session_id_name'
p3698
asbag57
(g78
g59
NtRp3699
(dp3700
g62
(dp3701
g89
g90
ssg71
g3690
sg64
(lp3702
S':'
asbag57
(g78
g59
NtRp3703
(dp3704
g62
(dp3705
sg71
g3690
sg64
(lp3706
g57
(g58
g59
NtRp3707
(dp3708
g62
(dp3709
g70
I5
ssg71
g3703
sg64
(lp3710
g3137
asbasbasbag57
(g73
g59
NtRp3711
(dp3712
g62
(dp3713
sg71
g3080
sg64
(lp3714
g57
(g78
g59
NtRp3715
(dp3716
g62
(dp3717
g82
g83
ssg71
g3711
sg64
(lp3718
S'session_new'
p3719
asbag57
(g78
g59
NtRp3720
(dp3721
g62
(dp3722
g89
g90
ssg71
g3711
sg64
(lp3723
S':'
asbag57
(g78
g59
NtRp3724
(dp3725
g62
(dp3726
sg71
g3711
sg64
(lp3727
g57
(g58
g59
NtRp3728
(dp3729
g62
(dp3730
g70
I5
ssg71
g3724
sg64
(lp3731
g1667
asbasbasbag57
(g73
g59
NtRp3732
(dp3733
g62
(dp3734
sg71
g3080
sg64
(lp3735
g57
(g78
g59
NtRp3736
(dp3737
g62
(dp3738
g82
g83
ssg71
g3732
sg64
(lp3739
S'status'
p3740
asbag57
(g78
g59
NtRp3741
(dp3742
g62
(dp3743
g89
g90
ssg71
g3732
sg64
(lp3744
S':'
asbag57
(g78
g59
NtRp3745
(dp3746
g62
(dp3747
sg71
g3732
sg64
(lp3748
g57
(g58
g59
NtRp3749
(dp3750
g62
(dp3751
g70
I5
ssg71
g3745
sg64
(lp3752
S'200'
p3753
asbasbasbag57
(g73
g59
NtRp3754
(dp3755
g62
(dp3756
sg71
g3080
sg64
(lp3757
g57
(g78
g59
NtRp3758
(dp3759
g62
(dp3760
g82
g83
ssg71
g3754
sg64
(lp3761
g2332
asbag57
(g78
g59
NtRp3762
(dp3763
g62
(dp3764
g89
g90
ssg71
g3754
sg64
(lp3765
S':'
asbag57
(g78
g59
NtRp3766
(dp3767
g62
(dp3768
sg71
g3754
sg64
(lp3769
g57
(g58
g59
NtRp3770
(dp3771
g62
(dp3772
g70
I5
ssg71
g3766
sg64
(lp3773
g2345
asbasbasbag57
(g73
g59
NtRp3774
(dp3775
g62
(dp3776
sg71
g3080
sg64
(lp3777
g57
(g78
g59
NtRp3778
(dp3779
g62
(dp3780
g82
g83
ssg71
g3774
sg64
(lp3781
S'view'
p3782
asbag57
(g78
g59
NtRp3783
(dp3784
g62
(dp3785
g89
g90
ssg71
g3774
sg64
(lp3786
S':'
asbag57
(g78
g59
NtRp3787
(dp3788
g62
(dp3789
sg71
g3774
sg64
(lp3790
g57
(g58
g59
NtRp3791
(dp3792
g62
(dp3793
g70
I5
ssg71
g3787
sg64
(lp3794
S'produto/exibir.html'
p3795
asbasbasbasbasbsS'locals'
p3796
(dp3797
ssS'traceback'
p3798
S'Traceback (most recent call last):\n  File "c:\\Users\\rochacbruno\\aula7_mar12\\web2py\\gluon\\restricted.py", line 205, in restricted\n    exec ccode in environment\n  File "c:\\Users\\rochacbruno\\aula7_mar12\\web2py\\applications\\loja\\controllers/produto.py", line 8, in <module>\n  File "c:\\Users\\rochacbruno\\aula7_mar12\\web2py\\gluon\\globals.py", line 173, in <lambda>\n    self._caller = lambda f: f()\n  File "c:\\Users\\rochacbruno\\aula7_mar12\\web2py\\applications\\loja\\controllers/produto.py", line 4, in exibir\n    print resquest.args\nNameError: global name \'resquest\' is not defined\n'
p3799
s.