(dp1
S'output'
p2
S"<type 'exceptions.SyntaxError'> invalid syntax (200_app.py, line 16)"
p3
sS'layer'
p4
S'c:\\Users\\rochacbruno\\aula7_mar12\\web2py\\applications\\loja\\models\\200_app.py'
p5
sS'code'
p6
S'# coding: utf-8\n\n# auth\n# mailer\n# crypto\n\nfrom gluon.tools import Auth, Mail\n\nauth = Auth(db,\n            hmac_key=Auth.get_or_create_key(),\n            controller="home")\n\nmail = Mail()\nmail.settings.server = "logging"\nmail.settings.sender = "loja@loja.com"\nmai..settings.login = "usuario:senha"\n\nauth.settings.mailer = mail\nauth.settings.formstyle = "divs"\nauth.settings.extra_fields[\'auth_user\'] = [Field("cliente_especial", "boolean", default=False)]\n\nauth.define_tables()\n\n# views, ajax, css, appadmin\n'
p7
sS'snapshot'
p8
(dp9
S'exception'
p10
(dp11
S'__getslice__'
p12
S"<method-wrapper '__getslice__' of exceptions.SyntaxError object>"
p13
sS'text'
p14
S'\'mai..settings.login = "usuario:senha"\\n\''
p15
sS'__str__'
p16
S"<method-wrapper '__str__' of exceptions.SyntaxError object>"
p17
sS'__reduce__'
p18
S'<built-in method __reduce__ of exceptions.SyntaxError object>'
p19
sS'__dict__'
p20
S'{}'
p21
sS'__sizeof__'
p22
S'<built-in method __sizeof__ of exceptions.SyntaxError object>'
p23
sS'__init__'
p24
S"<method-wrapper '__init__' of exceptions.SyntaxError object>"
p25
sS'__setattr__'
p26
S"<method-wrapper '__setattr__' of exceptions.SyntaxError object>"
p27
sS'__reduce_ex__'
p28
S'<built-in method __reduce_ex__ of exceptions.SyntaxError object>'
p29
sS'__new__'
p30
S'<built-in method __new__ of type object>'
p31
sS'__format__'
p32
S'<built-in method __format__ of exceptions.SyntaxError object>'
p33
sS'__class__'
p34
S"<type 'exceptions.SyntaxError'>"
p35
sS'filename'
p36
S"r'c:\\Users\\rochacbruno\\aula7_mar12\\web2py\\applications\\loja\\models\\200_app.py'"
p37
sS'lineno'
p38
S'16'
p39
sS'msg'
p40
S"'invalid syntax'"
p41
sS'__doc__'
p42
S"'Invalid syntax.'"
p43
sS'__getitem__'
p44
S"<method-wrapper '__getitem__' of exceptions.SyntaxError object>"
p45
sS'__setstate__'
p46
S'<built-in method __setstate__ of exceptions.SyntaxError object>'
p47
sS'__getattribute__'
p48
S"<method-wrapper '__getattribute__' of exceptions.SyntaxError object>"
p49
sS'print_file_and_line'
p50
S'None'
p51
sS'args'
p52
S'(\'invalid syntax\', (r\'c:\\Users\\rochacbruno\\aula7_mar12\\web2py\\applications\\loja\\models\\200_app.py\', 16, 5, \'mai..settings.login = "usuario:senha"\\n\'))'
p53
sS'__subclasshook__'
p54
S'<built-in method __subclasshook__ of type object>'
p55
sS'offset'
p56
S'5'
sS'__unicode__'
p57
S'<built-in method __unicode__ of exceptions.SyntaxError object>'
p58
sS'__delattr__'
p59
S"<method-wrapper '__delattr__' of exceptions.SyntaxError object>"
p60
sS'__repr__'
p61
S"<method-wrapper '__repr__' of exceptions.SyntaxError object>"
p62
sS'__hash__'
p63
S"<method-wrapper '__hash__' of exceptions.SyntaxError object>"
p64
ssS'evalue'
p65
S'invalid syntax (200_app.py, line 16)'
p66
sS'request'
p67
ccopy_reg
_reconstructor
p68
(cgluon.html
BEAUTIFY
p69
c__builtin__
object
p70
NtRp71
(dp72
S'attributes'
p73
(dp74
sS'components'
p75
(lp76
g68
(cgluon.html
TABLE
p77
g70
NtRp78
(dp79
g73
(dp80
S'level'
p81
I5
ssS'parent'
p82
Nsg75
(lp83
g68
(cgluon.html
TR
p84
g70
NtRp85
(dp86
g73
(dp87
sg82
g78
sg75
(lp88
g68
(cgluon.html
TD
p89
g70
NtRp90
(dp91
g73
(dp92
S'_style'
p93
S'font-weight:bold;vertical-align:top'
p94
ssg82
g85
sg75
(lp95
S'ajax'
p96
asbag68
(g89
g70
NtRp97
(dp98
g73
(dp99
S'_valign'
p100
S'top'
p101
ssg82
g85
sg75
(lp102
S':'
asbag68
(g89
g70
NtRp103
(dp104
g73
(dp105
sg82
g85
sg75
(lp106
g68
(g69
g70
NtRp107
(dp108
g73
(dp109
g81
I5
ssg82
g103
sg75
(lp110
S'False'
p111
asbasbasbag68
(g84
g70
NtRp112
(dp113
g73
(dp114
sg82
g78
sg75
(lp115
g68
(g89
g70
NtRp116
(dp117
g73
(dp118
g93
g94
ssg82
g112
sg75
(lp119
S'application'
p120
asbag68
(g89
g70
NtRp121
(dp122
g73
(dp123
g100
g101
ssg82
g112
sg75
(lp124
S':'
asbag68
(g89
g70
NtRp125
(dp126
g73
(dp127
sg82
g112
sg75
(lp128
g68
(g69
g70
NtRp129
(dp130
g73
(dp131
g81
I5
ssg82
g125
sg75
(lp132
S'loja'
p133
asbasbasbag68
(g84
g70
NtRp134
(dp135
g73
(dp136
sg82
g78
sg75
(lp137
g68
(g89
g70
NtRp138
(dp139
g73
(dp140
g93
g94
ssg82
g134
sg75
(lp141
g52
asbag68
(g89
g70
NtRp142
(dp143
g73
(dp144
g100
g101
ssg82
g134
sg75
(lp145
S':'
asbag68
(g89
g70
NtRp146
(dp147
g73
(dp148
sg82
g134
sg75
(lp149
g68
(g69
g70
NtRp150
(dp151
g73
(dp152
g81
I5
ssg82
g146
sg75
(lp153
g68
(g77
g70
NtRp154
(dp155
g73
(dp156
g81
I4
ssg82
Nsg75
(lp157
sbasbasbasbag68
(g84
g70
NtRp158
(dp159
g73
(dp160
sg82
g78
sg75
(lp161
g68
(g89
g70
NtRp162
(dp163
g73
(dp164
g93
g94
ssg82
g158
sg75
(lp165
S'body'
p166
asbag68
(g89
g70
NtRp167
(dp168
g73
(dp169
g100
g101
ssg82
g158
sg75
(lp170
S':'
asbag68
(g89
g70
NtRp171
(dp172
g73
(dp173
sg82
g158
sg75
(lp174
g68
(g69
g70
NtRp175
(dp176
g73
(dp177
g81
I5
ssg82
g171
sg75
(lp178
S'<cStringIO.StringO object at 0x02DC5180>'
p179
asbasbasbag68
(g84
g70
NtRp180
(dp181
g73
(dp182
sg82
g78
sg75
(lp183
g68
(g89
g70
NtRp184
(dp185
g73
(dp186
g93
g94
ssg82
g180
sg75
(lp187
S'client'
p188
asbag68
(g89
g70
NtRp189
(dp190
g73
(dp191
g100
g101
ssg82
g180
sg75
(lp192
S':'
asbag68
(g89
g70
NtRp193
(dp194
g73
(dp195
sg82
g180
sg75
(lp196
g68
(g69
g70
NtRp197
(dp198
g73
(dp199
g81
I5
ssg82
g193
sg75
(lp200
S'127.0.0.1'
p201
asbasbasbag68
(g84
g70
NtRp202
(dp203
g73
(dp204
sg82
g78
sg75
(lp205
g68
(g89
g70
NtRp206
(dp207
g73
(dp208
g93
g94
ssg82
g202
sg75
(lp209
S'controller'
p210
asbag68
(g89
g70
NtRp211
(dp212
g73
(dp213
g100
g101
ssg82
g202
sg75
(lp214
S':'
asbag68
(g89
g70
NtRp215
(dp216
g73
(dp217
sg82
g202
sg75
(lp218
g68
(g69
g70
NtRp219
(dp220
g73
(dp221
g81
I5
ssg82
g215
sg75
(lp222
S'home'
p223
asbasbasbag68
(g84
g70
NtRp224
(dp225
g73
(dp226
sg82
g78
sg75
(lp227
g68
(g89
g70
NtRp228
(dp229
g73
(dp230
g93
g94
ssg82
g224
sg75
(lp231
S'cookies'
p232
asbag68
(g89
g70
NtRp233
(dp234
g73
(dp235
g100
g101
ssg82
g224
sg75
(lp236
S':'
asbag68
(g89
g70
NtRp237
(dp238
g73
(dp239
sg82
g224
sg75
(lp240
g68
(g69
g70
NtRp241
(dp242
g73
(dp243
g81
I5
ssg82
g237
sg75
(lp244
g68
(g77
g70
NtRp245
(dp246
g73
(dp247
g81
I4
ssg82
Nsg75
(lp248
g68
(g84
g70
NtRp249
(dp250
g73
(dp251
sg82
g245
sg75
(lp252
g68
(g89
g70
NtRp253
(dp254
g73
(dp255
g93
g94
ssg82
g249
sg75
(lp256
S'session_id_admin'
p257
asbag68
(g89
g70
NtRp258
(dp259
g73
(dp260
g100
g101
ssg82
g249
sg75
(lp261
S':'
asbag68
(g89
g70
NtRp262
(dp263
g73
(dp264
sg82
g249
sg75
(lp265
g68
(g69
g70
NtRp266
(dp267
g73
(dp268
g81
I4
ssg82
g262
sg75
(lp269
g68
(g77
g70
NtRp270
(dp271
g73
(dp272
g81
I3
ssg82
Nsg75
(lp273
g68
(g84
g70
NtRp274
(dp275
g73
(dp276
sg82
g270
sg75
(lp277
g68
(g89
g70
NtRp278
(dp279
g73
(dp280
g93
g94
ssg82
g274
sg75
(lp281
S'comment'
p282
asbag68
(g89
g70
NtRp283
(dp284
g73
(dp285
g100
g101
ssg82
g274
sg75
(lp286
S':'
asbag68
(g89
g70
NtRp287
(dp288
g73
(dp289
sg82
g274
sg75
(lp290
g68
(g69
g70
NtRp291
(dp292
g73
(dp293
g81
I3
ssg82
g287
sg75
(lp294
S''
asbasbasbag68
(g84
g70
NtRp295
(dp296
g73
(dp297
sg82
g270
sg75
(lp298
g68
(g89
g70
NtRp299
(dp300
g73
(dp301
g93
g94
ssg82
g295
sg75
(lp302
S'domain'
p303
asbag68
(g89
g70
NtRp304
(dp305
g73
(dp306
g100
g101
ssg82
g295
sg75
(lp307
S':'
asbag68
(g89
g70
NtRp308
(dp309
g73
(dp310
sg82
g295
sg75
(lp311
g68
(g69
g70
NtRp312
(dp313
g73
(dp314
g81
I3
ssg82
g308
sg75
(lp315
S''
asbasbasbag68
(g84
g70
NtRp316
(dp317
g73
(dp318
sg82
g270
sg75
(lp319
g68
(g89
g70
NtRp320
(dp321
g73
(dp322
g93
g94
ssg82
g316
sg75
(lp323
S'expires'
p324
asbag68
(g89
g70
NtRp325
(dp326
g73
(dp327
g100
g101
ssg82
g316
sg75
(lp328
S':'
asbag68
(g89
g70
NtRp329
(dp330
g73
(dp331
sg82
g316
sg75
(lp332
g68
(g69
g70
NtRp333
(dp334
g73
(dp335
g81
I3
ssg82
g329
sg75
(lp336
S''
asbasbasbag68
(g84
g70
NtRp337
(dp338
g73
(dp339
sg82
g270
sg75
(lp340
g68
(g89
g70
NtRp341
(dp342
g73
(dp343
g93
g94
ssg82
g337
sg75
(lp344
S'httponly'
p345
asbag68
(g89
g70
NtRp346
(dp347
g73
(dp348
g100
g101
ssg82
g337
sg75
(lp349
S':'
asbag68
(g89
g70
NtRp350
(dp351
g73
(dp352
sg82
g337
sg75
(lp353
g68
(g69
g70
NtRp354
(dp355
g73
(dp356
g81
I3
ssg82
g350
sg75
(lp357
S''
asbasbasbag68
(g84
g70
NtRp358
(dp359
g73
(dp360
sg82
g270
sg75
(lp361
g68
(g89
g70
NtRp362
(dp363
g73
(dp364
g93
g94
ssg82
g358
sg75
(lp365
S'max-age'
p366
asbag68
(g89
g70
NtRp367
(dp368
g73
(dp369
g100
g101
ssg82
g358
sg75
(lp370
S':'
asbag68
(g89
g70
NtRp371
(dp372
g73
(dp373
sg82
g358
sg75
(lp374
g68
(g69
g70
NtRp375
(dp376
g73
(dp377
g81
I3
ssg82
g371
sg75
(lp378
S''
asbasbasbag68
(g84
g70
NtRp379
(dp380
g73
(dp381
sg82
g270
sg75
(lp382
g68
(g89
g70
NtRp383
(dp384
g73
(dp385
g93
g94
ssg82
g379
sg75
(lp386
S'path'
p387
asbag68
(g89
g70
NtRp388
(dp389
g73
(dp390
g100
g101
ssg82
g379
sg75
(lp391
S':'
asbag68
(g89
g70
NtRp392
(dp393
g73
(dp394
sg82
g379
sg75
(lp395
g68
(g69
g70
NtRp396
(dp397
g73
(dp398
g81
I3
ssg82
g392
sg75
(lp399
S''
asbasbasbag68
(g84
g70
NtRp400
(dp401
g73
(dp402
sg82
g270
sg75
(lp403
g68
(g89
g70
NtRp404
(dp405
g73
(dp406
g93
g94
ssg82
g400
sg75
(lp407
S'secure'
p408
asbag68
(g89
g70
NtRp409
(dp410
g73
(dp411
g100
g101
ssg82
g400
sg75
(lp412
S':'
asbag68
(g89
g70
NtRp413
(dp414
g73
(dp415
sg82
g400
sg75
(lp416
g68
(g69
g70
NtRp417
(dp418
g73
(dp419
g81
I3
ssg82
g413
sg75
(lp420
S''
asbasbasbag68
(g84
g70
NtRp421
(dp422
g73
(dp423
sg82
g270
sg75
(lp424
g68
(g89
g70
NtRp425
(dp426
g73
(dp427
g93
g94
ssg82
g421
sg75
(lp428
S'version'
p429
asbag68
(g89
g70
NtRp430
(dp431
g73
(dp432
g100
g101
ssg82
g421
sg75
(lp433
S':'
asbag68
(g89
g70
NtRp434
(dp435
g73
(dp436
sg82
g421
sg75
(lp437
g68
(g69
g70
NtRp438
(dp439
g73
(dp440
g81
I3
ssg82
g434
sg75
(lp441
S''
asbasbasbasbasbasbasbag68
(g84
g70
NtRp442
(dp443
g73
(dp444
sg82
g245
sg75
(lp445
g68
(g89
g70
NtRp446
(dp447
g73
(dp448
g93
g94
ssg82
g442
sg75
(lp449
S'session_id_loja'
p450
asbag68
(g89
g70
NtRp451
(dp452
g73
(dp453
g100
g101
ssg82
g442
sg75
(lp454
S':'
asbag68
(g89
g70
NtRp455
(dp456
g73
(dp457
sg82
g442
sg75
(lp458
g68
(g69
g70
NtRp459
(dp460
g73
(dp461
g81
I4
ssg82
g455
sg75
(lp462
g68
(g77
g70
NtRp463
(dp464
g73
(dp465
g81
I3
ssg82
Nsg75
(lp466
g68
(g84
g70
NtRp467
(dp468
g73
(dp469
sg82
g463
sg75
(lp470
g68
(g89
g70
NtRp471
(dp472
g73
(dp473
g93
g94
ssg82
g467
sg75
(lp474
g282
asbag68
(g89
g70
NtRp475
(dp476
g73
(dp477
g100
g101
ssg82
g467
sg75
(lp478
S':'
asbag68
(g89
g70
NtRp479
(dp480
g73
(dp481
sg82
g467
sg75
(lp482
g68
(g69
g70
NtRp483
(dp484
g73
(dp485
g81
I3
ssg82
g479
sg75
(lp486
S''
asbasbasbag68
(g84
g70
NtRp487
(dp488
g73
(dp489
sg82
g463
sg75
(lp490
g68
(g89
g70
NtRp491
(dp492
g73
(dp493
g93
g94
ssg82
g487
sg75
(lp494
g303
asbag68
(g89
g70
NtRp495
(dp496
g73
(dp497
g100
g101
ssg82
g487
sg75
(lp498
S':'
asbag68
(g89
g70
NtRp499
(dp500
g73
(dp501
sg82
g487
sg75
(lp502
g68
(g69
g70
NtRp503
(dp504
g73
(dp505
g81
I3
ssg82
g499
sg75
(lp506
S''
asbasbasbag68
(g84
g70
NtRp507
(dp508
g73
(dp509
sg82
g463
sg75
(lp510
g68
(g89
g70
NtRp511
(dp512
g73
(dp513
g93
g94
ssg82
g507
sg75
(lp514
g324
asbag68
(g89
g70
NtRp515
(dp516
g73
(dp517
g100
g101
ssg82
g507
sg75
(lp518
S':'
asbag68
(g89
g70
NtRp519
(dp520
g73
(dp521
sg82
g507
sg75
(lp522
g68
(g69
g70
NtRp523
(dp524
g73
(dp525
g81
I3
ssg82
g519
sg75
(lp526
S''
asbasbasbag68
(g84
g70
NtRp527
(dp528
g73
(dp529
sg82
g463
sg75
(lp530
g68
(g89
g70
NtRp531
(dp532
g73
(dp533
g93
g94
ssg82
g527
sg75
(lp534
g345
asbag68
(g89
g70
NtRp535
(dp536
g73
(dp537
g100
g101
ssg82
g527
sg75
(lp538
S':'
asbag68
(g89
g70
NtRp539
(dp540
g73
(dp541
sg82
g527
sg75
(lp542
g68
(g69
g70
NtRp543
(dp544
g73
(dp545
g81
I3
ssg82
g539
sg75
(lp546
S''
asbasbasbag68
(g84
g70
NtRp547
(dp548
g73
(dp549
sg82
g463
sg75
(lp550
g68
(g89
g70
NtRp551
(dp552
g73
(dp553
g93
g94
ssg82
g547
sg75
(lp554
g366
asbag68
(g89
g70
NtRp555
(dp556
g73
(dp557
g100
g101
ssg82
g547
sg75
(lp558
S':'
asbag68
(g89
g70
NtRp559
(dp560
g73
(dp561
sg82
g547
sg75
(lp562
g68
(g69
g70
NtRp563
(dp564
g73
(dp565
g81
I3
ssg82
g559
sg75
(lp566
S''
asbasbasbag68
(g84
g70
NtRp567
(dp568
g73
(dp569
sg82
g463
sg75
(lp570
g68
(g89
g70
NtRp571
(dp572
g73
(dp573
g93
g94
ssg82
g567
sg75
(lp574
g387
asbag68
(g89
g70
NtRp575
(dp576
g73
(dp577
g100
g101
ssg82
g567
sg75
(lp578
S':'
asbag68
(g89
g70
NtRp579
(dp580
g73
(dp581
sg82
g567
sg75
(lp582
g68
(g69
g70
NtRp583
(dp584
g73
(dp585
g81
I3
ssg82
g579
sg75
(lp586
S''
asbasbasbag68
(g84
g70
NtRp587
(dp588
g73
(dp589
sg82
g463
sg75
(lp590
g68
(g89
g70
NtRp591
(dp592
g73
(dp593
g93
g94
ssg82
g587
sg75
(lp594
g408
asbag68
(g89
g70
NtRp595
(dp596
g73
(dp597
g100
g101
ssg82
g587
sg75
(lp598
S':'
asbag68
(g89
g70
NtRp599
(dp600
g73
(dp601
sg82
g587
sg75
(lp602
g68
(g69
g70
NtRp603
(dp604
g73
(dp605
g81
I3
ssg82
g599
sg75
(lp606
S''
asbasbasbag68
(g84
g70
NtRp607
(dp608
g73
(dp609
sg82
g463
sg75
(lp610
g68
(g89
g70
NtRp611
(dp612
g73
(dp613
g93
g94
ssg82
g607
sg75
(lp614
g429
asbag68
(g89
g70
NtRp615
(dp616
g73
(dp617
g100
g101
ssg82
g607
sg75
(lp618
S':'
asbag68
(g89
g70
NtRp619
(dp620
g73
(dp621
sg82
g607
sg75
(lp622
g68
(g69
g70
NtRp623
(dp624
g73
(dp625
g81
I3
ssg82
g619
sg75
(lp626
S''
asbasbasbasbasbasbasbasbasbasbasbag68
(g84
g70
NtRp627
(dp628
g73
(dp629
sg82
g78
sg75
(lp630
g68
(g89
g70
NtRp631
(dp632
g73
(dp633
g93
g94
ssg82
g627
sg75
(lp634
S'env'
p635
asbag68
(g89
g70
NtRp636
(dp637
g73
(dp638
g100
g101
ssg82
g627
sg75
(lp639
S':'
asbag68
(g89
g70
NtRp640
(dp641
g73
(dp642
sg82
g627
sg75
(lp643
g68
(g69
g70
NtRp644
(dp645
g73
(dp646
g81
I5
ssg82
g640
sg75
(lp647
g68
(g77
g70
NtRp648
(dp649
g73
(dp650
g81
I4
ssg82
Nsg75
(lp651
g68
(g84
g70
NtRp652
(dp653
g73
(dp654
sg82
g648
sg75
(lp655
g68
(g89
g70
NtRp656
(dp657
g73
(dp658
g93
g94
ssg82
g652
sg75
(lp659
S'app_folders'
p660
asbag68
(g89
g70
NtRp661
(dp662
g73
(dp663
g100
g101
ssg82
g652
sg75
(lp664
S':'
asbag68
(g89
g70
NtRp665
(dp666
g73
(dp667
sg82
g652
sg75
(lp668
g68
(g69
g70
NtRp669
(dp670
g73
(dp671
g81
I4
ssg82
g665
sg75
(lp672
S"set(['c:\\\\Users\\\\rochacbruno\\\\aula7_mar12\\\\web2py\\\\applications\\\\admin\\\\', 'c:\\\\Users\\\\rochacbruno\\\\aula7_mar12\\\\web2py\\\\applications\\\\loja\\\\'])"
p673
asbasbasbag68
(g84
g70
NtRp674
(dp675
g73
(dp676
sg82
g648
sg75
(lp677
g68
(g89
g70
NtRp678
(dp679
g73
(dp680
g93
g94
ssg82
g674
sg75
(lp681
S'applications_parent'
p682
asbag68
(g89
g70
NtRp683
(dp684
g73
(dp685
g100
g101
ssg82
g674
sg75
(lp686
S':'
asbag68
(g89
g70
NtRp687
(dp688
g73
(dp689
sg82
g674
sg75
(lp690
g68
(g69
g70
NtRp691
(dp692
g73
(dp693
g81
I4
ssg82
g687
sg75
(lp694
S'c:\\Users\\rochacbruno\\aula7_mar12\\web2py'
p695
asbasbasbag68
(g84
g70
NtRp696
(dp697
g73
(dp698
sg82
g648
sg75
(lp699
g68
(g89
g70
NtRp700
(dp701
g73
(dp702
g93
g94
ssg82
g696
sg75
(lp703
S'cmd_args'
p704
asbag68
(g89
g70
NtRp705
(dp706
g73
(dp707
g100
g101
ssg82
g696
sg75
(lp708
S':'
asbag68
(g89
g70
NtRp709
(dp710
g73
(dp711
sg82
g696
sg75
(lp712
g68
(g69
g70
NtRp713
(dp714
g73
(dp715
g81
I4
ssg82
g709
sg75
(lp716
g68
(g77
g70
NtRp717
(dp718
g73
(dp719
g81
I3
ssg82
Nsg75
(lp720
sbasbasbasbag68
(g84
g70
NtRp721
(dp722
g73
(dp723
sg82
g648
sg75
(lp724
g68
(g89
g70
NtRp725
(dp726
g73
(dp727
g93
g94
ssg82
g721
sg75
(lp728
S'cmd_options'
p729
asbag68
(g89
g70
NtRp730
(dp731
g73
(dp732
g100
g101
ssg82
g721
sg75
(lp733
S':'
asbag68
(g89
g70
NtRp734
(dp735
g73
(dp736
sg82
g721
sg75
(lp737
g68
(g69
g70
NtRp738
(dp739
g73
(dp740
g81
I4
ssg82
g734
sg75
(lp741
S"<Values at 0x2a037b0: {'verbose': False, 'ip': '127.0.0.1', 'shutdown_timeout': 5, 'taskbar': False, 'nocron': True, 'pid_filename': 'httpserver.pid', 'maxthreads': None, 'softcron': False, 'server_name': 'rochacbruno-HP', 'bpython': False, 'nogui': False, 'port': 8000, 'extcron': False, 'debuglevel': 30, 'test': None, 'folder': 'c:\\\\Users\\\\rochacbruno\\\\aula7_mar12\\\\web2py', 'config': '', 'import_models': False, 'winservice': '', 'shell': None, 'run': '', 'log_filename': 'httpserver.log', 'args': [''], 'socket_timeout': 5, 'ssl_ca_certificate': None, 'scheduler': None, 'profiler_filename': None, 'ssl_private_key': '', 'password': '1234', 'request_queue_size': 5, 'ssl_certificate': '', 'cronjob': False, 'numthreads': None, 'quiet': False, 'interfaces': None, 'minthreads': None, 'timeout': 10, 'plain': False, 'nobanner': False}>"
p742
asbasbasbag68
(g84
g70
NtRp743
(dp744
g73
(dp745
sg82
g648
sg75
(lp746
g68
(g89
g70
NtRp747
(dp748
g73
(dp749
g93
g94
ssg82
g743
sg75
(lp750
S'db_sessions'
p751
asbag68
(g89
g70
NtRp752
(dp753
g73
(dp754
g100
g101
ssg82
g743
sg75
(lp755
S':'
asbag68
(g89
g70
NtRp756
(dp757
g73
(dp758
sg82
g743
sg75
(lp759
g68
(g69
g70
NtRp760
(dp761
g73
(dp762
g81
I4
ssg82
g756
sg75
(lp763
S'set([])'
p764
asbasbasbag68
(g84
g70
NtRp765
(dp766
g73
(dp767
sg82
g648
sg75
(lp768
g68
(g89
g70
NtRp769
(dp770
g73
(dp771
g93
g94
ssg82
g765
sg75
(lp772
S'debugging'
p773
asbag68
(g89
g70
NtRp774
(dp775
g73
(dp776
g100
g101
ssg82
g765
sg75
(lp777
S':'
asbag68
(g89
g70
NtRp778
(dp779
g73
(dp780
sg82
g765
sg75
(lp781
g68
(g69
g70
NtRp782
(dp783
g73
(dp784
g81
I4
ssg82
g778
sg75
(lp785
g111
asbasbasbag68
(g84
g70
NtRp786
(dp787
g73
(dp788
sg82
g648
sg75
(lp789
g68
(g89
g70
NtRp790
(dp791
g73
(dp792
g93
g94
ssg82
g786
sg75
(lp793
S'gluon_parent'
p794
asbag68
(g89
g70
NtRp795
(dp796
g73
(dp797
g100
g101
ssg82
g786
sg75
(lp798
S':'
asbag68
(g89
g70
NtRp799
(dp800
g73
(dp801
sg82
g786
sg75
(lp802
g68
(g69
g70
NtRp803
(dp804
g73
(dp805
g81
I4
ssg82
g799
sg75
(lp806
S'c:\\Users\\rochacbruno\\aula7_mar12\\web2py'
p807
asbasbasbag68
(g84
g70
NtRp808
(dp809
g73
(dp810
sg82
g648
sg75
(lp811
g68
(g89
g70
NtRp812
(dp813
g73
(dp814
g93
g94
ssg82
g808
sg75
(lp815
S'http_accept'
p816
asbag68
(g89
g70
NtRp817
(dp818
g73
(dp819
g100
g101
ssg82
g808
sg75
(lp820
S':'
asbag68
(g89
g70
NtRp821
(dp822
g73
(dp823
sg82
g808
sg75
(lp824
g68
(g69
g70
NtRp825
(dp826
g73
(dp827
g81
I4
ssg82
g821
sg75
(lp828
S'text/html,application/xhtml+xml,application/xml;q=0.9,*/*;q=0.8'
p829
asbasbasbag68
(g84
g70
NtRp830
(dp831
g73
(dp832
sg82
g648
sg75
(lp833
g68
(g89
g70
NtRp834
(dp835
g73
(dp836
g93
g94
ssg82
g830
sg75
(lp837
S'http_accept_encoding'
p838
asbag68
(g89
g70
NtRp839
(dp840
g73
(dp841
g100
g101
ssg82
g830
sg75
(lp842
S':'
asbag68
(g89
g70
NtRp843
(dp844
g73
(dp845
sg82
g830
sg75
(lp846
g68
(g69
g70
NtRp847
(dp848
g73
(dp849
g81
I4
ssg82
g843
sg75
(lp850
S'gzip, deflate'
p851
asbasbasbag68
(g84
g70
NtRp852
(dp853
g73
(dp854
sg82
g648
sg75
(lp855
g68
(g89
g70
NtRp856
(dp857
g73
(dp858
g93
g94
ssg82
g852
sg75
(lp859
S'http_accept_language'
p860
asbag68
(g89
g70
NtRp861
(dp862
g73
(dp863
g100
g101
ssg82
g852
sg75
(lp864
S':'
asbag68
(g89
g70
NtRp865
(dp866
g73
(dp867
sg82
g852
sg75
(lp868
g68
(g69
g70
NtRp869
(dp870
g73
(dp871
g81
I4
ssg82
g865
sg75
(lp872
S'pt-br,en;q=0.8,pt;q=0.5,en-us;q=0.3'
p873
asbasbasbag68
(g84
g70
NtRp874
(dp875
g73
(dp876
sg82
g648
sg75
(lp877
g68
(g89
g70
NtRp878
(dp879
g73
(dp880
g93
g94
ssg82
g874
sg75
(lp881
S'http_cache_control'
p882
asbag68
(g89
g70
NtRp883
(dp884
g73
(dp885
g100
g101
ssg82
g874
sg75
(lp886
S':'
asbag68
(g89
g70
NtRp887
(dp888
g73
(dp889
sg82
g874
sg75
(lp890
g68
(g69
g70
NtRp891
(dp892
g73
(dp893
g81
I4
ssg82
g887
sg75
(lp894
S'max-age=0'
p895
asbasbasbag68
(g84
g70
NtRp896
(dp897
g73
(dp898
sg82
g648
sg75
(lp899
g68
(g89
g70
NtRp900
(dp901
g73
(dp902
g93
g94
ssg82
g896
sg75
(lp903
S'http_connection'
p904
asbag68
(g89
g70
NtRp905
(dp906
g73
(dp907
g100
g101
ssg82
g896
sg75
(lp908
S':'
asbag68
(g89
g70
NtRp909
(dp910
g73
(dp911
sg82
g896
sg75
(lp912
g68
(g69
g70
NtRp913
(dp914
g73
(dp915
g81
I4
ssg82
g909
sg75
(lp916
S'keep-alive'
p917
asbasbasbag68
(g84
g70
NtRp918
(dp919
g73
(dp920
sg82
g648
sg75
(lp921
g68
(g89
g70
NtRp922
(dp923
g73
(dp924
g93
g94
ssg82
g918
sg75
(lp925
S'http_cookie'
p926
asbag68
(g89
g70
NtRp927
(dp928
g73
(dp929
g100
g101
ssg82
g918
sg75
(lp930
S':'
asbag68
(g89
g70
NtRp931
(dp932
g73
(dp933
sg82
g918
sg75
(lp934
g68
(g69
g70
NtRp935
(dp936
g73
(dp937
g81
I4
ssg82
g931
sg75
(lp938
S'session_id_admin=127.0.0.1-1f6127dc-b560-48e5-b2a5-8063d9f2445a; session_id_loja=127.0.0.1-fc5fcbdf-af43-4061-bb6c-65af14950ee6'
p939
asbasbasbag68
(g84
g70
NtRp940
(dp941
g73
(dp942
sg82
g648
sg75
(lp943
g68
(g89
g70
NtRp944
(dp945
g73
(dp946
g93
g94
ssg82
g940
sg75
(lp947
S'http_host'
p948
asbag68
(g89
g70
NtRp949
(dp950
g73
(dp951
g100
g101
ssg82
g940
sg75
(lp952
S':'
asbag68
(g89
g70
NtRp953
(dp954
g73
(dp955
sg82
g940
sg75
(lp956
g68
(g69
g70
NtRp957
(dp958
g73
(dp959
g81
I4
ssg82
g953
sg75
(lp960
S'localhost:8000'
p961
asbasbasbag68
(g84
g70
NtRp962
(dp963
g73
(dp964
sg82
g648
sg75
(lp965
g68
(g89
g70
NtRp966
(dp967
g73
(dp968
g93
g94
ssg82
g962
sg75
(lp969
S'http_user_agent'
p970
asbag68
(g89
g70
NtRp971
(dp972
g73
(dp973
g100
g101
ssg82
g962
sg75
(lp974
S':'
asbag68
(g89
g70
NtRp975
(dp976
g73
(dp977
sg82
g962
sg75
(lp978
g68
(g69
g70
NtRp979
(dp980
g73
(dp981
g81
I4
ssg82
g975
sg75
(lp982
S'Mozilla/5.0 (Windows NT 6.1; rv:11.0) Gecko/20100101 Firefox/11.0'
p983
asbasbasbag68
(g84
g70
NtRp984
(dp985
g73
(dp986
sg82
g648
sg75
(lp987
g68
(g89
g70
NtRp988
(dp989
g73
(dp990
g93
g94
ssg82
g984
sg75
(lp991
S'is_jython'
p992
asbag68
(g89
g70
NtRp993
(dp994
g73
(dp995
g100
g101
ssg82
g984
sg75
(lp996
S':'
asbag68
(g89
g70
NtRp997
(dp998
g73
(dp999
sg82
g984
sg75
(lp1000
g68
(g69
g70
NtRp1001
(dp1002
g73
(dp1003
g81
I4
ssg82
g997
sg75
(lp1004
g111
asbasbasbag68
(g84
g70
NtRp1005
(dp1006
g73
(dp1007
sg82
g648
sg75
(lp1008
g68
(g89
g70
NtRp1009
(dp1010
g73
(dp1011
g93
g94
ssg82
g1005
sg75
(lp1012
S'is_pypy'
p1013
asbag68
(g89
g70
NtRp1014
(dp1015
g73
(dp1016
g100
g101
ssg82
g1005
sg75
(lp1017
S':'
asbag68
(g89
g70
NtRp1018
(dp1019
g73
(dp1020
sg82
g1005
sg75
(lp1021
g68
(g69
g70
NtRp1022
(dp1023
g73
(dp1024
g81
I4
ssg82
g1018
sg75
(lp1025
g111
asbasbasbag68
(g84
g70
NtRp1026
(dp1027
g73
(dp1028
sg82
g648
sg75
(lp1029
g68
(g89
g70
NtRp1030
(dp1031
g73
(dp1032
g93
g94
ssg82
g1026
sg75
(lp1033
S'path_info'
p1034
asbag68
(g89
g70
NtRp1035
(dp1036
g73
(dp1037
g100
g101
ssg82
g1026
sg75
(lp1038
S':'
asbag68
(g89
g70
NtRp1039
(dp1040
g73
(dp1041
sg82
g1026
sg75
(lp1042
g68
(g69
g70
NtRp1043
(dp1044
g73
(dp1045
g81
I4
ssg82
g1039
sg75
(lp1046
S'/loja/home/index'
p1047
asbasbasbag68
(g84
g70
NtRp1048
(dp1049
g73
(dp1050
sg82
g648
sg75
(lp1051
g68
(g89
g70
NtRp1052
(dp1053
g73
(dp1054
g93
g94
ssg82
g1048
sg75
(lp1055
S'query_string'
p1056
asbag68
(g89
g70
NtRp1057
(dp1058
g73
(dp1059
g100
g101
ssg82
g1048
sg75
(lp1060
S':'
asbag68
(g89
g70
NtRp1061
(dp1062
g73
(dp1063
sg82
g1048
sg75
(lp1064
g68
(g69
g70
NtRp1065
(dp1066
g73
(dp1067
g81
I4
ssg82
g1061
sg75
(lp1068
S''
asbasbasbag68
(g84
g70
NtRp1069
(dp1070
g73
(dp1071
sg82
g648
sg75
(lp1072
g68
(g89
g70
NtRp1073
(dp1074
g73
(dp1075
g93
g94
ssg82
g1069
sg75
(lp1076
S'remote_addr'
p1077
asbag68
(g89
g70
NtRp1078
(dp1079
g73
(dp1080
g100
g101
ssg82
g1069
sg75
(lp1081
S':'
asbag68
(g89
g70
NtRp1082
(dp1083
g73
(dp1084
sg82
g1069
sg75
(lp1085
g68
(g69
g70
NtRp1086
(dp1087
g73
(dp1088
g81
I4
ssg82
g1082
sg75
(lp1089
g201
asbasbasbag68
(g84
g70
NtRp1090
(dp1091
g73
(dp1092
sg82
g648
sg75
(lp1093
g68
(g89
g70
NtRp1094
(dp1095
g73
(dp1096
g93
g94
ssg82
g1090
sg75
(lp1097
S'remote_port'
p1098
asbag68
(g89
g70
NtRp1099
(dp1100
g73
(dp1101
g100
g101
ssg82
g1090
sg75
(lp1102
S':'
asbag68
(g89
g70
NtRp1103
(dp1104
g73
(dp1105
sg82
g1090
sg75
(lp1106
g68
(g69
g70
NtRp1107
(dp1108
g73
(dp1109
g81
I4
ssg82
g1103
sg75
(lp1110
S'51620'
p1111
asbasbasbag68
(g84
g70
NtRp1112
(dp1113
g73
(dp1114
sg82
g648
sg75
(lp1115
g68
(g89
g70
NtRp1116
(dp1117
g73
(dp1118
g93
g94
ssg82
g1112
sg75
(lp1119
S'request_method'
p1120
asbag68
(g89
g70
NtRp1121
(dp1122
g73
(dp1123
g100
g101
ssg82
g1112
sg75
(lp1124
S':'
asbag68
(g89
g70
NtRp1125
(dp1126
g73
(dp1127
sg82
g1112
sg75
(lp1128
g68
(g69
g70
NtRp1129
(dp1130
g73
(dp1131
g81
I4
ssg82
g1125
sg75
(lp1132
S'GET'
p1133
asbasbasbag68
(g84
g70
NtRp1134
(dp1135
g73
(dp1136
sg82
g648
sg75
(lp1137
g68
(g89
g70
NtRp1138
(dp1139
g73
(dp1140
g93
g94
ssg82
g1134
sg75
(lp1141
S'request_uri'
p1142
asbag68
(g89
g70
NtRp1143
(dp1144
g73
(dp1145
g100
g101
ssg82
g1134
sg75
(lp1146
S':'
asbag68
(g89
g70
NtRp1147
(dp1148
g73
(dp1149
sg82
g1134
sg75
(lp1150
g68
(g69
g70
NtRp1151
(dp1152
g73
(dp1153
g81
I4
ssg82
g1147
sg75
(lp1154
g1047
asbasbasbag68
(g84
g70
NtRp1155
(dp1156
g73
(dp1157
sg82
g648
sg75
(lp1158
g68
(g89
g70
NtRp1159
(dp1160
g73
(dp1161
g93
g94
ssg82
g1155
sg75
(lp1162
S'script_name'
p1163
asbag68
(g89
g70
NtRp1164
(dp1165
g73
(dp1166
g100
g101
ssg82
g1155
sg75
(lp1167
S':'
asbag68
(g89
g70
NtRp1168
(dp1169
g73
(dp1170
sg82
g1155
sg75
(lp1171
g68
(g69
g70
NtRp1172
(dp1173
g73
(dp1174
g81
I4
ssg82
g1168
sg75
(lp1175
S''
asbasbasbag68
(g84
g70
NtRp1176
(dp1177
g73
(dp1178
sg82
g648
sg75
(lp1179
g68
(g89
g70
NtRp1180
(dp1181
g73
(dp1182
g93
g94
ssg82
g1176
sg75
(lp1183
S'server_name'
p1184
asbag68
(g89
g70
NtRp1185
(dp1186
g73
(dp1187
g100
g101
ssg82
g1176
sg75
(lp1188
S':'
asbag68
(g89
g70
NtRp1189
(dp1190
g73
(dp1191
sg82
g1176
sg75
(lp1192
g68
(g69
g70
NtRp1193
(dp1194
g73
(dp1195
g81
I4
ssg82
g1189
sg75
(lp1196
S'rochacbruno-HP'
p1197
asbasbasbag68
(g84
g70
NtRp1198
(dp1199
g73
(dp1200
sg82
g648
sg75
(lp1201
g68
(g89
g70
NtRp1202
(dp1203
g73
(dp1204
g93
g94
ssg82
g1198
sg75
(lp1205
S'server_port'
p1206
asbag68
(g89
g70
NtRp1207
(dp1208
g73
(dp1209
g100
g101
ssg82
g1198
sg75
(lp1210
S':'
asbag68
(g89
g70
NtRp1211
(dp1212
g73
(dp1213
sg82
g1198
sg75
(lp1214
g68
(g69
g70
NtRp1215
(dp1216
g73
(dp1217
g81
I4
ssg82
g1211
sg75
(lp1218
S'8000'
p1219
asbasbasbag68
(g84
g70
NtRp1220
(dp1221
g73
(dp1222
sg82
g648
sg75
(lp1223
g68
(g89
g70
NtRp1224
(dp1225
g73
(dp1226
g93
g94
ssg82
g1220
sg75
(lp1227
S'server_protocol'
p1228
asbag68
(g89
g70
NtRp1229
(dp1230
g73
(dp1231
g100
g101
ssg82
g1220
sg75
(lp1232
S':'
asbag68
(g89
g70
NtRp1233
(dp1234
g73
(dp1235
sg82
g1220
sg75
(lp1236
g68
(g69
g70
NtRp1237
(dp1238
g73
(dp1239
g81
I4
ssg82
g1233
sg75
(lp1240
S'HTTP/1.1'
p1241
asbasbasbag68
(g84
g70
NtRp1242
(dp1243
g73
(dp1244
sg82
g648
sg75
(lp1245
g68
(g89
g70
NtRp1246
(dp1247
g73
(dp1248
g93
g94
ssg82
g1242
sg75
(lp1249
S'server_software'
p1250
asbag68
(g89
g70
NtRp1251
(dp1252
g73
(dp1253
g100
g101
ssg82
g1242
sg75
(lp1254
S':'
asbag68
(g89
g70
NtRp1255
(dp1256
g73
(dp1257
sg82
g1242
sg75
(lp1258
g68
(g69
g70
NtRp1259
(dp1260
g73
(dp1261
g81
I4
ssg82
g1255
sg75
(lp1262
S'Rocket 1.2.4'
p1263
asbasbasbag68
(g84
g70
NtRp1264
(dp1265
g73
(dp1266
sg82
g648
sg75
(lp1267
g68
(g89
g70
NtRp1268
(dp1269
g73
(dp1270
g93
g94
ssg82
g1264
sg75
(lp1271
S'web2py_original_uri'
p1272
asbag68
(g89
g70
NtRp1273
(dp1274
g73
(dp1275
g100
g101
ssg82
g1264
sg75
(lp1276
S':'
asbag68
(g89
g70
NtRp1277
(dp1278
g73
(dp1279
sg82
g1264
sg75
(lp1280
g68
(g69
g70
NtRp1281
(dp1282
g73
(dp1283
g81
I4
ssg82
g1277
sg75
(lp1284
g1047
asbasbasbag68
(g84
g70
NtRp1285
(dp1286
g73
(dp1287
sg82
g648
sg75
(lp1288
g68
(g89
g70
NtRp1289
(dp1290
g73
(dp1291
g93
g94
ssg82
g1285
sg75
(lp1292
S'web2py_path'
p1293
asbag68
(g89
g70
NtRp1294
(dp1295
g73
(dp1296
g100
g101
ssg82
g1285
sg75
(lp1297
S':'
asbag68
(g89
g70
NtRp1298
(dp1299
g73
(dp1300
sg82
g1285
sg75
(lp1301
g68
(g69
g70
NtRp1302
(dp1303
g73
(dp1304
g81
I4
ssg82
g1298
sg75
(lp1305
g695
asbasbasbag68
(g84
g70
NtRp1306
(dp1307
g73
(dp1308
sg82
g648
sg75
(lp1309
g68
(g89
g70
NtRp1310
(dp1311
g73
(dp1312
g93
g94
ssg82
g1306
sg75
(lp1313
S'web2py_version'
p1314
asbag68
(g89
g70
NtRp1315
(dp1316
g73
(dp1317
g100
g101
ssg82
g1306
sg75
(lp1318
S':'
asbag68
(g89
g70
NtRp1319
(dp1320
g73
(dp1321
sg82
g1306
sg75
(lp1322
g68
(g69
g70
NtRp1323
(dp1324
g73
(dp1325
g81
I4
ssg82
g1319
sg75
(lp1326
g68
(g77
g70
NtRp1327
(dp1328
g73
(dp1329
g81
I3
ssg82
Nsg75
(lp1330
g68
(g84
g70
NtRp1331
(dp1332
g73
(dp1333
sg82
g1327
sg75
(lp1334
g68
(g89
g70
NtRp1335
(dp1336
g73
(dp1337
sg82
g1331
sg75
(lp1338
g68
(g69
g70
NtRp1339
(dp1340
g73
(dp1341
g81
I3
ssg82
g1335
sg75
(lp1342
S'1'
asbasbasbag68
(g84
g70
NtRp1343
(dp1344
g73
(dp1345
sg82
g1327
sg75
(lp1346
g68
(g89
g70
NtRp1347
(dp1348
g73
(dp1349
sg82
g1343
sg75
(lp1350
g68
(g69
g70
NtRp1351
(dp1352
g73
(dp1353
g81
I3
ssg82
g1347
sg75
(lp1354
S'99'
p1355
asbasbasbag68
(g84
g70
NtRp1356
(dp1357
g73
(dp1358
sg82
g1327
sg75
(lp1359
g68
(g89
g70
NtRp1360
(dp1361
g73
(dp1362
sg82
g1356
sg75
(lp1363
g68
(g69
g70
NtRp1364
(dp1365
g73
(dp1366
g81
I3
ssg82
g1360
sg75
(lp1367
S'7'
asbasbasbag68
(g84
g70
NtRp1368
(dp1369
g73
(dp1370
sg82
g1327
sg75
(lp1371
g68
(g89
g70
NtRp1372
(dp1373
g73
(dp1374
sg82
g1368
sg75
(lp1375
g68
(g69
g70
NtRp1376
(dp1377
g73
(dp1378
g81
I3
ssg82
g1372
sg75
(lp1379
S'datetime.datetime(2012, 3, 4, 22, 12, 8)'
p1380
asbasbasbag68
(g84
g70
NtRp1381
(dp1382
g73
(dp1383
sg82
g1327
sg75
(lp1384
g68
(g89
g70
NtRp1385
(dp1386
g73
(dp1387
sg82
g1381
sg75
(lp1388
g68
(g69
g70
NtRp1389
(dp1390
g73
(dp1391
g81
I3
ssg82
g1385
sg75
(lp1392
S'stable'
p1393
asbasbasbasbasbasbasbag68
(g84
g70
NtRp1394
(dp1395
g73
(dp1396
sg82
g648
sg75
(lp1397
g68
(g89
g70
NtRp1398
(dp1399
g73
(dp1400
g93
g94
ssg82
g1394
sg75
(lp1401
S'wsgi_errors'
p1402
asbag68
(g89
g70
NtRp1403
(dp1404
g73
(dp1405
g100
g101
ssg82
g1394
sg75
(lp1406
S':'
asbag68
(g89
g70
NtRp1407
(dp1408
g73
(dp1409
sg82
g1394
sg75
(lp1410
g68
(g69
g70
NtRp1411
(dp1412
g73
(dp1413
g81
I4
ssg82
g1407
sg75
(lp1414
S"<open file '<stderr>', mode 'w' at 0x012B50D0>"
p1415
asbasbasbag68
(g84
g70
NtRp1416
(dp1417
g73
(dp1418
sg82
g648
sg75
(lp1419
g68
(g89
g70
NtRp1420
(dp1421
g73
(dp1422
g93
g94
ssg82
g1416
sg75
(lp1423
S'wsgi_file_wrapper'
p1424
asbag68
(g89
g70
NtRp1425
(dp1426
g73
(dp1427
g100
g101
ssg82
g1416
sg75
(lp1428
S':'
asbag68
(g89
g70
NtRp1429
(dp1430
g73
(dp1431
sg82
g1416
sg75
(lp1432
g68
(g69
g70
NtRp1433
(dp1434
g73
(dp1435
g81
I4
ssg82
g1429
sg75
(lp1436
S'<class wsgiref.util.FileWrapper at 0x02946E30>'
p1437
asbasbasbag68
(g84
g70
NtRp1438
(dp1439
g73
(dp1440
sg82
g648
sg75
(lp1441
g68
(g89
g70
NtRp1442
(dp1443
g73
(dp1444
g93
g94
ssg82
g1438
sg75
(lp1445
S'wsgi_input'
p1446
asbag68
(g89
g70
NtRp1447
(dp1448
g73
(dp1449
g100
g101
ssg82
g1438
sg75
(lp1450
S':'
asbag68
(g89
g70
NtRp1451
(dp1452
g73
(dp1453
sg82
g1438
sg75
(lp1454
g68
(g69
g70
NtRp1455
(dp1456
g73
(dp1457
g81
I4
ssg82
g1451
sg75
(lp1458
S'<socket._fileobject object at 0x02B6B9F0>'
p1459
asbasbasbag68
(g84
g70
NtRp1460
(dp1461
g73
(dp1462
sg82
g648
sg75
(lp1463
g68
(g89
g70
NtRp1464
(dp1465
g73
(dp1466
g93
g94
ssg82
g1460
sg75
(lp1467
S'wsgi_multiprocess'
p1468
asbag68
(g89
g70
NtRp1469
(dp1470
g73
(dp1471
g100
g101
ssg82
g1460
sg75
(lp1472
S':'
asbag68
(g89
g70
NtRp1473
(dp1474
g73
(dp1475
sg82
g1460
sg75
(lp1476
g68
(g69
g70
NtRp1477
(dp1478
g73
(dp1479
g81
I4
ssg82
g1473
sg75
(lp1480
g111
asbasbasbag68
(g84
g70
NtRp1481
(dp1482
g73
(dp1483
sg82
g648
sg75
(lp1484
g68
(g89
g70
NtRp1485
(dp1486
g73
(dp1487
g93
g94
ssg82
g1481
sg75
(lp1488
S'wsgi_multithread'
p1489
asbag68
(g89
g70
NtRp1490
(dp1491
g73
(dp1492
g100
g101
ssg82
g1481
sg75
(lp1493
S':'
asbag68
(g89
g70
NtRp1494
(dp1495
g73
(dp1496
sg82
g1481
sg75
(lp1497
g68
(g69
g70
NtRp1498
(dp1499
g73
(dp1500
g81
I4
ssg82
g1494
sg75
(lp1501
S'True'
p1502
asbasbasbag68
(g84
g70
NtRp1503
(dp1504
g73
(dp1505
sg82
g648
sg75
(lp1506
g68
(g89
g70
NtRp1507
(dp1508
g73
(dp1509
g93
g94
ssg82
g1503
sg75
(lp1510
S'wsgi_run_once'
p1511
asbag68
(g89
g70
NtRp1512
(dp1513
g73
(dp1514
g100
g101
ssg82
g1503
sg75
(lp1515
S':'
asbag68
(g89
g70
NtRp1516
(dp1517
g73
(dp1518
sg82
g1503
sg75
(lp1519
g68
(g69
g70
NtRp1520
(dp1521
g73
(dp1522
g81
I4
ssg82
g1516
sg75
(lp1523
g111
asbasbasbag68
(g84
g70
NtRp1524
(dp1525
g73
(dp1526
sg82
g648
sg75
(lp1527
g68
(g89
g70
NtRp1528
(dp1529
g73
(dp1530
g93
g94
ssg82
g1524
sg75
(lp1531
S'wsgi_url_scheme'
p1532
asbag68
(g89
g70
NtRp1533
(dp1534
g73
(dp1535
g100
g101
ssg82
g1524
sg75
(lp1536
S':'
asbag68
(g89
g70
NtRp1537
(dp1538
g73
(dp1539
sg82
g1524
sg75
(lp1540
g68
(g69
g70
NtRp1541
(dp1542
g73
(dp1543
g81
I4
ssg82
g1537
sg75
(lp1544
S'http'
p1545
asbasbasbag68
(g84
g70
NtRp1546
(dp1547
g73
(dp1548
sg82
g648
sg75
(lp1549
g68
(g89
g70
NtRp1550
(dp1551
g73
(dp1552
g93
g94
ssg82
g1546
sg75
(lp1553
S'wsgi_version'
p1554
asbag68
(g89
g70
NtRp1555
(dp1556
g73
(dp1557
g100
g101
ssg82
g1546
sg75
(lp1558
S':'
asbag68
(g89
g70
NtRp1559
(dp1560
g73
(dp1561
sg82
g1546
sg75
(lp1562
g68
(g69
g70
NtRp1563
(dp1564
g73
(dp1565
g81
I4
ssg82
g1559
sg75
(lp1566
g68
(g77
g70
NtRp1567
(dp1568
g73
(dp1569
g81
I3
ssg82
Nsg75
(lp1570
g68
(g84
g70
NtRp1571
(dp1572
g73
(dp1573
sg82
g1567
sg75
(lp1574
g68
(g89
g70
NtRp1575
(dp1576
g73
(dp1577
sg82
g1571
sg75
(lp1578
g68
(g69
g70
NtRp1579
(dp1580
g73
(dp1581
g81
I3
ssg82
g1575
sg75
(lp1582
S'1'
asbasbasbag68
(g84
g70
NtRp1583
(dp1584
g73
(dp1585
sg82
g1567
sg75
(lp1586
g68
(g89
g70
NtRp1587
(dp1588
g73
(dp1589
sg82
g1583
sg75
(lp1590
g68
(g69
g70
NtRp1591
(dp1592
g73
(dp1593
g81
I3
ssg82
g1587
sg75
(lp1594
S'0'
asbasbasbasbasbasbasbasbasbasbasbag68
(g84
g70
NtRp1595
(dp1596
g73
(dp1597
sg82
g78
sg75
(lp1598
g68
(g89
g70
NtRp1599
(dp1600
g73
(dp1601
g93
g94
ssg82
g1595
sg75
(lp1602
S'extension'
p1603
asbag68
(g89
g70
NtRp1604
(dp1605
g73
(dp1606
g100
g101
ssg82
g1595
sg75
(lp1607
S':'
asbag68
(g89
g70
NtRp1608
(dp1609
g73
(dp1610
sg82
g1595
sg75
(lp1611
g68
(g69
g70
NtRp1612
(dp1613
g73
(dp1614
g81
I5
ssg82
g1608
sg75
(lp1615
S'html'
p1616
asbasbasbag68
(g84
g70
NtRp1617
(dp1618
g73
(dp1619
sg82
g78
sg75
(lp1620
g68
(g89
g70
NtRp1621
(dp1622
g73
(dp1623
g93
g94
ssg82
g1617
sg75
(lp1624
S'folder'
p1625
asbag68
(g89
g70
NtRp1626
(dp1627
g73
(dp1628
g100
g101
ssg82
g1617
sg75
(lp1629
S':'
asbag68
(g89
g70
NtRp1630
(dp1631
g73
(dp1632
sg82
g1617
sg75
(lp1633
g68
(g69
g70
NtRp1634
(dp1635
g73
(dp1636
g81
I5
ssg82
g1630
sg75
(lp1637
S'c:\\Users\\rochacbruno\\aula7_mar12\\web2py\\applications\\loja\\'
p1638
asbasbasbag68
(g84
g70
NtRp1639
(dp1640
g73
(dp1641
sg82
g78
sg75
(lp1642
g68
(g89
g70
NtRp1643
(dp1644
g73
(dp1645
g93
g94
ssg82
g1639
sg75
(lp1646
S'function'
p1647
asbag68
(g89
g70
NtRp1648
(dp1649
g73
(dp1650
g100
g101
ssg82
g1639
sg75
(lp1651
S':'
asbag68
(g89
g70
NtRp1652
(dp1653
g73
(dp1654
sg82
g1639
sg75
(lp1655
g68
(g69
g70
NtRp1656
(dp1657
g73
(dp1658
g81
I5
ssg82
g1652
sg75
(lp1659
S'index'
p1660
asbasbasbag68
(g84
g70
NtRp1661
(dp1662
g73
(dp1663
sg82
g78
sg75
(lp1664
g68
(g89
g70
NtRp1665
(dp1666
g73
(dp1667
g93
g94
ssg82
g1661
sg75
(lp1668
S'get_vars'
p1669
asbag68
(g89
g70
NtRp1670
(dp1671
g73
(dp1672
g100
g101
ssg82
g1661
sg75
(lp1673
S':'
asbag68
(g89
g70
NtRp1674
(dp1675
g73
(dp1676
sg82
g1661
sg75
(lp1677
g68
(g69
g70
NtRp1678
(dp1679
g73
(dp1680
g81
I5
ssg82
g1674
sg75
(lp1681
g68
(g77
g70
NtRp1682
(dp1683
g73
(dp1684
g81
I4
ssg82
Nsg75
(lp1685
sbasbasbasbag68
(g84
g70
NtRp1686
(dp1687
g73
(dp1688
sg82
g78
sg75
(lp1689
g68
(g89
g70
NtRp1690
(dp1691
g73
(dp1692
g93
g94
ssg82
g1686
sg75
(lp1693
S'global_settings'
p1694
asbag68
(g89
g70
NtRp1695
(dp1696
g73
(dp1697
g100
g101
ssg82
g1686
sg75
(lp1698
S':'
asbag68
(g89
g70
NtRp1699
(dp1700
g73
(dp1701
sg82
g1686
sg75
(lp1702
g68
(g69
g70
NtRp1703
(dp1704
g73
(dp1705
g81
I5
ssg82
g1699
sg75
(lp1706
g68
(g77
g70
NtRp1707
(dp1708
g73
(dp1709
g81
I4
ssg82
Nsg75
(lp1710
g68
(g84
g70
NtRp1711
(dp1712
g73
(dp1713
sg82
g1707
sg75
(lp1714
g68
(g89
g70
NtRp1715
(dp1716
g73
(dp1717
g93
g94
ssg82
g1711
sg75
(lp1718
g660
asbag68
(g89
g70
NtRp1719
(dp1720
g73
(dp1721
g100
g101
ssg82
g1711
sg75
(lp1722
S':'
asbag68
(g89
g70
NtRp1723
(dp1724
g73
(dp1725
sg82
g1711
sg75
(lp1726
g68
(g69
g70
NtRp1727
(dp1728
g73
(dp1729
g81
I4
ssg82
g1723
sg75
(lp1730
S"set(['c:\\\\Users\\\\rochacbruno\\\\aula7_mar12\\\\web2py\\\\applications\\\\admin\\\\', 'c:\\\\Users\\\\rochacbruno\\\\aula7_mar12\\\\web2py\\\\applications\\\\loja\\\\'])"
p1731
asbasbasbag68
(g84
g70
NtRp1732
(dp1733
g73
(dp1734
sg82
g1707
sg75
(lp1735
g68
(g89
g70
NtRp1736
(dp1737
g73
(dp1738
g93
g94
ssg82
g1732
sg75
(lp1739
g682
asbag68
(g89
g70
NtRp1740
(dp1741
g73
(dp1742
g100
g101
ssg82
g1732
sg75
(lp1743
S':'
asbag68
(g89
g70
NtRp1744
(dp1745
g73
(dp1746
sg82
g1732
sg75
(lp1747
g68
(g69
g70
NtRp1748
(dp1749
g73
(dp1750
g81
I4
ssg82
g1744
sg75
(lp1751
g695
asbasbasbag68
(g84
g70
NtRp1752
(dp1753
g73
(dp1754
sg82
g1707
sg75
(lp1755
g68
(g89
g70
NtRp1756
(dp1757
g73
(dp1758
g93
g94
ssg82
g1752
sg75
(lp1759
g704
asbag68
(g89
g70
NtRp1760
(dp1761
g73
(dp1762
g100
g101
ssg82
g1752
sg75
(lp1763
S':'
asbag68
(g89
g70
NtRp1764
(dp1765
g73
(dp1766
sg82
g1752
sg75
(lp1767
g68
(g69
g70
NtRp1768
(dp1769
g73
(dp1770
g81
I4
ssg82
g1764
sg75
(lp1771
g68
(g77
g70
NtRp1772
(dp1773
g73
(dp1774
g81
I3
ssg82
Nsg75
(lp1775
sbasbasbasbag68
(g84
g70
NtRp1776
(dp1777
g73
(dp1778
sg82
g1707
sg75
(lp1779
g68
(g89
g70
NtRp1780
(dp1781
g73
(dp1782
g93
g94
ssg82
g1776
sg75
(lp1783
g729
asbag68
(g89
g70
NtRp1784
(dp1785
g73
(dp1786
g100
g101
ssg82
g1776
sg75
(lp1787
S':'
asbag68
(g89
g70
NtRp1788
(dp1789
g73
(dp1790
sg82
g1776
sg75
(lp1791
g68
(g69
g70
NtRp1792
(dp1793
g73
(dp1794
g81
I4
ssg82
g1788
sg75
(lp1795
S"<Values at 0x2a037b0: {'verbose': False, 'ip': '127.0.0.1', 'shutdown_timeout': 5, 'taskbar': False, 'nocron': True, 'pid_filename': 'httpserver.pid', 'maxthreads': None, 'softcron': False, 'server_name': 'rochacbruno-HP', 'bpython': False, 'nogui': False, 'port': 8000, 'extcron': False, 'debuglevel': 30, 'test': None, 'folder': 'c:\\\\Users\\\\rochacbruno\\\\aula7_mar12\\\\web2py', 'config': '', 'import_models': False, 'winservice': '', 'shell': None, 'run': '', 'log_filename': 'httpserver.log', 'args': [''], 'socket_timeout': 5, 'ssl_ca_certificate': None, 'scheduler': None, 'profiler_filename': None, 'ssl_private_key': '', 'password': '1234', 'request_queue_size': 5, 'ssl_certificate': '', 'cronjob': False, 'numthreads': None, 'quiet': False, 'interfaces': None, 'minthreads': None, 'timeout': 10, 'plain': False, 'nobanner': False}>"
p1796
asbasbasbag68
(g84
g70
NtRp1797
(dp1798
g73
(dp1799
sg82
g1707
sg75
(lp1800
g68
(g89
g70
NtRp1801
(dp1802
g73
(dp1803
g93
g94
ssg82
g1797
sg75
(lp1804
g751
asbag68
(g89
g70
NtRp1805
(dp1806
g73
(dp1807
g100
g101
ssg82
g1797
sg75
(lp1808
S':'
asbag68
(g89
g70
NtRp1809
(dp1810
g73
(dp1811
sg82
g1797
sg75
(lp1812
g68
(g69
g70
NtRp1813
(dp1814
g73
(dp1815
g81
I4
ssg82
g1809
sg75
(lp1816
S'set([])'
p1817
asbasbasbag68
(g84
g70
NtRp1818
(dp1819
g73
(dp1820
sg82
g1707
sg75
(lp1821
g68
(g89
g70
NtRp1822
(dp1823
g73
(dp1824
g93
g94
ssg82
g1818
sg75
(lp1825
g773
asbag68
(g89
g70
NtRp1826
(dp1827
g73
(dp1828
g100
g101
ssg82
g1818
sg75
(lp1829
S':'
asbag68
(g89
g70
NtRp1830
(dp1831
g73
(dp1832
sg82
g1818
sg75
(lp1833
g68
(g69
g70
NtRp1834
(dp1835
g73
(dp1836
g81
I4
ssg82
g1830
sg75
(lp1837
g111
asbasbasbag68
(g84
g70
NtRp1838
(dp1839
g73
(dp1840
sg82
g1707
sg75
(lp1841
g68
(g89
g70
NtRp1842
(dp1843
g73
(dp1844
g93
g94
ssg82
g1838
sg75
(lp1845
g794
asbag68
(g89
g70
NtRp1846
(dp1847
g73
(dp1848
g100
g101
ssg82
g1838
sg75
(lp1849
S':'
asbag68
(g89
g70
NtRp1850
(dp1851
g73
(dp1852
sg82
g1838
sg75
(lp1853
g68
(g69
g70
NtRp1854
(dp1855
g73
(dp1856
g81
I4
ssg82
g1850
sg75
(lp1857
g807
asbasbasbag68
(g84
g70
NtRp1858
(dp1859
g73
(dp1860
sg82
g1707
sg75
(lp1861
g68
(g89
g70
NtRp1862
(dp1863
g73
(dp1864
g93
g94
ssg82
g1858
sg75
(lp1865
g992
asbag68
(g89
g70
NtRp1866
(dp1867
g73
(dp1868
g100
g101
ssg82
g1858
sg75
(lp1869
S':'
asbag68
(g89
g70
NtRp1870
(dp1871
g73
(dp1872
sg82
g1858
sg75
(lp1873
g68
(g69
g70
NtRp1874
(dp1875
g73
(dp1876
g81
I4
ssg82
g1870
sg75
(lp1877
g111
asbasbasbag68
(g84
g70
NtRp1878
(dp1879
g73
(dp1880
sg82
g1707
sg75
(lp1881
g68
(g89
g70
NtRp1882
(dp1883
g73
(dp1884
g93
g94
ssg82
g1878
sg75
(lp1885
g1013
asbag68
(g89
g70
NtRp1886
(dp1887
g73
(dp1888
g100
g101
ssg82
g1878
sg75
(lp1889
S':'
asbag68
(g89
g70
NtRp1890
(dp1891
g73
(dp1892
sg82
g1878
sg75
(lp1893
g68
(g69
g70
NtRp1894
(dp1895
g73
(dp1896
g81
I4
ssg82
g1890
sg75
(lp1897
g111
asbasbasbag68
(g84
g70
NtRp1898
(dp1899
g73
(dp1900
sg82
g1707
sg75
(lp1901
g68
(g89
g70
NtRp1902
(dp1903
g73
(dp1904
g93
g94
ssg82
g1898
sg75
(lp1905
g1314
asbag68
(g89
g70
NtRp1906
(dp1907
g73
(dp1908
g100
g101
ssg82
g1898
sg75
(lp1909
S':'
asbag68
(g89
g70
NtRp1910
(dp1911
g73
(dp1912
sg82
g1898
sg75
(lp1913
g68
(g69
g70
NtRp1914
(dp1915
g73
(dp1916
g81
I4
ssg82
g1910
sg75
(lp1917
g68
(g77
g70
NtRp1918
(dp1919
g73
(dp1920
g81
I3
ssg82
Nsg75
(lp1921
g68
(g84
g70
NtRp1922
(dp1923
g73
(dp1924
sg82
g1918
sg75
(lp1925
g68
(g89
g70
NtRp1926
(dp1927
g73
(dp1928
sg82
g1922
sg75
(lp1929
g68
(g69
g70
NtRp1930
(dp1931
g73
(dp1932
g81
I3
ssg82
g1926
sg75
(lp1933
S'1'
asbasbasbag68
(g84
g70
NtRp1934
(dp1935
g73
(dp1936
sg82
g1918
sg75
(lp1937
g68
(g89
g70
NtRp1938
(dp1939
g73
(dp1940
sg82
g1934
sg75
(lp1941
g68
(g69
g70
NtRp1942
(dp1943
g73
(dp1944
g81
I3
ssg82
g1938
sg75
(lp1945
S'99'
p1946
asbasbasbag68
(g84
g70
NtRp1947
(dp1948
g73
(dp1949
sg82
g1918
sg75
(lp1950
g68
(g89
g70
NtRp1951
(dp1952
g73
(dp1953
sg82
g1947
sg75
(lp1954
g68
(g69
g70
NtRp1955
(dp1956
g73
(dp1957
g81
I3
ssg82
g1951
sg75
(lp1958
S'7'
asbasbasbag68
(g84
g70
NtRp1959
(dp1960
g73
(dp1961
sg82
g1918
sg75
(lp1962
g68
(g89
g70
NtRp1963
(dp1964
g73
(dp1965
sg82
g1959
sg75
(lp1966
g68
(g69
g70
NtRp1967
(dp1968
g73
(dp1969
g81
I3
ssg82
g1963
sg75
(lp1970
S'datetime.datetime(2012, 3, 4, 22, 12, 8)'
p1971
asbasbasbag68
(g84
g70
NtRp1972
(dp1973
g73
(dp1974
sg82
g1918
sg75
(lp1975
g68
(g89
g70
NtRp1976
(dp1977
g73
(dp1978
sg82
g1972
sg75
(lp1979
g68
(g69
g70
NtRp1980
(dp1981
g73
(dp1982
g81
I3
ssg82
g1976
sg75
(lp1983
g1393
asbasbasbasbasbasbasbasbasbasbasbag68
(g84
g70
NtRp1984
(dp1985
g73
(dp1986
sg82
g78
sg75
(lp1987
g68
(g89
g70
NtRp1988
(dp1989
g73
(dp1990
g93
g94
ssg82
g1984
sg75
(lp1991
S'is_https'
p1992
asbag68
(g89
g70
NtRp1993
(dp1994
g73
(dp1995
g100
g101
ssg82
g1984
sg75
(lp1996
S':'
asbag68
(g89
g70
NtRp1997
(dp1998
g73
(dp1999
sg82
g1984
sg75
(lp2000
g68
(g69
g70
NtRp2001
(dp2002
g73
(dp2003
g81
I5
ssg82
g1997
sg75
(lp2004
g111
asbasbasbag68
(g84
g70
NtRp2005
(dp2006
g73
(dp2007
sg82
g78
sg75
(lp2008
g68
(g89
g70
NtRp2009
(dp2010
g73
(dp2011
g93
g94
ssg82
g2005
sg75
(lp2012
S'is_local'
p2013
asbag68
(g89
g70
NtRp2014
(dp2015
g73
(dp2016
g100
g101
ssg82
g2005
sg75
(lp2017
S':'
asbag68
(g89
g70
NtRp2018
(dp2019
g73
(dp2020
sg82
g2005
sg75
(lp2021
g68
(g69
g70
NtRp2022
(dp2023
g73
(dp2024
g81
I5
ssg82
g2018
sg75
(lp2025
g1502
asbasbasbag68
(g84
g70
NtRp2026
(dp2027
g73
(dp2028
sg82
g78
sg75
(lp2029
g68
(g89
g70
NtRp2030
(dp2031
g73
(dp2032
g93
g94
ssg82
g2026
sg75
(lp2033
S'is_restful'
p2034
asbag68
(g89
g70
NtRp2035
(dp2036
g73
(dp2037
g100
g101
ssg82
g2026
sg75
(lp2038
S':'
asbag68
(g89
g70
NtRp2039
(dp2040
g73
(dp2041
sg82
g2026
sg75
(lp2042
g68
(g69
g70
NtRp2043
(dp2044
g73
(dp2045
g81
I5
ssg82
g2039
sg75
(lp2046
g111
asbasbasbag68
(g84
g70
NtRp2047
(dp2048
g73
(dp2049
sg82
g78
sg75
(lp2050
g68
(g89
g70
NtRp2051
(dp2052
g73
(dp2053
g93
g94
ssg82
g2047
sg75
(lp2054
S'now'
p2055
asbag68
(g89
g70
NtRp2056
(dp2057
g73
(dp2058
g100
g101
ssg82
g2047
sg75
(lp2059
S':'
asbag68
(g89
g70
NtRp2060
(dp2061
g73
(dp2062
sg82
g2047
sg75
(lp2063
g68
(g69
g70
NtRp2064
(dp2065
g73
(dp2066
g81
I5
ssg82
g2060
sg75
(lp2067
S'datetime.datetime(2012, 4, 19, 20, 38, 1, 795000)'
p2068
asbasbasbag68
(g84
g70
NtRp2069
(dp2070
g73
(dp2071
sg82
g78
sg75
(lp2072
g68
(g89
g70
NtRp2073
(dp2074
g73
(dp2075
g93
g94
ssg82
g2069
sg75
(lp2076
S'post_vars'
p2077
asbag68
(g89
g70
NtRp2078
(dp2079
g73
(dp2080
g100
g101
ssg82
g2069
sg75
(lp2081
S':'
asbag68
(g89
g70
NtRp2082
(dp2083
g73
(dp2084
sg82
g2069
sg75
(lp2085
g68
(g69
g70
NtRp2086
(dp2087
g73
(dp2088
g81
I5
ssg82
g2082
sg75
(lp2089
g68
(g77
g70
NtRp2090
(dp2091
g73
(dp2092
g81
I4
ssg82
Nsg75
(lp2093
sbasbasbasbag68
(g84
g70
NtRp2094
(dp2095
g73
(dp2096
sg82
g78
sg75
(lp2097
g68
(g89
g70
NtRp2098
(dp2099
g73
(dp2100
g93
g94
ssg82
g2094
sg75
(lp2101
S'url'
p2102
asbag68
(g89
g70
NtRp2103
(dp2104
g73
(dp2105
g100
g101
ssg82
g2094
sg75
(lp2106
S':'
asbag68
(g89
g70
NtRp2107
(dp2108
g73
(dp2109
sg82
g2094
sg75
(lp2110
g68
(g69
g70
NtRp2111
(dp2112
g73
(dp2113
g81
I5
ssg82
g2107
sg75
(lp2114
S'/loja/home/index'
p2115
asbasbasbag68
(g84
g70
NtRp2116
(dp2117
g73
(dp2118
sg82
g78
sg75
(lp2119
g68
(g89
g70
NtRp2120
(dp2121
g73
(dp2122
g93
g94
ssg82
g2116
sg75
(lp2123
S'utcnow'
p2124
asbag68
(g89
g70
NtRp2125
(dp2126
g73
(dp2127
g100
g101
ssg82
g2116
sg75
(lp2128
S':'
asbag68
(g89
g70
NtRp2129
(dp2130
g73
(dp2131
sg82
g2116
sg75
(lp2132
g68
(g69
g70
NtRp2133
(dp2134
g73
(dp2135
g81
I5
ssg82
g2129
sg75
(lp2136
S'datetime.datetime(2012, 4, 19, 23, 38, 1, 795000)'
p2137
asbasbasbag68
(g84
g70
NtRp2138
(dp2139
g73
(dp2140
sg82
g78
sg75
(lp2141
g68
(g89
g70
NtRp2142
(dp2143
g73
(dp2144
g93
g94
ssg82
g2138
sg75
(lp2145
S'uuid'
p2146
asbag68
(g89
g70
NtRp2147
(dp2148
g73
(dp2149
g100
g101
ssg82
g2138
sg75
(lp2150
S':'
asbag68
(g89
g70
NtRp2151
(dp2152
g73
(dp2153
sg82
g2138
sg75
(lp2154
g68
(g69
g70
NtRp2155
(dp2156
g73
(dp2157
g81
I5
ssg82
g2151
sg75
(lp2158
S'loja/127.0.0.1.2012-04-19.20-38-01.051635d0-674f-45d3-83fc-29fdec93cdc1'
p2159
asbasbasbag68
(g84
g70
NtRp2160
(dp2161
g73
(dp2162
sg82
g78
sg75
(lp2163
g68
(g89
g70
NtRp2164
(dp2165
g73
(dp2166
g93
g94
ssg82
g2160
sg75
(lp2167
S'vars'
p2168
asbag68
(g89
g70
NtRp2169
(dp2170
g73
(dp2171
g100
g101
ssg82
g2160
sg75
(lp2172
S':'
asbag68
(g89
g70
NtRp2173
(dp2174
g73
(dp2175
sg82
g2160
sg75
(lp2176
g68
(g69
g70
NtRp2177
(dp2178
g73
(dp2179
g81
I5
ssg82
g2173
sg75
(lp2180
g68
(g77
g70
NtRp2181
(dp2182
g73
(dp2183
g81
I4
ssg82
Nsg75
(lp2184
sbasbasbasbag68
(g84
g70
NtRp2185
(dp2186
g73
(dp2187
sg82
g78
sg75
(lp2188
g68
(g89
g70
NtRp2189
(dp2190
g73
(dp2191
g93
g94
ssg82
g2185
sg75
(lp2192
S'wsgi'
p2193
asbag68
(g89
g70
NtRp2194
(dp2195
g73
(dp2196
g100
g101
ssg82
g2185
sg75
(lp2197
S':'
asbag68
(g89
g70
NtRp2198
(dp2199
g73
(dp2200
sg82
g2185
sg75
(lp2201
g68
(g69
g70
NtRp2202
(dp2203
g73
(dp2204
g81
I5
ssg82
g2198
sg75
(lp2205
g68
(g77
g70
NtRp2206
(dp2207
g73
(dp2208
g81
I4
ssg82
Nsg75
(lp2209
g68
(g84
g70
NtRp2210
(dp2211
g73
(dp2212
sg82
g2206
sg75
(lp2213
g68
(g89
g70
NtRp2214
(dp2215
g73
(dp2216
g93
g94
ssg82
g2210
sg75
(lp2217
S'environ'
p2218
asbag68
(g89
g70
NtRp2219
(dp2220
g73
(dp2221
g100
g101
ssg82
g2210
sg75
(lp2222
S':'
asbag68
(g89
g70
NtRp2223
(dp2224
g73
(dp2225
sg82
g2210
sg75
(lp2226
g68
(g69
g70
NtRp2227
(dp2228
g73
(dp2229
g81
I4
ssg82
g2223
sg75
(lp2230
g68
(g77
g70
NtRp2231
(dp2232
g73
(dp2233
g81
I3
ssg82
Nsg75
(lp2234
g68
(g84
g70
NtRp2235
(dp2236
g73
(dp2237
sg82
g2231
sg75
(lp2238
g68
(g89
g70
NtRp2239
(dp2240
g73
(dp2241
g93
g94
ssg82
g2235
sg75
(lp2242
S'HTTP_ACCEPT'
p2243
asbag68
(g89
g70
NtRp2244
(dp2245
g73
(dp2246
g100
g101
ssg82
g2235
sg75
(lp2247
S':'
asbag68
(g89
g70
NtRp2248
(dp2249
g73
(dp2250
sg82
g2235
sg75
(lp2251
g68
(g69
g70
NtRp2252
(dp2253
g73
(dp2254
g81
I3
ssg82
g2248
sg75
(lp2255
g829
asbasbasbag68
(g84
g70
NtRp2256
(dp2257
g73
(dp2258
sg82
g2231
sg75
(lp2259
g68
(g89
g70
NtRp2260
(dp2261
g73
(dp2262
g93
g94
ssg82
g2256
sg75
(lp2263
S'HTTP_ACCEPT_ENCODING'
p2264
asbag68
(g89
g70
NtRp2265
(dp2266
g73
(dp2267
g100
g101
ssg82
g2256
sg75
(lp2268
S':'
asbag68
(g89
g70
NtRp2269
(dp2270
g73
(dp2271
sg82
g2256
sg75
(lp2272
g68
(g69
g70
NtRp2273
(dp2274
g73
(dp2275
g81
I3
ssg82
g2269
sg75
(lp2276
g851
asbasbasbag68
(g84
g70
NtRp2277
(dp2278
g73
(dp2279
sg82
g2231
sg75
(lp2280
g68
(g89
g70
NtRp2281
(dp2282
g73
(dp2283
g93
g94
ssg82
g2277
sg75
(lp2284
S'HTTP_ACCEPT_LANGUAGE'
p2285
asbag68
(g89
g70
NtRp2286
(dp2287
g73
(dp2288
g100
g101
ssg82
g2277
sg75
(lp2289
S':'
asbag68
(g89
g70
NtRp2290
(dp2291
g73
(dp2292
sg82
g2277
sg75
(lp2293
g68
(g69
g70
NtRp2294
(dp2295
g73
(dp2296
g81
I3
ssg82
g2290
sg75
(lp2297
g873
asbasbasbag68
(g84
g70
NtRp2298
(dp2299
g73
(dp2300
sg82
g2231
sg75
(lp2301
g68
(g89
g70
NtRp2302
(dp2303
g73
(dp2304
g93
g94
ssg82
g2298
sg75
(lp2305
S'HTTP_CACHE_CONTROL'
p2306
asbag68
(g89
g70
NtRp2307
(dp2308
g73
(dp2309
g100
g101
ssg82
g2298
sg75
(lp2310
S':'
asbag68
(g89
g70
NtRp2311
(dp2312
g73
(dp2313
sg82
g2298
sg75
(lp2314
g68
(g69
g70
NtRp2315
(dp2316
g73
(dp2317
g81
I3
ssg82
g2311
sg75
(lp2318
g895
asbasbasbag68
(g84
g70
NtRp2319
(dp2320
g73
(dp2321
sg82
g2231
sg75
(lp2322
g68
(g89
g70
NtRp2323
(dp2324
g73
(dp2325
g93
g94
ssg82
g2319
sg75
(lp2326
S'HTTP_CONNECTION'
p2327
asbag68
(g89
g70
NtRp2328
(dp2329
g73
(dp2330
g100
g101
ssg82
g2319
sg75
(lp2331
S':'
asbag68
(g89
g70
NtRp2332
(dp2333
g73
(dp2334
sg82
g2319
sg75
(lp2335
g68
(g69
g70
NtRp2336
(dp2337
g73
(dp2338
g81
I3
ssg82
g2332
sg75
(lp2339
g917
asbasbasbag68
(g84
g70
NtRp2340
(dp2341
g73
(dp2342
sg82
g2231
sg75
(lp2343
g68
(g89
g70
NtRp2344
(dp2345
g73
(dp2346
g93
g94
ssg82
g2340
sg75
(lp2347
S'HTTP_COOKIE'
p2348
asbag68
(g89
g70
NtRp2349
(dp2350
g73
(dp2351
g100
g101
ssg82
g2340
sg75
(lp2352
S':'
asbag68
(g89
g70
NtRp2353
(dp2354
g73
(dp2355
sg82
g2340
sg75
(lp2356
g68
(g69
g70
NtRp2357
(dp2358
g73
(dp2359
g81
I3
ssg82
g2353
sg75
(lp2360
g939
asbasbasbag68
(g84
g70
NtRp2361
(dp2362
g73
(dp2363
sg82
g2231
sg75
(lp2364
g68
(g89
g70
NtRp2365
(dp2366
g73
(dp2367
g93
g94
ssg82
g2361
sg75
(lp2368
S'HTTP_HOST'
p2369
asbag68
(g89
g70
NtRp2370
(dp2371
g73
(dp2372
g100
g101
ssg82
g2361
sg75
(lp2373
S':'
asbag68
(g89
g70
NtRp2374
(dp2375
g73
(dp2376
sg82
g2361
sg75
(lp2377
g68
(g69
g70
NtRp2378
(dp2379
g73
(dp2380
g81
I3
ssg82
g2374
sg75
(lp2381
g961
asbasbasbag68
(g84
g70
NtRp2382
(dp2383
g73
(dp2384
sg82
g2231
sg75
(lp2385
g68
(g89
g70
NtRp2386
(dp2387
g73
(dp2388
g93
g94
ssg82
g2382
sg75
(lp2389
S'HTTP_USER_AGENT'
p2390
asbag68
(g89
g70
NtRp2391
(dp2392
g73
(dp2393
g100
g101
ssg82
g2382
sg75
(lp2394
S':'
asbag68
(g89
g70
NtRp2395
(dp2396
g73
(dp2397
sg82
g2382
sg75
(lp2398
g68
(g69
g70
NtRp2399
(dp2400
g73
(dp2401
g81
I3
ssg82
g2395
sg75
(lp2402
g983
asbasbasbag68
(g84
g70
NtRp2403
(dp2404
g73
(dp2405
sg82
g2231
sg75
(lp2406
g68
(g89
g70
NtRp2407
(dp2408
g73
(dp2409
g93
g94
ssg82
g2403
sg75
(lp2410
S'PATH_INFO'
p2411
asbag68
(g89
g70
NtRp2412
(dp2413
g73
(dp2414
g100
g101
ssg82
g2403
sg75
(lp2415
S':'
asbag68
(g89
g70
NtRp2416
(dp2417
g73
(dp2418
sg82
g2403
sg75
(lp2419
g68
(g69
g70
NtRp2420
(dp2421
g73
(dp2422
g81
I3
ssg82
g2416
sg75
(lp2423
g1047
asbasbasbag68
(g84
g70
NtRp2424
(dp2425
g73
(dp2426
sg82
g2231
sg75
(lp2427
g68
(g89
g70
NtRp2428
(dp2429
g73
(dp2430
g93
g94
ssg82
g2424
sg75
(lp2431
S'QUERY_STRING'
p2432
asbag68
(g89
g70
NtRp2433
(dp2434
g73
(dp2435
g100
g101
ssg82
g2424
sg75
(lp2436
S':'
asbag68
(g89
g70
NtRp2437
(dp2438
g73
(dp2439
sg82
g2424
sg75
(lp2440
g68
(g69
g70
NtRp2441
(dp2442
g73
(dp2443
g81
I3
ssg82
g2437
sg75
(lp2444
S''
asbasbasbag68
(g84
g70
NtRp2445
(dp2446
g73
(dp2447
sg82
g2231
sg75
(lp2448
g68
(g89
g70
NtRp2449
(dp2450
g73
(dp2451
g93
g94
ssg82
g2445
sg75
(lp2452
S'REMOTE_ADDR'
p2453
asbag68
(g89
g70
NtRp2454
(dp2455
g73
(dp2456
g100
g101
ssg82
g2445
sg75
(lp2457
S':'
asbag68
(g89
g70
NtRp2458
(dp2459
g73
(dp2460
sg82
g2445
sg75
(lp2461
g68
(g69
g70
NtRp2462
(dp2463
g73
(dp2464
g81
I3
ssg82
g2458
sg75
(lp2465
g201
asbasbasbag68
(g84
g70
NtRp2466
(dp2467
g73
(dp2468
sg82
g2231
sg75
(lp2469
g68
(g89
g70
NtRp2470
(dp2471
g73
(dp2472
g93
g94
ssg82
g2466
sg75
(lp2473
S'REMOTE_PORT'
p2474
asbag68
(g89
g70
NtRp2475
(dp2476
g73
(dp2477
g100
g101
ssg82
g2466
sg75
(lp2478
S':'
asbag68
(g89
g70
NtRp2479
(dp2480
g73
(dp2481
sg82
g2466
sg75
(lp2482
g68
(g69
g70
NtRp2483
(dp2484
g73
(dp2485
g81
I3
ssg82
g2479
sg75
(lp2486
g1111
asbasbasbag68
(g84
g70
NtRp2487
(dp2488
g73
(dp2489
sg82
g2231
sg75
(lp2490
g68
(g89
g70
NtRp2491
(dp2492
g73
(dp2493
g93
g94
ssg82
g2487
sg75
(lp2494
S'REQUEST_METHOD'
p2495
asbag68
(g89
g70
NtRp2496
(dp2497
g73
(dp2498
g100
g101
ssg82
g2487
sg75
(lp2499
S':'
asbag68
(g89
g70
NtRp2500
(dp2501
g73
(dp2502
sg82
g2487
sg75
(lp2503
g68
(g69
g70
NtRp2504
(dp2505
g73
(dp2506
g81
I3
ssg82
g2500
sg75
(lp2507
g1133
asbasbasbag68
(g84
g70
NtRp2508
(dp2509
g73
(dp2510
sg82
g2231
sg75
(lp2511
g68
(g89
g70
NtRp2512
(dp2513
g73
(dp2514
g93
g94
ssg82
g2508
sg75
(lp2515
S'REQUEST_URI'
p2516
asbag68
(g89
g70
NtRp2517
(dp2518
g73
(dp2519
g100
g101
ssg82
g2508
sg75
(lp2520
S':'
asbag68
(g89
g70
NtRp2521
(dp2522
g73
(dp2523
sg82
g2508
sg75
(lp2524
g68
(g69
g70
NtRp2525
(dp2526
g73
(dp2527
g81
I3
ssg82
g2521
sg75
(lp2528
g1047
asbasbasbag68
(g84
g70
NtRp2529
(dp2530
g73
(dp2531
sg82
g2231
sg75
(lp2532
g68
(g89
g70
NtRp2533
(dp2534
g73
(dp2535
g93
g94
ssg82
g2529
sg75
(lp2536
S'SCRIPT_NAME'
p2537
asbag68
(g89
g70
NtRp2538
(dp2539
g73
(dp2540
g100
g101
ssg82
g2529
sg75
(lp2541
S':'
asbag68
(g89
g70
NtRp2542
(dp2543
g73
(dp2544
sg82
g2529
sg75
(lp2545
g68
(g69
g70
NtRp2546
(dp2547
g73
(dp2548
g81
I3
ssg82
g2542
sg75
(lp2549
S''
asbasbasbag68
(g84
g70
NtRp2550
(dp2551
g73
(dp2552
sg82
g2231
sg75
(lp2553
g68
(g89
g70
NtRp2554
(dp2555
g73
(dp2556
g93
g94
ssg82
g2550
sg75
(lp2557
S'SERVER_NAME'
p2558
asbag68
(g89
g70
NtRp2559
(dp2560
g73
(dp2561
g100
g101
ssg82
g2550
sg75
(lp2562
S':'
asbag68
(g89
g70
NtRp2563
(dp2564
g73
(dp2565
sg82
g2550
sg75
(lp2566
g68
(g69
g70
NtRp2567
(dp2568
g73
(dp2569
g81
I3
ssg82
g2563
sg75
(lp2570
g1197
asbasbasbag68
(g84
g70
NtRp2571
(dp2572
g73
(dp2573
sg82
g2231
sg75
(lp2574
g68
(g89
g70
NtRp2575
(dp2576
g73
(dp2577
g93
g94
ssg82
g2571
sg75
(lp2578
S'SERVER_PORT'
p2579
asbag68
(g89
g70
NtRp2580
(dp2581
g73
(dp2582
g100
g101
ssg82
g2571
sg75
(lp2583
S':'
asbag68
(g89
g70
NtRp2584
(dp2585
g73
(dp2586
sg82
g2571
sg75
(lp2587
g68
(g69
g70
NtRp2588
(dp2589
g73
(dp2590
g81
I3
ssg82
g2584
sg75
(lp2591
g1219
asbasbasbag68
(g84
g70
NtRp2592
(dp2593
g73
(dp2594
sg82
g2231
sg75
(lp2595
g68
(g89
g70
NtRp2596
(dp2597
g73
(dp2598
g93
g94
ssg82
g2592
sg75
(lp2599
S'SERVER_PROTOCOL'
p2600
asbag68
(g89
g70
NtRp2601
(dp2602
g73
(dp2603
g100
g101
ssg82
g2592
sg75
(lp2604
S':'
asbag68
(g89
g70
NtRp2605
(dp2606
g73
(dp2607
sg82
g2592
sg75
(lp2608
g68
(g69
g70
NtRp2609
(dp2610
g73
(dp2611
g81
I3
ssg82
g2605
sg75
(lp2612
g1241
asbasbasbag68
(g84
g70
NtRp2613
(dp2614
g73
(dp2615
sg82
g2231
sg75
(lp2616
g68
(g89
g70
NtRp2617
(dp2618
g73
(dp2619
g93
g94
ssg82
g2613
sg75
(lp2620
S'SERVER_SOFTWARE'
p2621
asbag68
(g89
g70
NtRp2622
(dp2623
g73
(dp2624
g100
g101
ssg82
g2613
sg75
(lp2625
S':'
asbag68
(g89
g70
NtRp2626
(dp2627
g73
(dp2628
sg82
g2613
sg75
(lp2629
g68
(g69
g70
NtRp2630
(dp2631
g73
(dp2632
g81
I3
ssg82
g2626
sg75
(lp2633
g1263
asbasbasbag68
(g84
g70
NtRp2634
(dp2635
g73
(dp2636
sg82
g2231
sg75
(lp2637
g68
(g89
g70
NtRp2638
(dp2639
g73
(dp2640
g93
g94
ssg82
g2634
sg75
(lp2641
S'WEB2PY_ORIGINAL_URI'
p2642
asbag68
(g89
g70
NtRp2643
(dp2644
g73
(dp2645
g100
g101
ssg82
g2634
sg75
(lp2646
S':'
asbag68
(g89
g70
NtRp2647
(dp2648
g73
(dp2649
sg82
g2634
sg75
(lp2650
g68
(g69
g70
NtRp2651
(dp2652
g73
(dp2653
g81
I3
ssg82
g2647
sg75
(lp2654
g1047
asbasbasbag68
(g84
g70
NtRp2655
(dp2656
g73
(dp2657
sg82
g2231
sg75
(lp2658
g68
(g89
g70
NtRp2659
(dp2660
g73
(dp2661
g93
g94
ssg82
g2655
sg75
(lp2662
S'wsgi.errors'
p2663
asbag68
(g89
g70
NtRp2664
(dp2665
g73
(dp2666
g100
g101
ssg82
g2655
sg75
(lp2667
S':'
asbag68
(g89
g70
NtRp2668
(dp2669
g73
(dp2670
sg82
g2655
sg75
(lp2671
g68
(g69
g70
NtRp2672
(dp2673
g73
(dp2674
g81
I3
ssg82
g2668
sg75
(lp2675
S"<open file '<stderr>', mode 'w' at 0x012B50D0>"
p2676
asbasbasbag68
(g84
g70
NtRp2677
(dp2678
g73
(dp2679
sg82
g2231
sg75
(lp2680
g68
(g89
g70
NtRp2681
(dp2682
g73
(dp2683
g93
g94
ssg82
g2677
sg75
(lp2684
S'wsgi.file_wrapper'
p2685
asbag68
(g89
g70
NtRp2686
(dp2687
g73
(dp2688
g100
g101
ssg82
g2677
sg75
(lp2689
S':'
asbag68
(g89
g70
NtRp2690
(dp2691
g73
(dp2692
sg82
g2677
sg75
(lp2693
g68
(g69
g70
NtRp2694
(dp2695
g73
(dp2696
g81
I3
ssg82
g2690
sg75
(lp2697
S'<class wsgiref.util.FileWrapper at 0x02946E30>'
p2698
asbasbasbag68
(g84
g70
NtRp2699
(dp2700
g73
(dp2701
sg82
g2231
sg75
(lp2702
g68
(g89
g70
NtRp2703
(dp2704
g73
(dp2705
g93
g94
ssg82
g2699
sg75
(lp2706
S'wsgi.input'
p2707
asbag68
(g89
g70
NtRp2708
(dp2709
g73
(dp2710
g100
g101
ssg82
g2699
sg75
(lp2711
S':'
asbag68
(g89
g70
NtRp2712
(dp2713
g73
(dp2714
sg82
g2699
sg75
(lp2715
g68
(g69
g70
NtRp2716
(dp2717
g73
(dp2718
g81
I3
ssg82
g2712
sg75
(lp2719
S'<cStringIO.StringO object at 0x02DC5180>'
p2720
asbasbasbag68
(g84
g70
NtRp2721
(dp2722
g73
(dp2723
sg82
g2231
sg75
(lp2724
g68
(g89
g70
NtRp2725
(dp2726
g73
(dp2727
g93
g94
ssg82
g2721
sg75
(lp2728
S'wsgi.multiprocess'
p2729
asbag68
(g89
g70
NtRp2730
(dp2731
g73
(dp2732
g100
g101
ssg82
g2721
sg75
(lp2733
S':'
asbag68
(g89
g70
NtRp2734
(dp2735
g73
(dp2736
sg82
g2721
sg75
(lp2737
g68
(g69
g70
NtRp2738
(dp2739
g73
(dp2740
g81
I3
ssg82
g2734
sg75
(lp2741
g111
asbasbasbag68
(g84
g70
NtRp2742
(dp2743
g73
(dp2744
sg82
g2231
sg75
(lp2745
g68
(g89
g70
NtRp2746
(dp2747
g73
(dp2748
g93
g94
ssg82
g2742
sg75
(lp2749
S'wsgi.multithread'
p2750
asbag68
(g89
g70
NtRp2751
(dp2752
g73
(dp2753
g100
g101
ssg82
g2742
sg75
(lp2754
S':'
asbag68
(g89
g70
NtRp2755
(dp2756
g73
(dp2757
sg82
g2742
sg75
(lp2758
g68
(g69
g70
NtRp2759
(dp2760
g73
(dp2761
g81
I3
ssg82
g2755
sg75
(lp2762
g1502
asbasbasbag68
(g84
g70
NtRp2763
(dp2764
g73
(dp2765
sg82
g2231
sg75
(lp2766
g68
(g89
g70
NtRp2767
(dp2768
g73
(dp2769
g93
g94
ssg82
g2763
sg75
(lp2770
S'wsgi.run_once'
p2771
asbag68
(g89
g70
NtRp2772
(dp2773
g73
(dp2774
g100
g101
ssg82
g2763
sg75
(lp2775
S':'
asbag68
(g89
g70
NtRp2776
(dp2777
g73
(dp2778
sg82
g2763
sg75
(lp2779
g68
(g69
g70
NtRp2780
(dp2781
g73
(dp2782
g81
I3
ssg82
g2776
sg75
(lp2783
g111
asbasbasbag68
(g84
g70
NtRp2784
(dp2785
g73
(dp2786
sg82
g2231
sg75
(lp2787
g68
(g89
g70
NtRp2788
(dp2789
g73
(dp2790
g93
g94
ssg82
g2784
sg75
(lp2791
S'wsgi.url_scheme'
p2792
asbag68
(g89
g70
NtRp2793
(dp2794
g73
(dp2795
g100
g101
ssg82
g2784
sg75
(lp2796
S':'
asbag68
(g89
g70
NtRp2797
(dp2798
g73
(dp2799
sg82
g2784
sg75
(lp2800
g68
(g69
g70
NtRp2801
(dp2802
g73
(dp2803
g81
I3
ssg82
g2797
sg75
(lp2804
g1545
asbasbasbag68
(g84
g70
NtRp2805
(dp2806
g73
(dp2807
sg82
g2231
sg75
(lp2808
g68
(g89
g70
NtRp2809
(dp2810
g73
(dp2811
g93
g94
ssg82
g2805
sg75
(lp2812
S'wsgi.version'
p2813
asbag68
(g89
g70
NtRp2814
(dp2815
g73
(dp2816
g100
g101
ssg82
g2805
sg75
(lp2817
S':'
asbag68
(g89
g70
NtRp2818
(dp2819
g73
(dp2820
sg82
g2805
sg75
(lp2821
g68
(g69
g70
NtRp2822
(dp2823
g73
(dp2824
g81
I3
ssg82
g2818
sg75
(lp2825
S'1'
asbasbasbasbasbasbasbasbasbasbasbasbasbsS'frames'
p2826
(lp2827
(dp2828
S'file'
p2829
S'c:\\Users\\rochacbruno\\aula7_mar12\\web2py\\gluon\\restricted.py'
p2830
sS'dump'
p2831
(dp2832
S'code'
p2833
S"'# coding: utf-8\\n\\n# auth\\n# mailer\\n# crypto\\n\\nfrom ...th.define_tables()\\n\\n# views, ajax, css, appadmin\\n'"
p2834
sS'layer'
p2835
S"r'c:\\Users\\rochacbruno\\aula7_mar12\\web2py\\applications\\loja\\models\\200_app.py'"
p2836
sS'global compile2'
p2837
S'<function compile2>'
p2838
sS'ccode'
p2839
S'undefined'
p2840
ssS'lnum'
p2841
I204
sS'lines'
p2842
(dp2843
I199
S"    environment['__name__'] = '__restricted__'"
p2844
sI200
S'    try:'
p2845
sI201
S'        if type(code) == types.CodeType:'
p2846
sI202
S'            ccode = code'
p2847
sI203
S'        else:'
p2848
sI204
S'            ccode = compile2(code,layer)'
p2849
sI205
S'        exec ccode in environment'
p2850
sI206
S'    except HTTP:'
p2851
sI207
S'        raise'
p2852
sI208
S'    except RestrictedError:'
p2853
ssS'call'
p2854
S"(code='# coding: utf-8\\n\\n# auth\\n# mailer\\n# crypto\\n\\nfrom ...th.define_tables()\\n\\n# views, ajax, css, appadmin\\n', environment={'A': <class 'gluon.html.A'>, 'B': <class 'gluon.html.B'>, 'BEAUTIFY': <class 'gluon.html.BEAUTIFY'>, 'BODY': <class 'gluon.html.BODY'>, 'BR': <class 'gluon.html.BR'>, 'BUTTON': <class 'gluon.html.BUTTON'>, 'CAT': <class 'gluon.html.CAT'>, 'CENTER': <class 'gluon.html.CENTER'>, 'CLEANUP': <class 'gluon.validators.CLEANUP'>, 'CODE': <class 'gluon.html.CODE'>, ...}, layer=r'c:\\Users\\rochacbruno\\aula7_mar12\\web2py\\applications\\loja\\models\\200_app.py')"
p2855
sS'func'
p2856
S'restricted'
p2857
sa(dp2858
g2829
S'c:\\Users\\rochacbruno\\aula7_mar12\\web2py\\gluon\\restricted.py'
p2859
sg2831
(dp2860
S'builtincompile'
p2861
S'<built-in function compile>'
p2862
sS'code'
p2863
S"'# coding: utf-8\\n\\n# auth\\n# mailer\\n# crypto\\n\\nfrom ...th.define_tables()\\n\\n# views, ajax, css, appadmin\\n'"
p2864
sS'code.rstrip'
p2865
S'<built-in method rstrip of str object>'
p2866
sS').replace'
p2867
g2840
sS'layer'
p2868
S"r'c:\\Users\\rochacbruno\\aula7_mar12\\web2py\\applications\\loja\\models\\200_app.py'"
p2869
ssg2841
I189
sg2842
(dp2870
I192
S'    """'
p2871
sI193
S'    runs code in environment and returns the output. if an exception occurs'
p2872
sI184
S''
sI185
S'def compile2(code,layer):'
p2873
sI186
S'    """'
p2874
sI187
S"    The +'\\n' is necessary else compile fails when code ends in a comment."
p2875
sI188
S'    """'
p2876
sI189
S"    return compile(code.rstrip().replace('\\r\\n','\\n')+'\\n', layer, 'exec')"
p2877
sI190
S''
sI191
S"def restricted(code, environment=None, layer='Unknown'):"
p2878
ssg2854
S"(code='# coding: utf-8\\n\\n# auth\\n# mailer\\n# crypto\\n\\nfrom ...th.define_tables()\\n\\n# views, ajax, css, appadmin\\n', layer=r'c:\\Users\\rochacbruno\\aula7_mar12\\web2py\\applications\\loja\\models\\200_app.py')"
p2879
sg2856
S'compile2'
p2880
sasS'pyver'
p2881
S'Python 2.7.2: c:\\Python27\\python.exe'
p2882
sS'session'
p2883
g68
(g69
g70
NtRp2884
(dp2885
g73
(dp2886
sg75
(lp2887
g68
(g77
g70
NtRp2888
(dp2889
g73
(dp2890
g81
I5
ssg82
Nsg75
(lp2891
sbasbsS'etype'
p2892
S"<type 'exceptions.SyntaxError'>"
p2893
sS'date'
p2894
S'Thu Apr 19 20:38:01 2012'
p2895
sS'response'
p2896
g68
(g69
g70
NtRp2897
(dp2898
g73
(dp2899
sg75
(lp2900
g68
(g77
g70
NtRp2901
(dp2902
g73
(dp2903
g81
I5
ssg82
Nsg75
(lp2904
g68
(g84
g70
NtRp2905
(dp2906
g73
(dp2907
sg82
g2901
sg75
(lp2908
g68
(g89
g70
NtRp2909
(dp2910
g73
(dp2911
g93
g94
ssg82
g2905
sg75
(lp2912
g166
asbag68
(g89
g70
NtRp2913
(dp2914
g73
(dp2915
g100
g101
ssg82
g2905
sg75
(lp2916
S':'
asbag68
(g89
g70
NtRp2917
(dp2918
g73
(dp2919
sg82
g2905
sg75
(lp2920
g68
(g69
g70
NtRp2921
(dp2922
g73
(dp2923
g81
I5
ssg82
g2917
sg75
(lp2924
S'<cStringIO.StringO object at 0x02BC9BE0>'
p2925
asbasbasbag68
(g84
g70
NtRp2926
(dp2927
g73
(dp2928
sg82
g2901
sg75
(lp2929
g68
(g89
g70
NtRp2930
(dp2931
g73
(dp2932
g93
g94
ssg82
g2926
sg75
(lp2933
g232
asbag68
(g89
g70
NtRp2934
(dp2935
g73
(dp2936
g100
g101
ssg82
g2926
sg75
(lp2937
S':'
asbag68
(g89
g70
NtRp2938
(dp2939
g73
(dp2940
sg82
g2926
sg75
(lp2941
g68
(g69
g70
NtRp2942
(dp2943
g73
(dp2944
g81
I5
ssg82
g2938
sg75
(lp2945
g68
(g77
g70
NtRp2946
(dp2947
g73
(dp2948
g81
I4
ssg82
Nsg75
(lp2949
g68
(g84
g70
NtRp2950
(dp2951
g73
(dp2952
sg82
g2946
sg75
(lp2953
g68
(g89
g70
NtRp2954
(dp2955
g73
(dp2956
g93
g94
ssg82
g2950
sg75
(lp2957
S'session_id_loja'
p2958
asbag68
(g89
g70
NtRp2959
(dp2960
g73
(dp2961
g100
g101
ssg82
g2950
sg75
(lp2962
S':'
asbag68
(g89
g70
NtRp2963
(dp2964
g73
(dp2965
sg82
g2950
sg75
(lp2966
g68
(g69
g70
NtRp2967
(dp2968
g73
(dp2969
g81
I4
ssg82
g2963
sg75
(lp2970
g68
(g77
g70
NtRp2971
(dp2972
g73
(dp2973
g81
I3
ssg82
Nsg75
(lp2974
g68
(g84
g70
NtRp2975
(dp2976
g73
(dp2977
sg82
g2971
sg75
(lp2978
g68
(g89
g70
NtRp2979
(dp2980
g73
(dp2981
g93
g94
ssg82
g2975
sg75
(lp2982
g282
asbag68
(g89
g70
NtRp2983
(dp2984
g73
(dp2985
g100
g101
ssg82
g2975
sg75
(lp2986
S':'
asbag68
(g89
g70
NtRp2987
(dp2988
g73
(dp2989
sg82
g2975
sg75
(lp2990
g68
(g69
g70
NtRp2991
(dp2992
g73
(dp2993
g81
I3
ssg82
g2987
sg75
(lp2994
S''
asbasbasbag68
(g84
g70
NtRp2995
(dp2996
g73
(dp2997
sg82
g2971
sg75
(lp2998
g68
(g89
g70
NtRp2999
(dp3000
g73
(dp3001
g93
g94
ssg82
g2995
sg75
(lp3002
g303
asbag68
(g89
g70
NtRp3003
(dp3004
g73
(dp3005
g100
g101
ssg82
g2995
sg75
(lp3006
S':'
asbag68
(g89
g70
NtRp3007
(dp3008
g73
(dp3009
sg82
g2995
sg75
(lp3010
g68
(g69
g70
NtRp3011
(dp3012
g73
(dp3013
g81
I3
ssg82
g3007
sg75
(lp3014
S''
asbasbasbag68
(g84
g70
NtRp3015
(dp3016
g73
(dp3017
sg82
g2971
sg75
(lp3018
g68
(g89
g70
NtRp3019
(dp3020
g73
(dp3021
g93
g94
ssg82
g3015
sg75
(lp3022
g324
asbag68
(g89
g70
NtRp3023
(dp3024
g73
(dp3025
g100
g101
ssg82
g3015
sg75
(lp3026
S':'
asbag68
(g89
g70
NtRp3027
(dp3028
g73
(dp3029
sg82
g3015
sg75
(lp3030
g68
(g69
g70
NtRp3031
(dp3032
g73
(dp3033
g81
I3
ssg82
g3027
sg75
(lp3034
S''
asbasbasbag68
(g84
g70
NtRp3035
(dp3036
g73
(dp3037
sg82
g2971
sg75
(lp3038
g68
(g89
g70
NtRp3039
(dp3040
g73
(dp3041
g93
g94
ssg82
g3035
sg75
(lp3042
g345
asbag68
(g89
g70
NtRp3043
(dp3044
g73
(dp3045
g100
g101
ssg82
g3035
sg75
(lp3046
S':'
asbag68
(g89
g70
NtRp3047
(dp3048
g73
(dp3049
sg82
g3035
sg75
(lp3050
g68
(g69
g70
NtRp3051
(dp3052
g73
(dp3053
g81
I3
ssg82
g3047
sg75
(lp3054
S''
asbasbasbag68
(g84
g70
NtRp3055
(dp3056
g73
(dp3057
sg82
g2971
sg75
(lp3058
g68
(g89
g70
NtRp3059
(dp3060
g73
(dp3061
g93
g94
ssg82
g3055
sg75
(lp3062
g366
asbag68
(g89
g70
NtRp3063
(dp3064
g73
(dp3065
g100
g101
ssg82
g3055
sg75
(lp3066
S':'
asbag68
(g89
g70
NtRp3067
(dp3068
g73
(dp3069
sg82
g3055
sg75
(lp3070
g68
(g69
g70
NtRp3071
(dp3072
g73
(dp3073
g81
I3
ssg82
g3067
sg75
(lp3074
S''
asbasbasbag68
(g84
g70
NtRp3075
(dp3076
g73
(dp3077
sg82
g2971
sg75
(lp3078
g68
(g89
g70
NtRp3079
(dp3080
g73
(dp3081
g93
g94
ssg82
g3075
sg75
(lp3082
g387
asbag68
(g89
g70
NtRp3083
(dp3084
g73
(dp3085
g100
g101
ssg82
g3075
sg75
(lp3086
S':'
asbag68
(g89
g70
NtRp3087
(dp3088
g73
(dp3089
sg82
g3075
sg75
(lp3090
g68
(g69
g70
NtRp3091
(dp3092
g73
(dp3093
g81
I3
ssg82
g3087
sg75
(lp3094
S'/'
asbasbasbag68
(g84
g70
NtRp3095
(dp3096
g73
(dp3097
sg82
g2971
sg75
(lp3098
g68
(g89
g70
NtRp3099
(dp3100
g73
(dp3101
g93
g94
ssg82
g3095
sg75
(lp3102
g408
asbag68
(g89
g70
NtRp3103
(dp3104
g73
(dp3105
g100
g101
ssg82
g3095
sg75
(lp3106
S':'
asbag68
(g89
g70
NtRp3107
(dp3108
g73
(dp3109
sg82
g3095
sg75
(lp3110
g68
(g69
g70
NtRp3111
(dp3112
g73
(dp3113
g81
I3
ssg82
g3107
sg75
(lp3114
S''
asbasbasbag68
(g84
g70
NtRp3115
(dp3116
g73
(dp3117
sg82
g2971
sg75
(lp3118
g68
(g89
g70
NtRp3119
(dp3120
g73
(dp3121
g93
g94
ssg82
g3115
sg75
(lp3122
g429
asbag68
(g89
g70
NtRp3123
(dp3124
g73
(dp3125
g100
g101
ssg82
g3115
sg75
(lp3126
S':'
asbag68
(g89
g70
NtRp3127
(dp3128
g73
(dp3129
sg82
g3115
sg75
(lp3130
g68
(g69
g70
NtRp3131
(dp3132
g73
(dp3133
g81
I3
ssg82
g3127
sg75
(lp3134
S''
asbasbasbasbasbasbasbasbasbasbasbag68
(g84
g70
NtRp3135
(dp3136
g73
(dp3137
sg82
g2901
sg75
(lp3138
g68
(g89
g70
NtRp3139
(dp3140
g73
(dp3141
g93
g94
ssg82
g3135
sg75
(lp3142
S'delimiters'
p3143
asbag68
(g89
g70
NtRp3144
(dp3145
g73
(dp3146
g100
g101
ssg82
g3135
sg75
(lp3147
S':'
asbag68
(g89
g70
NtRp3148
(dp3149
g73
(dp3150
sg82
g3135
sg75
(lp3151
g68
(g69
g70
NtRp3152
(dp3153
g73
(dp3154
g81
I5
ssg82
g3148
sg75
(lp3155
g68
(g77
g70
NtRp3156
(dp3157
g73
(dp3158
g81
I4
ssg82
Nsg75
(lp3159
g68
(g84
g70
NtRp3160
(dp3161
g73
(dp3162
sg82
g3156
sg75
(lp3163
g68
(g89
g70
NtRp3164
(dp3165
g73
(dp3166
sg82
g3160
sg75
(lp3167
g68
(g69
g70
NtRp3168
(dp3169
g73
(dp3170
g81
I4
ssg82
g3164
sg75
(lp3171
S'{{'
p3172
asbasbasbag68
(g84
g70
NtRp3173
(dp3174
g73
(dp3175
sg82
g3156
sg75
(lp3176
g68
(g89
g70
NtRp3177
(dp3178
g73
(dp3179
sg82
g3173
sg75
(lp3180
g68
(g69
g70
NtRp3181
(dp3182
g73
(dp3183
g81
I4
ssg82
g3177
sg75
(lp3184
S'}}'
p3185
asbasbasbasbasbasbasbag68
(g84
g70
NtRp3186
(dp3187
g73
(dp3188
sg82
g2901
sg75
(lp3189
g68
(g89
g70
NtRp3190
(dp3191
g73
(dp3192
g93
g94
ssg82
g3186
sg75
(lp3193
S'files'
p3194
asbag68
(g89
g70
NtRp3195
(dp3196
g73
(dp3197
g100
g101
ssg82
g3186
sg75
(lp3198
S':'
asbag68
(g89
g70
NtRp3199
(dp3200
g73
(dp3201
sg82
g3186
sg75
(lp3202
g68
(g69
g70
NtRp3203
(dp3204
g73
(dp3205
g81
I5
ssg82
g3199
sg75
(lp3206
g68
(g77
g70
NtRp3207
(dp3208
g73
(dp3209
g81
I4
ssg82
Nsg75
(lp3210
sbasbasbasbag68
(g84
g70
NtRp3211
(dp3212
g73
(dp3213
sg82
g2901
sg75
(lp3214
g68
(g89
g70
NtRp3215
(dp3216
g73
(dp3217
g93
g94
ssg82
g3211
sg75
(lp3218
S'flash'
p3219
asbag68
(g89
g70
NtRp3220
(dp3221
g73
(dp3222
g100
g101
ssg82
g3211
sg75
(lp3223
S':'
asbag68
(g89
g70
NtRp3224
(dp3225
g73
(dp3226
sg82
g3211
sg75
(lp3227
g68
(g69
g70
NtRp3228
(dp3229
g73
(dp3230
g81
I5
ssg82
g3224
sg75
(lp3231
S''
asbasbasbag68
(g84
g70
NtRp3232
(dp3233
g73
(dp3234
sg82
g2901
sg75
(lp3235
g68
(g89
g70
NtRp3236
(dp3237
g73
(dp3238
g93
g94
ssg82
g3232
sg75
(lp3239
S'generic_patterns'
p3240
asbag68
(g89
g70
NtRp3241
(dp3242
g73
(dp3243
g100
g101
ssg82
g3232
sg75
(lp3244
S':'
asbag68
(g89
g70
NtRp3245
(dp3246
g73
(dp3247
sg82
g3232
sg75
(lp3248
g68
(g69
g70
NtRp3249
(dp3250
g73
(dp3251
g81
I5
ssg82
g3245
sg75
(lp3252
g68
(g77
g70
NtRp3253
(dp3254
g73
(dp3255
g81
I4
ssg82
Nsg75
(lp3256
sbasbasbasbag68
(g84
g70
NtRp3257
(dp3258
g73
(dp3259
sg82
g2901
sg75
(lp3260
g68
(g89
g70
NtRp3261
(dp3262
g73
(dp3263
g93
g94
ssg82
g3257
sg75
(lp3264
S'headers'
p3265
asbag68
(g89
g70
NtRp3266
(dp3267
g73
(dp3268
g100
g101
ssg82
g3257
sg75
(lp3269
S':'
asbag68
(g89
g70
NtRp3270
(dp3271
g73
(dp3272
sg82
g3257
sg75
(lp3273
g68
(g69
g70
NtRp3274
(dp3275
g73
(dp3276
g81
I5
ssg82
g3270
sg75
(lp3277
g68
(g77
g70
NtRp3278
(dp3279
g73
(dp3280
g81
I4
ssg82
Nsg75
(lp3281
g68
(g84
g70
NtRp3282
(dp3283
g73
(dp3284
sg82
g3278
sg75
(lp3285
g68
(g89
g70
NtRp3286
(dp3287
g73
(dp3288
g93
g94
ssg82
g3282
sg75
(lp3289
S'Cache-Control'
p3290
asbag68
(g89
g70
NtRp3291
(dp3292
g73
(dp3293
g100
g101
ssg82
g3282
sg75
(lp3294
S':'
asbag68
(g89
g70
NtRp3295
(dp3296
g73
(dp3297
sg82
g3282
sg75
(lp3298
g68
(g69
g70
NtRp3299
(dp3300
g73
(dp3301
g81
I4
ssg82
g3295
sg75
(lp3302
S'no-store, no-cache, must-revalidate, post-check=0, pre-check=0'
p3303
asbasbasbag68
(g84
g70
NtRp3304
(dp3305
g73
(dp3306
sg82
g3278
sg75
(lp3307
g68
(g89
g70
NtRp3308
(dp3309
g73
(dp3310
g93
g94
ssg82
g3304
sg75
(lp3311
S'Content-Type'
p3312
asbag68
(g89
g70
NtRp3313
(dp3314
g73
(dp3315
g100
g101
ssg82
g3304
sg75
(lp3316
S':'
asbag68
(g89
g70
NtRp3317
(dp3318
g73
(dp3319
sg82
g3304
sg75
(lp3320
g68
(g69
g70
NtRp3321
(dp3322
g73
(dp3323
g81
I4
ssg82
g3317
sg75
(lp3324
S'text/html; charset=utf-8'
p3325
asbasbasbag68
(g84
g70
NtRp3326
(dp3327
g73
(dp3328
sg82
g3278
sg75
(lp3329
g68
(g89
g70
NtRp3330
(dp3331
g73
(dp3332
g93
g94
ssg82
g3326
sg75
(lp3333
S'Expires'
p3334
asbag68
(g89
g70
NtRp3335
(dp3336
g73
(dp3337
g100
g101
ssg82
g3326
sg75
(lp3338
S':'
asbag68
(g89
g70
NtRp3339
(dp3340
g73
(dp3341
sg82
g3326
sg75
(lp3342
g68
(g69
g70
NtRp3343
(dp3344
g73
(dp3345
g81
I4
ssg82
g3339
sg75
(lp3346
S'Thu, 19 Apr 2012 23:38:01 GMT'
p3347
asbasbasbag68
(g84
g70
NtRp3348
(dp3349
g73
(dp3350
sg82
g3278
sg75
(lp3351
g68
(g89
g70
NtRp3352
(dp3353
g73
(dp3354
g93
g94
ssg82
g3348
sg75
(lp3355
S'Pragma'
p3356
asbag68
(g89
g70
NtRp3357
(dp3358
g73
(dp3359
g100
g101
ssg82
g3348
sg75
(lp3360
S':'
asbag68
(g89
g70
NtRp3361
(dp3362
g73
(dp3363
sg82
g3348
sg75
(lp3364
g68
(g69
g70
NtRp3365
(dp3366
g73
(dp3367
g81
I4
ssg82
g3361
sg75
(lp3368
S'no-cache'
p3369
asbasbasbag68
(g84
g70
NtRp3370
(dp3371
g73
(dp3372
sg82
g3278
sg75
(lp3373
g68
(g89
g70
NtRp3374
(dp3375
g73
(dp3376
g93
g94
ssg82
g3370
sg75
(lp3377
S'X-Powered-By'
p3378
asbag68
(g89
g70
NtRp3379
(dp3380
g73
(dp3381
g100
g101
ssg82
g3370
sg75
(lp3382
S':'
asbag68
(g89
g70
NtRp3383
(dp3384
g73
(dp3385
sg82
g3370
sg75
(lp3386
g68
(g69
g70
NtRp3387
(dp3388
g73
(dp3389
g81
I4
ssg82
g3383
sg75
(lp3390
S'web2py'
p3391
asbasbasbasbasbasbasbag68
(g84
g70
NtRp3392
(dp3393
g73
(dp3394
sg82
g2901
sg75
(lp3395
g68
(g89
g70
NtRp3396
(dp3397
g73
(dp3398
g93
g94
ssg82
g3392
sg75
(lp3399
S'menu'
p3400
asbag68
(g89
g70
NtRp3401
(dp3402
g73
(dp3403
g100
g101
ssg82
g3392
sg75
(lp3404
S':'
asbag68
(g89
g70
NtRp3405
(dp3406
g73
(dp3407
sg82
g3392
sg75
(lp3408
g68
(g69
g70
NtRp3409
(dp3410
g73
(dp3411
g81
I5
ssg82
g3405
sg75
(lp3412
g68
(g77
g70
NtRp3413
(dp3414
g73
(dp3415
g81
I4
ssg82
Nsg75
(lp3416
sbasbasbasbag68
(g84
g70
NtRp3417
(dp3418
g73
(dp3419
sg82
g2901
sg75
(lp3420
g68
(g89
g70
NtRp3421
(dp3422
g73
(dp3423
g93
g94
ssg82
g3417
sg75
(lp3424
S'meta'
p3425
asbag68
(g89
g70
NtRp3426
(dp3427
g73
(dp3428
g100
g101
ssg82
g3417
sg75
(lp3429
S':'
asbag68
(g89
g70
NtRp3430
(dp3431
g73
(dp3432
sg82
g3417
sg75
(lp3433
g68
(g69
g70
NtRp3434
(dp3435
g73
(dp3436
g81
I5
ssg82
g3430
sg75
(lp3437
g68
(g77
g70
NtRp3438
(dp3439
g73
(dp3440
g81
I4
ssg82
Nsg75
(lp3441
g68
(g84
g70
NtRp3442
(dp3443
g73
(dp3444
sg82
g3438
sg75
(lp3445
g68
(g89
g70
NtRp3446
(dp3447
g73
(dp3448
g93
g94
ssg82
g3442
sg75
(lp3449
S'description'
p3450
asbag68
(g89
g70
NtRp3451
(dp3452
g73
(dp3453
g100
g101
ssg82
g3442
sg75
(lp3454
S':'
asbag68
(g89
g70
NtRp3455
(dp3456
g73
(dp3457
sg82
g3442
sg75
(lp3458
g68
(g69
g70
NtRp3459
(dp3460
g73
(dp3461
g81
I4
ssg82
g3455
sg75
(lp3462
S'Loja virtual'
p3463
asbasbasbasbasbasbasbag68
(g84
g70
NtRp3464
(dp3465
g73
(dp3466
sg82
g2901
sg75
(lp3467
g68
(g89
g70
NtRp3468
(dp3469
g73
(dp3470
g93
g94
ssg82
g3464
sg75
(lp3471
S'postprocessing'
p3472
asbag68
(g89
g70
NtRp3473
(dp3474
g73
(dp3475
g100
g101
ssg82
g3464
sg75
(lp3476
S':'
asbag68
(g89
g70
NtRp3477
(dp3478
g73
(dp3479
sg82
g3464
sg75
(lp3480
g68
(g69
g70
NtRp3481
(dp3482
g73
(dp3483
g81
I5
ssg82
g3477
sg75
(lp3484
g68
(g77
g70
NtRp3485
(dp3486
g73
(dp3487
g81
I4
ssg82
Nsg75
(lp3488
sbasbasbasbag68
(g84
g70
NtRp3489
(dp3490
g73
(dp3491
sg82
g2901
sg75
(lp3492
g68
(g89
g70
NtRp3493
(dp3494
g73
(dp3495
g93
g94
ssg82
g3489
sg75
(lp3496
S'session_filename'
p3497
asbag68
(g89
g70
NtRp3498
(dp3499
g73
(dp3500
g100
g101
ssg82
g3489
sg75
(lp3501
S':'
asbag68
(g89
g70
NtRp3502
(dp3503
g73
(dp3504
sg82
g3489
sg75
(lp3505
g68
(g69
g70
NtRp3506
(dp3507
g73
(dp3508
g81
I5
ssg82
g3502
sg75
(lp3509
S'c:\\Users\\rochacbruno\\aula7_mar12\\web2py\\applications\\loja\\sessions\\127.0.0.1-f01b1d02-966d-41cf-bf32-16bc61f0aac8'
p3510
asbasbasbag68
(g84
g70
NtRp3511
(dp3512
g73
(dp3513
sg82
g2901
sg75
(lp3514
g68
(g89
g70
NtRp3515
(dp3516
g73
(dp3517
g93
g94
ssg82
g3511
sg75
(lp3518
S'session_id'
p3519
asbag68
(g89
g70
NtRp3520
(dp3521
g73
(dp3522
g100
g101
ssg82
g3511
sg75
(lp3523
S':'
asbag68
(g89
g70
NtRp3524
(dp3525
g73
(dp3526
sg82
g3511
sg75
(lp3527
g68
(g69
g70
NtRp3528
(dp3529
g73
(dp3530
g81
I5
ssg82
g3524
sg75
(lp3531
S'127.0.0.1-f01b1d02-966d-41cf-bf32-16bc61f0aac8'
p3532
asbasbasbag68
(g84
g70
NtRp3533
(dp3534
g73
(dp3535
sg82
g2901
sg75
(lp3536
g68
(g89
g70
NtRp3537
(dp3538
g73
(dp3539
g93
g94
ssg82
g3533
sg75
(lp3540
S'session_id_name'
p3541
asbag68
(g89
g70
NtRp3542
(dp3543
g73
(dp3544
g100
g101
ssg82
g3533
sg75
(lp3545
S':'
asbag68
(g89
g70
NtRp3546
(dp3547
g73
(dp3548
sg82
g3533
sg75
(lp3549
g68
(g69
g70
NtRp3550
(dp3551
g73
(dp3552
g81
I5
ssg82
g3546
sg75
(lp3553
g2958
asbasbasbag68
(g84
g70
NtRp3554
(dp3555
g73
(dp3556
sg82
g2901
sg75
(lp3557
g68
(g89
g70
NtRp3558
(dp3559
g73
(dp3560
g93
g94
ssg82
g3554
sg75
(lp3561
S'session_new'
p3562
asbag68
(g89
g70
NtRp3563
(dp3564
g73
(dp3565
g100
g101
ssg82
g3554
sg75
(lp3566
S':'
asbag68
(g89
g70
NtRp3567
(dp3568
g73
(dp3569
sg82
g3554
sg75
(lp3570
g68
(g69
g70
NtRp3571
(dp3572
g73
(dp3573
g81
I5
ssg82
g3567
sg75
(lp3574
g1502
asbasbasbag68
(g84
g70
NtRp3575
(dp3576
g73
(dp3577
sg82
g2901
sg75
(lp3578
g68
(g89
g70
NtRp3579
(dp3580
g73
(dp3581
g93
g94
ssg82
g3575
sg75
(lp3582
S'status'
p3583
asbag68
(g89
g70
NtRp3584
(dp3585
g73
(dp3586
g100
g101
ssg82
g3575
sg75
(lp3587
S':'
asbag68
(g89
g70
NtRp3588
(dp3589
g73
(dp3590
sg82
g3575
sg75
(lp3591
g68
(g69
g70
NtRp3592
(dp3593
g73
(dp3594
g81
I5
ssg82
g3588
sg75
(lp3595
S'200'
p3596
asbasbasbag68
(g84
g70
NtRp3597
(dp3598
g73
(dp3599
sg82
g2901
sg75
(lp3600
g68
(g89
g70
NtRp3601
(dp3602
g73
(dp3603
g93
g94
ssg82
g3597
sg75
(lp3604
S'title'
p3605
asbag68
(g89
g70
NtRp3606
(dp3607
g73
(dp3608
g100
g101
ssg82
g3597
sg75
(lp3609
S':'
asbag68
(g89
g70
NtRp3610
(dp3611
g73
(dp3612
sg82
g3597
sg75
(lp3613
g68
(g69
g70
NtRp3614
(dp3615
g73
(dp3616
g81
I5
ssg82
g3610
sg75
(lp3617
S'loja web2py'
p3618
asbasbasbag68
(g84
g70
NtRp3619
(dp3620
g73
(dp3621
sg82
g2901
sg75
(lp3622
g68
(g89
g70
NtRp3623
(dp3624
g73
(dp3625
g93
g94
ssg82
g3619
sg75
(lp3626
g2146
asbag68
(g89
g70
NtRp3627
(dp3628
g73
(dp3629
g100
g101
ssg82
g3619
sg75
(lp3630
S':'
asbag68
(g89
g70
NtRp3631
(dp3632
g73
(dp3633
sg82
g3619
sg75
(lp3634
g68
(g69
g70
NtRp3635
(dp3636
g73
(dp3637
g81
I5
ssg82
g3631
sg75
(lp3638
g2159
asbasbasbag68
(g84
g70
NtRp3639
(dp3640
g73
(dp3641
sg82
g2901
sg75
(lp3642
g68
(g89
g70
NtRp3643
(dp3644
g73
(dp3645
g93
g94
ssg82
g3639
sg75
(lp3646
S'view'
p3647
asbag68
(g89
g70
NtRp3648
(dp3649
g73
(dp3650
g100
g101
ssg82
g3639
sg75
(lp3651
S':'
asbag68
(g89
g70
NtRp3652
(dp3653
g73
(dp3654
sg82
g3639
sg75
(lp3655
g68
(g69
g70
NtRp3656
(dp3657
g73
(dp3658
g81
I5
ssg82
g3652
sg75
(lp3659
S'home/index.html'
p3660
asbasbasbasbasbsS'locals'
p3661
(dp3662
g4
S"r'c:\\Users\\rochacbruno\\aula7_mar12\\web2py\\applications\\loja\\models\\200_app.py'"
p3663
sg6
S"'# coding: utf-8\\n\\n# auth\\n# mailer\\n# crypto\\n\\nfrom ...th.define_tables()\\n\\n# views, ajax, css, appadmin\\n'"
p3664
sssS'traceback'
p3665
S'Traceback (most recent call last):\n  File "c:\\Users\\rochacbruno\\aula7_mar12\\web2py\\gluon\\restricted.py", line 204, in restricted\n    ccode = compile2(code,layer)\n  File "c:\\Users\\rochacbruno\\aula7_mar12\\web2py\\gluon\\restricted.py", line 189, in compile2\n    return compile(code.rstrip().replace(\'\\r\\n\',\'\\n\')+\'\\n\', layer, \'exec\')\n  File "c:\\Users\\rochacbruno\\aula7_mar12\\web2py\\applications\\loja\\models\\200_app.py", line 16\n    mai..settings.login = "usuario:senha"\n        ^\nSyntaxError: invalid syntax\n'
p3666
s.