(dp1
S'output'
p2
S"<type 'exceptions.AttributeError'> 'str' object has no attribute 'capitelize'"
p3
sS'layer'
p4
S'c:\\Users\\rochacbruno\\aula7_mar12\\web2py\\applications\\loja\\views\\home/index.html'
p5
sS'code'
p6
S"response.write('\\r\\n<h1> Minha app</h1>\\r\\n\\r\\n', escape=False)\nresponse.write(soma1)\nresponse.write('\\r\\n\\r\\n', escape=False)\nresponse.write(soma2)\nresponse.write('\\r\\n\\r\\n\\r\\n', escape=False)\nresponse.write(usuario)\nresponse.write('\\r\\n\\r\\n<ul>\\r\\n', escape=False)\nfor l in linguagens:\n    response.write('\\r\\n    <li>', escape=False)\n    response.write(l.upper())\n    response.write('</li>\\r\\n', escape=False)\n    pass\nresponse.write('\\r\\n</ul>\\r\\n\\r\\n', escape=False)\nresponse.write(UL(*[LI(item.capitelize()) for item in linguagens]))\nresponse.write('\\r\\n\\r\\n', escape=False)"
p7
sS'snapshot'
p8
(dp9
S'exception'
p10
(dp11
S'__hash__'
p12
S"<method-wrapper '__hash__' of exceptions.AttributeError object>"
p13
sS'__setattr__'
p14
S"<method-wrapper '__setattr__' of exceptions.AttributeError object>"
p15
sS'__reduce_ex__'
p16
S'<built-in method __reduce_ex__ of exceptions.AttributeError object>'
p17
sS'__getslice__'
p18
S"<method-wrapper '__getslice__' of exceptions.AttributeError object>"
p19
sS'__getitem__'
p20
S"<method-wrapper '__getitem__' of exceptions.AttributeError object>"
p21
sS'__setstate__'
p22
S'<built-in method __setstate__ of exceptions.AttributeError object>'
p23
sS'__reduce__'
p24
S'<built-in method __reduce__ of exceptions.AttributeError object>'
p25
sS'__str__'
p26
S"<method-wrapper '__str__' of exceptions.AttributeError object>"
p27
sS'__format__'
p28
S'<built-in method __format__ of exceptions.AttributeError object>'
p29
sS'__getattribute__'
p30
S"<method-wrapper '__getattribute__' of exceptions.AttributeError object>"
p31
sS'__class__'
p32
S"<type 'exceptions.AttributeError'>"
p33
sS'__unicode__'
p34
S'<built-in method __unicode__ of exceptions.AttributeError object>'
p35
sS'__delattr__'
p36
S"<method-wrapper '__delattr__' of exceptions.AttributeError object>"
p37
sS'__subclasshook__'
p38
S'<built-in method __subclasshook__ of type object>'
p39
sS'__repr__'
p40
S"<method-wrapper '__repr__' of exceptions.AttributeError object>"
p41
sS'args'
p42
S'("\'str\' object has no attribute \'capitelize\'",)'
p43
sS'__dict__'
p44
S'{}'
p45
sS'__sizeof__'
p46
S'<built-in method __sizeof__ of exceptions.AttributeError object>'
p47
sS'__doc__'
p48
S"'Attribute not found.'"
p49
sS'__init__'
p50
S"<method-wrapper '__init__' of exceptions.AttributeError object>"
p51
sS'__new__'
p52
S'<built-in method __new__ of type object>'
p53
ssS'evalue'
p54
S"'str' object has no attribute 'capitelize'"
p55
sS'request'
p56
ccopy_reg
_reconstructor
p57
(cgluon.html
BEAUTIFY
p58
c__builtin__
object
p59
NtRp60
(dp61
S'attributes'
p62
(dp63
sS'components'
p64
(lp65
g57
(cgluon.html
TABLE
p66
g59
NtRp67
(dp68
g62
(dp69
S'level'
p70
I5
ssS'parent'
p71
Nsg64
(lp72
g57
(cgluon.html
TR
p73
g59
NtRp74
(dp75
g62
(dp76
sg71
g67
sg64
(lp77
g57
(cgluon.html
TD
p78
g59
NtRp79
(dp80
g62
(dp81
S'_style'
p82
S'font-weight:bold;vertical-align:top'
p83
ssg71
g74
sg64
(lp84
S'ajax'
p85
asbag57
(g78
g59
NtRp86
(dp87
g62
(dp88
S'_valign'
p89
S'top'
p90
ssg71
g74
sg64
(lp91
S':'
asbag57
(g78
g59
NtRp92
(dp93
g62
(dp94
sg71
g74
sg64
(lp95
g57
(g58
g59
NtRp96
(dp97
g62
(dp98
g70
I5
ssg71
g92
sg64
(lp99
S'False'
p100
asbasbasbag57
(g73
g59
NtRp101
(dp102
g62
(dp103
sg71
g67
sg64
(lp104
g57
(g78
g59
NtRp105
(dp106
g62
(dp107
g82
g83
ssg71
g101
sg64
(lp108
S'application'
p109
asbag57
(g78
g59
NtRp110
(dp111
g62
(dp112
g89
g90
ssg71
g101
sg64
(lp113
S':'
asbag57
(g78
g59
NtRp114
(dp115
g62
(dp116
sg71
g101
sg64
(lp117
g57
(g58
g59
NtRp118
(dp119
g62
(dp120
g70
I5
ssg71
g114
sg64
(lp121
S'loja'
p122
asbasbasbag57
(g73
g59
NtRp123
(dp124
g62
(dp125
sg71
g67
sg64
(lp126
g57
(g78
g59
NtRp127
(dp128
g62
(dp129
g82
g83
ssg71
g123
sg64
(lp130
g42
asbag57
(g78
g59
NtRp131
(dp132
g62
(dp133
g89
g90
ssg71
g123
sg64
(lp134
S':'
asbag57
(g78
g59
NtRp135
(dp136
g62
(dp137
sg71
g123
sg64
(lp138
g57
(g58
g59
NtRp139
(dp140
g62
(dp141
g70
I5
ssg71
g135
sg64
(lp142
g57
(g66
g59
NtRp143
(dp144
g62
(dp145
g70
I4
ssg71
Nsg64
(lp146
sbasbasbasbag57
(g73
g59
NtRp147
(dp148
g62
(dp149
sg71
g67
sg64
(lp150
g57
(g78
g59
NtRp151
(dp152
g62
(dp153
g82
g83
ssg71
g147
sg64
(lp154
S'body'
p155
asbag57
(g78
g59
NtRp156
(dp157
g62
(dp158
g89
g90
ssg71
g147
sg64
(lp159
S':'
asbag57
(g78
g59
NtRp160
(dp161
g62
(dp162
sg71
g147
sg64
(lp163
g57
(g58
g59
NtRp164
(dp165
g62
(dp166
g70
I5
ssg71
g160
sg64
(lp167
S'<cStringIO.StringO object at 0x04F47A40>'
p168
asbasbasbag57
(g73
g59
NtRp169
(dp170
g62
(dp171
sg71
g67
sg64
(lp172
g57
(g78
g59
NtRp173
(dp174
g62
(dp175
g82
g83
ssg71
g169
sg64
(lp176
S'client'
p177
asbag57
(g78
g59
NtRp178
(dp179
g62
(dp180
g89
g90
ssg71
g169
sg64
(lp181
S':'
asbag57
(g78
g59
NtRp182
(dp183
g62
(dp184
sg71
g169
sg64
(lp185
g57
(g58
g59
NtRp186
(dp187
g62
(dp188
g70
I5
ssg71
g182
sg64
(lp189
S'127.0.0.1'
p190
asbasbasbag57
(g73
g59
NtRp191
(dp192
g62
(dp193
sg71
g67
sg64
(lp194
g57
(g78
g59
NtRp195
(dp196
g62
(dp197
g82
g83
ssg71
g191
sg64
(lp198
S'controller'
p199
asbag57
(g78
g59
NtRp200
(dp201
g62
(dp202
g89
g90
ssg71
g191
sg64
(lp203
S':'
asbag57
(g78
g59
NtRp204
(dp205
g62
(dp206
sg71
g191
sg64
(lp207
g57
(g58
g59
NtRp208
(dp209
g62
(dp210
g70
I5
ssg71
g204
sg64
(lp211
S'home'
p212
asbasbasbag57
(g73
g59
NtRp213
(dp214
g62
(dp215
sg71
g67
sg64
(lp216
g57
(g78
g59
NtRp217
(dp218
g62
(dp219
g82
g83
ssg71
g213
sg64
(lp220
S'cookies'
p221
asbag57
(g78
g59
NtRp222
(dp223
g62
(dp224
g89
g90
ssg71
g213
sg64
(lp225
S':'
asbag57
(g78
g59
NtRp226
(dp227
g62
(dp228
sg71
g213
sg64
(lp229
g57
(g58
g59
NtRp230
(dp231
g62
(dp232
g70
I5
ssg71
g226
sg64
(lp233
g57
(g66
g59
NtRp234
(dp235
g62
(dp236
g70
I4
ssg71
Nsg64
(lp237
g57
(g73
g59
NtRp238
(dp239
g62
(dp240
sg71
g234
sg64
(lp241
g57
(g78
g59
NtRp242
(dp243
g62
(dp244
g82
g83
ssg71
g238
sg64
(lp245
S'session_id_admin'
p246
asbag57
(g78
g59
NtRp247
(dp248
g62
(dp249
g89
g90
ssg71
g238
sg64
(lp250
S':'
asbag57
(g78
g59
NtRp251
(dp252
g62
(dp253
sg71
g238
sg64
(lp254
g57
(g58
g59
NtRp255
(dp256
g62
(dp257
g70
I4
ssg71
g251
sg64
(lp258
g57
(g66
g59
NtRp259
(dp260
g62
(dp261
g70
I3
ssg71
Nsg64
(lp262
g57
(g73
g59
NtRp263
(dp264
g62
(dp265
sg71
g259
sg64
(lp266
g57
(g78
g59
NtRp267
(dp268
g62
(dp269
g82
g83
ssg71
g263
sg64
(lp270
S'comment'
p271
asbag57
(g78
g59
NtRp272
(dp273
g62
(dp274
g89
g90
ssg71
g263
sg64
(lp275
S':'
asbag57
(g78
g59
NtRp276
(dp277
g62
(dp278
sg71
g263
sg64
(lp279
g57
(g58
g59
NtRp280
(dp281
g62
(dp282
g70
I3
ssg71
g276
sg64
(lp283
S''
asbasbasbag57
(g73
g59
NtRp284
(dp285
g62
(dp286
sg71
g259
sg64
(lp287
g57
(g78
g59
NtRp288
(dp289
g62
(dp290
g82
g83
ssg71
g284
sg64
(lp291
S'domain'
p292
asbag57
(g78
g59
NtRp293
(dp294
g62
(dp295
g89
g90
ssg71
g284
sg64
(lp296
S':'
asbag57
(g78
g59
NtRp297
(dp298
g62
(dp299
sg71
g284
sg64
(lp300
g57
(g58
g59
NtRp301
(dp302
g62
(dp303
g70
I3
ssg71
g297
sg64
(lp304
S''
asbasbasbag57
(g73
g59
NtRp305
(dp306
g62
(dp307
sg71
g259
sg64
(lp308
g57
(g78
g59
NtRp309
(dp310
g62
(dp311
g82
g83
ssg71
g305
sg64
(lp312
S'expires'
p313
asbag57
(g78
g59
NtRp314
(dp315
g62
(dp316
g89
g90
ssg71
g305
sg64
(lp317
S':'
asbag57
(g78
g59
NtRp318
(dp319
g62
(dp320
sg71
g305
sg64
(lp321
g57
(g58
g59
NtRp322
(dp323
g62
(dp324
g70
I3
ssg71
g318
sg64
(lp325
S''
asbasbasbag57
(g73
g59
NtRp326
(dp327
g62
(dp328
sg71
g259
sg64
(lp329
g57
(g78
g59
NtRp330
(dp331
g62
(dp332
g82
g83
ssg71
g326
sg64
(lp333
S'httponly'
p334
asbag57
(g78
g59
NtRp335
(dp336
g62
(dp337
g89
g90
ssg71
g326
sg64
(lp338
S':'
asbag57
(g78
g59
NtRp339
(dp340
g62
(dp341
sg71
g326
sg64
(lp342
g57
(g58
g59
NtRp343
(dp344
g62
(dp345
g70
I3
ssg71
g339
sg64
(lp346
S''
asbasbasbag57
(g73
g59
NtRp347
(dp348
g62
(dp349
sg71
g259
sg64
(lp350
g57
(g78
g59
NtRp351
(dp352
g62
(dp353
g82
g83
ssg71
g347
sg64
(lp354
S'max-age'
p355
asbag57
(g78
g59
NtRp356
(dp357
g62
(dp358
g89
g90
ssg71
g347
sg64
(lp359
S':'
asbag57
(g78
g59
NtRp360
(dp361
g62
(dp362
sg71
g347
sg64
(lp363
g57
(g58
g59
NtRp364
(dp365
g62
(dp366
g70
I3
ssg71
g360
sg64
(lp367
S''
asbasbasbag57
(g73
g59
NtRp368
(dp369
g62
(dp370
sg71
g259
sg64
(lp371
g57
(g78
g59
NtRp372
(dp373
g62
(dp374
g82
g83
ssg71
g368
sg64
(lp375
S'path'
p376
asbag57
(g78
g59
NtRp377
(dp378
g62
(dp379
g89
g90
ssg71
g368
sg64
(lp380
S':'
asbag57
(g78
g59
NtRp381
(dp382
g62
(dp383
sg71
g368
sg64
(lp384
g57
(g58
g59
NtRp385
(dp386
g62
(dp387
g70
I3
ssg71
g381
sg64
(lp388
S''
asbasbasbag57
(g73
g59
NtRp389
(dp390
g62
(dp391
sg71
g259
sg64
(lp392
g57
(g78
g59
NtRp393
(dp394
g62
(dp395
g82
g83
ssg71
g389
sg64
(lp396
S'secure'
p397
asbag57
(g78
g59
NtRp398
(dp399
g62
(dp400
g89
g90
ssg71
g389
sg64
(lp401
S':'
asbag57
(g78
g59
NtRp402
(dp403
g62
(dp404
sg71
g389
sg64
(lp405
g57
(g58
g59
NtRp406
(dp407
g62
(dp408
g70
I3
ssg71
g402
sg64
(lp409
S''
asbasbasbag57
(g73
g59
NtRp410
(dp411
g62
(dp412
sg71
g259
sg64
(lp413
g57
(g78
g59
NtRp414
(dp415
g62
(dp416
g82
g83
ssg71
g410
sg64
(lp417
S'version'
p418
asbag57
(g78
g59
NtRp419
(dp420
g62
(dp421
g89
g90
ssg71
g410
sg64
(lp422
S':'
asbag57
(g78
g59
NtRp423
(dp424
g62
(dp425
sg71
g410
sg64
(lp426
g57
(g58
g59
NtRp427
(dp428
g62
(dp429
g70
I3
ssg71
g423
sg64
(lp430
S''
asbasbasbasbasbasbasbag57
(g73
g59
NtRp431
(dp432
g62
(dp433
sg71
g234
sg64
(lp434
g57
(g78
g59
NtRp435
(dp436
g62
(dp437
g82
g83
ssg71
g431
sg64
(lp438
S'session_id_loja'
p439
asbag57
(g78
g59
NtRp440
(dp441
g62
(dp442
g89
g90
ssg71
g431
sg64
(lp443
S':'
asbag57
(g78
g59
NtRp444
(dp445
g62
(dp446
sg71
g431
sg64
(lp447
g57
(g58
g59
NtRp448
(dp449
g62
(dp450
g70
I4
ssg71
g444
sg64
(lp451
g57
(g66
g59
NtRp452
(dp453
g62
(dp454
g70
I3
ssg71
Nsg64
(lp455
g57
(g73
g59
NtRp456
(dp457
g62
(dp458
sg71
g452
sg64
(lp459
g57
(g78
g59
NtRp460
(dp461
g62
(dp462
g82
g83
ssg71
g456
sg64
(lp463
g271
asbag57
(g78
g59
NtRp464
(dp465
g62
(dp466
g89
g90
ssg71
g456
sg64
(lp467
S':'
asbag57
(g78
g59
NtRp468
(dp469
g62
(dp470
sg71
g456
sg64
(lp471
g57
(g58
g59
NtRp472
(dp473
g62
(dp474
g70
I3
ssg71
g468
sg64
(lp475
S''
asbasbasbag57
(g73
g59
NtRp476
(dp477
g62
(dp478
sg71
g452
sg64
(lp479
g57
(g78
g59
NtRp480
(dp481
g62
(dp482
g82
g83
ssg71
g476
sg64
(lp483
g292
asbag57
(g78
g59
NtRp484
(dp485
g62
(dp486
g89
g90
ssg71
g476
sg64
(lp487
S':'
asbag57
(g78
g59
NtRp488
(dp489
g62
(dp490
sg71
g476
sg64
(lp491
g57
(g58
g59
NtRp492
(dp493
g62
(dp494
g70
I3
ssg71
g488
sg64
(lp495
S''
asbasbasbag57
(g73
g59
NtRp496
(dp497
g62
(dp498
sg71
g452
sg64
(lp499
g57
(g78
g59
NtRp500
(dp501
g62
(dp502
g82
g83
ssg71
g496
sg64
(lp503
g313
asbag57
(g78
g59
NtRp504
(dp505
g62
(dp506
g89
g90
ssg71
g496
sg64
(lp507
S':'
asbag57
(g78
g59
NtRp508
(dp509
g62
(dp510
sg71
g496
sg64
(lp511
g57
(g58
g59
NtRp512
(dp513
g62
(dp514
g70
I3
ssg71
g508
sg64
(lp515
S''
asbasbasbag57
(g73
g59
NtRp516
(dp517
g62
(dp518
sg71
g452
sg64
(lp519
g57
(g78
g59
NtRp520
(dp521
g62
(dp522
g82
g83
ssg71
g516
sg64
(lp523
g334
asbag57
(g78
g59
NtRp524
(dp525
g62
(dp526
g89
g90
ssg71
g516
sg64
(lp527
S':'
asbag57
(g78
g59
NtRp528
(dp529
g62
(dp530
sg71
g516
sg64
(lp531
g57
(g58
g59
NtRp532
(dp533
g62
(dp534
g70
I3
ssg71
g528
sg64
(lp535
S''
asbasbasbag57
(g73
g59
NtRp536
(dp537
g62
(dp538
sg71
g452
sg64
(lp539
g57
(g78
g59
NtRp540
(dp541
g62
(dp542
g82
g83
ssg71
g536
sg64
(lp543
g355
asbag57
(g78
g59
NtRp544
(dp545
g62
(dp546
g89
g90
ssg71
g536
sg64
(lp547
S':'
asbag57
(g78
g59
NtRp548
(dp549
g62
(dp550
sg71
g536
sg64
(lp551
g57
(g58
g59
NtRp552
(dp553
g62
(dp554
g70
I3
ssg71
g548
sg64
(lp555
S''
asbasbasbag57
(g73
g59
NtRp556
(dp557
g62
(dp558
sg71
g452
sg64
(lp559
g57
(g78
g59
NtRp560
(dp561
g62
(dp562
g82
g83
ssg71
g556
sg64
(lp563
g376
asbag57
(g78
g59
NtRp564
(dp565
g62
(dp566
g89
g90
ssg71
g556
sg64
(lp567
S':'
asbag57
(g78
g59
NtRp568
(dp569
g62
(dp570
sg71
g556
sg64
(lp571
g57
(g58
g59
NtRp572
(dp573
g62
(dp574
g70
I3
ssg71
g568
sg64
(lp575
S''
asbasbasbag57
(g73
g59
NtRp576
(dp577
g62
(dp578
sg71
g452
sg64
(lp579
g57
(g78
g59
NtRp580
(dp581
g62
(dp582
g82
g83
ssg71
g576
sg64
(lp583
g397
asbag57
(g78
g59
NtRp584
(dp585
g62
(dp586
g89
g90
ssg71
g576
sg64
(lp587
S':'
asbag57
(g78
g59
NtRp588
(dp589
g62
(dp590
sg71
g576
sg64
(lp591
g57
(g58
g59
NtRp592
(dp593
g62
(dp594
g70
I3
ssg71
g588
sg64
(lp595
S''
asbasbasbag57
(g73
g59
NtRp596
(dp597
g62
(dp598
sg71
g452
sg64
(lp599
g57
(g78
g59
NtRp600
(dp601
g62
(dp602
g82
g83
ssg71
g596
sg64
(lp603
g418
asbag57
(g78
g59
NtRp604
(dp605
g62
(dp606
g89
g90
ssg71
g596
sg64
(lp607
S':'
asbag57
(g78
g59
NtRp608
(dp609
g62
(dp610
sg71
g596
sg64
(lp611
g57
(g58
g59
NtRp612
(dp613
g62
(dp614
g70
I3
ssg71
g608
sg64
(lp615
S''
asbasbasbasbasbasbasbag57
(g73
g59
NtRp616
(dp617
g62
(dp618
sg71
g234
sg64
(lp619
g57
(g78
g59
NtRp620
(dp621
g62
(dp622
g82
g83
ssg71
g616
sg64
(lp623
S'session_id_welcome'
p624
asbag57
(g78
g59
NtRp625
(dp626
g62
(dp627
g89
g90
ssg71
g616
sg64
(lp628
S':'
asbag57
(g78
g59
NtRp629
(dp630
g62
(dp631
sg71
g616
sg64
(lp632
g57
(g58
g59
NtRp633
(dp634
g62
(dp635
g70
I4
ssg71
g629
sg64
(lp636
g57
(g66
g59
NtRp637
(dp638
g62
(dp639
g70
I3
ssg71
Nsg64
(lp640
g57
(g73
g59
NtRp641
(dp642
g62
(dp643
sg71
g637
sg64
(lp644
g57
(g78
g59
NtRp645
(dp646
g62
(dp647
g82
g83
ssg71
g641
sg64
(lp648
g271
asbag57
(g78
g59
NtRp649
(dp650
g62
(dp651
g89
g90
ssg71
g641
sg64
(lp652
S':'
asbag57
(g78
g59
NtRp653
(dp654
g62
(dp655
sg71
g641
sg64
(lp656
g57
(g58
g59
NtRp657
(dp658
g62
(dp659
g70
I3
ssg71
g653
sg64
(lp660
S''
asbasbasbag57
(g73
g59
NtRp661
(dp662
g62
(dp663
sg71
g637
sg64
(lp664
g57
(g78
g59
NtRp665
(dp666
g62
(dp667
g82
g83
ssg71
g661
sg64
(lp668
g292
asbag57
(g78
g59
NtRp669
(dp670
g62
(dp671
g89
g90
ssg71
g661
sg64
(lp672
S':'
asbag57
(g78
g59
NtRp673
(dp674
g62
(dp675
sg71
g661
sg64
(lp676
g57
(g58
g59
NtRp677
(dp678
g62
(dp679
g70
I3
ssg71
g673
sg64
(lp680
S''
asbasbasbag57
(g73
g59
NtRp681
(dp682
g62
(dp683
sg71
g637
sg64
(lp684
g57
(g78
g59
NtRp685
(dp686
g62
(dp687
g82
g83
ssg71
g681
sg64
(lp688
g313
asbag57
(g78
g59
NtRp689
(dp690
g62
(dp691
g89
g90
ssg71
g681
sg64
(lp692
S':'
asbag57
(g78
g59
NtRp693
(dp694
g62
(dp695
sg71
g681
sg64
(lp696
g57
(g58
g59
NtRp697
(dp698
g62
(dp699
g70
I3
ssg71
g693
sg64
(lp700
S''
asbasbasbag57
(g73
g59
NtRp701
(dp702
g62
(dp703
sg71
g637
sg64
(lp704
g57
(g78
g59
NtRp705
(dp706
g62
(dp707
g82
g83
ssg71
g701
sg64
(lp708
g334
asbag57
(g78
g59
NtRp709
(dp710
g62
(dp711
g89
g90
ssg71
g701
sg64
(lp712
S':'
asbag57
(g78
g59
NtRp713
(dp714
g62
(dp715
sg71
g701
sg64
(lp716
g57
(g58
g59
NtRp717
(dp718
g62
(dp719
g70
I3
ssg71
g713
sg64
(lp720
S''
asbasbasbag57
(g73
g59
NtRp721
(dp722
g62
(dp723
sg71
g637
sg64
(lp724
g57
(g78
g59
NtRp725
(dp726
g62
(dp727
g82
g83
ssg71
g721
sg64
(lp728
g355
asbag57
(g78
g59
NtRp729
(dp730
g62
(dp731
g89
g90
ssg71
g721
sg64
(lp732
S':'
asbag57
(g78
g59
NtRp733
(dp734
g62
(dp735
sg71
g721
sg64
(lp736
g57
(g58
g59
NtRp737
(dp738
g62
(dp739
g70
I3
ssg71
g733
sg64
(lp740
S''
asbasbasbag57
(g73
g59
NtRp741
(dp742
g62
(dp743
sg71
g637
sg64
(lp744
g57
(g78
g59
NtRp745
(dp746
g62
(dp747
g82
g83
ssg71
g741
sg64
(lp748
g376
asbag57
(g78
g59
NtRp749
(dp750
g62
(dp751
g89
g90
ssg71
g741
sg64
(lp752
S':'
asbag57
(g78
g59
NtRp753
(dp754
g62
(dp755
sg71
g741
sg64
(lp756
g57
(g58
g59
NtRp757
(dp758
g62
(dp759
g70
I3
ssg71
g753
sg64
(lp760
S''
asbasbasbag57
(g73
g59
NtRp761
(dp762
g62
(dp763
sg71
g637
sg64
(lp764
g57
(g78
g59
NtRp765
(dp766
g62
(dp767
g82
g83
ssg71
g761
sg64
(lp768
g397
asbag57
(g78
g59
NtRp769
(dp770
g62
(dp771
g89
g90
ssg71
g761
sg64
(lp772
S':'
asbag57
(g78
g59
NtRp773
(dp774
g62
(dp775
sg71
g761
sg64
(lp776
g57
(g58
g59
NtRp777
(dp778
g62
(dp779
g70
I3
ssg71
g773
sg64
(lp780
S''
asbasbasbag57
(g73
g59
NtRp781
(dp782
g62
(dp783
sg71
g637
sg64
(lp784
g57
(g78
g59
NtRp785
(dp786
g62
(dp787
g82
g83
ssg71
g781
sg64
(lp788
g418
asbag57
(g78
g59
NtRp789
(dp790
g62
(dp791
g89
g90
ssg71
g781
sg64
(lp792
S':'
asbag57
(g78
g59
NtRp793
(dp794
g62
(dp795
sg71
g781
sg64
(lp796
g57
(g58
g59
NtRp797
(dp798
g62
(dp799
g70
I3
ssg71
g793
sg64
(lp800
S''
asbasbasbasbasbasbasbasbasbasbasbag57
(g73
g59
NtRp801
(dp802
g62
(dp803
sg71
g67
sg64
(lp804
g57
(g78
g59
NtRp805
(dp806
g62
(dp807
g82
g83
ssg71
g801
sg64
(lp808
S'env'
p809
asbag57
(g78
g59
NtRp810
(dp811
g62
(dp812
g89
g90
ssg71
g801
sg64
(lp813
S':'
asbag57
(g78
g59
NtRp814
(dp815
g62
(dp816
sg71
g801
sg64
(lp817
g57
(g58
g59
NtRp818
(dp819
g62
(dp820
g70
I5
ssg71
g814
sg64
(lp821
g57
(g66
g59
NtRp822
(dp823
g62
(dp824
g70
I4
ssg71
Nsg64
(lp825
g57
(g73
g59
NtRp826
(dp827
g62
(dp828
sg71
g822
sg64
(lp829
g57
(g78
g59
NtRp830
(dp831
g62
(dp832
g82
g83
ssg71
g826
sg64
(lp833
S'app_folders'
p834
asbag57
(g78
g59
NtRp835
(dp836
g62
(dp837
g89
g90
ssg71
g826
sg64
(lp838
S':'
asbag57
(g78
g59
NtRp839
(dp840
g62
(dp841
sg71
g826
sg64
(lp842
g57
(g58
g59
NtRp843
(dp844
g62
(dp845
g70
I4
ssg71
g839
sg64
(lp846
S"set(['c:\\\\Users\\\\rochacbruno\\\\aula7_mar12\\\\web2py\\\\applications\\\\admin\\\\', 'c:\\\\Users\\\\rochacbruno\\\\aula7_mar12\\\\web2py\\\\applications\\\\loja\\\\'])"
p847
asbasbasbag57
(g73
g59
NtRp848
(dp849
g62
(dp850
sg71
g822
sg64
(lp851
g57
(g78
g59
NtRp852
(dp853
g62
(dp854
g82
g83
ssg71
g848
sg64
(lp855
S'applications_parent'
p856
asbag57
(g78
g59
NtRp857
(dp858
g62
(dp859
g89
g90
ssg71
g848
sg64
(lp860
S':'
asbag57
(g78
g59
NtRp861
(dp862
g62
(dp863
sg71
g848
sg64
(lp864
g57
(g58
g59
NtRp865
(dp866
g62
(dp867
g70
I4
ssg71
g861
sg64
(lp868
S'c:\\Users\\rochacbruno\\aula7_mar12\\web2py'
p869
asbasbasbag57
(g73
g59
NtRp870
(dp871
g62
(dp872
sg71
g822
sg64
(lp873
g57
(g78
g59
NtRp874
(dp875
g62
(dp876
g82
g83
ssg71
g870
sg64
(lp877
S'cmd_args'
p878
asbag57
(g78
g59
NtRp879
(dp880
g62
(dp881
g89
g90
ssg71
g870
sg64
(lp882
S':'
asbag57
(g78
g59
NtRp883
(dp884
g62
(dp885
sg71
g870
sg64
(lp886
g57
(g58
g59
NtRp887
(dp888
g62
(dp889
g70
I4
ssg71
g883
sg64
(lp890
g57
(g66
g59
NtRp891
(dp892
g62
(dp893
g70
I3
ssg71
Nsg64
(lp894
sbasbasbasbag57
(g73
g59
NtRp895
(dp896
g62
(dp897
sg71
g822
sg64
(lp898
g57
(g78
g59
NtRp899
(dp900
g62
(dp901
g82
g83
ssg71
g895
sg64
(lp902
S'cmd_options'
p903
asbag57
(g78
g59
NtRp904
(dp905
g62
(dp906
g89
g90
ssg71
g895
sg64
(lp907
S':'
asbag57
(g78
g59
NtRp908
(dp909
g62
(dp910
sg71
g895
sg64
(lp911
g57
(g58
g59
NtRp912
(dp913
g62
(dp914
g70
I4
ssg71
g908
sg64
(lp915
S"<Values at 0x265e788: {'verbose': False, 'ip': '0.0.0.0', 'shutdown_timeout': 5, 'taskbar': False, 'nocron': True, 'pid_filename': 'httpserver.pid', 'maxthreads': None, 'softcron': False, 'server_name': 'rochacbruno-HP', 'bpython': False, 'nogui': False, 'port': 8000, 'extcron': False, 'debuglevel': 30, 'test': None, 'folder': 'c:\\\\Users\\\\rochacbruno\\\\aula7_mar12\\\\web2py', 'config': '', 'import_models': False, 'winservice': '', 'shell': None, 'run': '', 'log_filename': 'httpserver.log', 'args': [''], 'socket_timeout': 5, 'ssl_ca_certificate': None, 'scheduler': None, 'profiler_filename': None, 'ssl_private_key': '', 'password': '1234', 'request_queue_size': 5, 'ssl_certificate': '', 'cronjob': False, 'numthreads': None, 'quiet': False, 'interfaces': None, 'minthreads': None, 'timeout': 10, 'plain': False, 'nobanner': False}>"
p916
asbasbasbag57
(g73
g59
NtRp917
(dp918
g62
(dp919
sg71
g822
sg64
(lp920
g57
(g78
g59
NtRp921
(dp922
g62
(dp923
g82
g83
ssg71
g917
sg64
(lp924
S'db_sessions'
p925
asbag57
(g78
g59
NtRp926
(dp927
g62
(dp928
g89
g90
ssg71
g917
sg64
(lp929
S':'
asbag57
(g78
g59
NtRp930
(dp931
g62
(dp932
sg71
g917
sg64
(lp933
g57
(g58
g59
NtRp934
(dp935
g62
(dp936
g70
I4
ssg71
g930
sg64
(lp937
S'set([])'
p938
asbasbasbag57
(g73
g59
NtRp939
(dp940
g62
(dp941
sg71
g822
sg64
(lp942
g57
(g78
g59
NtRp943
(dp944
g62
(dp945
g82
g83
ssg71
g939
sg64
(lp946
S'debugging'
p947
asbag57
(g78
g59
NtRp948
(dp949
g62
(dp950
g89
g90
ssg71
g939
sg64
(lp951
S':'
asbag57
(g78
g59
NtRp952
(dp953
g62
(dp954
sg71
g939
sg64
(lp955
g57
(g58
g59
NtRp956
(dp957
g62
(dp958
g70
I4
ssg71
g952
sg64
(lp959
g100
asbasbasbag57
(g73
g59
NtRp960
(dp961
g62
(dp962
sg71
g822
sg64
(lp963
g57
(g78
g59
NtRp964
(dp965
g62
(dp966
g82
g83
ssg71
g960
sg64
(lp967
S'gluon_parent'
p968
asbag57
(g78
g59
NtRp969
(dp970
g62
(dp971
g89
g90
ssg71
g960
sg64
(lp972
S':'
asbag57
(g78
g59
NtRp973
(dp974
g62
(dp975
sg71
g960
sg64
(lp976
g57
(g58
g59
NtRp977
(dp978
g62
(dp979
g70
I4
ssg71
g973
sg64
(lp980
S'c:\\Users\\rochacbruno\\aula7_mar12\\web2py'
p981
asbasbasbag57
(g73
g59
NtRp982
(dp983
g62
(dp984
sg71
g822
sg64
(lp985
g57
(g78
g59
NtRp986
(dp987
g62
(dp988
g82
g83
ssg71
g982
sg64
(lp989
S'http_accept'
p990
asbag57
(g78
g59
NtRp991
(dp992
g62
(dp993
g89
g90
ssg71
g982
sg64
(lp994
S':'
asbag57
(g78
g59
NtRp995
(dp996
g62
(dp997
sg71
g982
sg64
(lp998
g57
(g58
g59
NtRp999
(dp1000
g62
(dp1001
g70
I4
ssg71
g995
sg64
(lp1002
S'text/html,application/xhtml+xml,application/xml;q=0.9,*/*;q=0.8'
p1003
asbasbasbag57
(g73
g59
NtRp1004
(dp1005
g62
(dp1006
sg71
g822
sg64
(lp1007
g57
(g78
g59
NtRp1008
(dp1009
g62
(dp1010
g82
g83
ssg71
g1004
sg64
(lp1011
S'http_accept_encoding'
p1012
asbag57
(g78
g59
NtRp1013
(dp1014
g62
(dp1015
g89
g90
ssg71
g1004
sg64
(lp1016
S':'
asbag57
(g78
g59
NtRp1017
(dp1018
g62
(dp1019
sg71
g1004
sg64
(lp1020
g57
(g58
g59
NtRp1021
(dp1022
g62
(dp1023
g70
I4
ssg71
g1017
sg64
(lp1024
S'gzip, deflate'
p1025
asbasbasbag57
(g73
g59
NtRp1026
(dp1027
g62
(dp1028
sg71
g822
sg64
(lp1029
g57
(g78
g59
NtRp1030
(dp1031
g62
(dp1032
g82
g83
ssg71
g1026
sg64
(lp1033
S'http_accept_language'
p1034
asbag57
(g78
g59
NtRp1035
(dp1036
g62
(dp1037
g89
g90
ssg71
g1026
sg64
(lp1038
S':'
asbag57
(g78
g59
NtRp1039
(dp1040
g62
(dp1041
sg71
g1026
sg64
(lp1042
g57
(g58
g59
NtRp1043
(dp1044
g62
(dp1045
g70
I4
ssg71
g1039
sg64
(lp1046
S'pt-br,en;q=0.8,pt;q=0.5,en-us;q=0.3'
p1047
asbasbasbag57
(g73
g59
NtRp1048
(dp1049
g62
(dp1050
sg71
g822
sg64
(lp1051
g57
(g78
g59
NtRp1052
(dp1053
g62
(dp1054
g82
g83
ssg71
g1048
sg64
(lp1055
S'http_cache_control'
p1056
asbag57
(g78
g59
NtRp1057
(dp1058
g62
(dp1059
g89
g90
ssg71
g1048
sg64
(lp1060
S':'
asbag57
(g78
g59
NtRp1061
(dp1062
g62
(dp1063
sg71
g1048
sg64
(lp1064
g57
(g58
g59
NtRp1065
(dp1066
g62
(dp1067
g70
I4
ssg71
g1061
sg64
(lp1068
S'max-age=0'
p1069
asbasbasbag57
(g73
g59
NtRp1070
(dp1071
g62
(dp1072
sg71
g822
sg64
(lp1073
g57
(g78
g59
NtRp1074
(dp1075
g62
(dp1076
g82
g83
ssg71
g1070
sg64
(lp1077
S'http_connection'
p1078
asbag57
(g78
g59
NtRp1079
(dp1080
g62
(dp1081
g89
g90
ssg71
g1070
sg64
(lp1082
S':'
asbag57
(g78
g59
NtRp1083
(dp1084
g62
(dp1085
sg71
g1070
sg64
(lp1086
g57
(g58
g59
NtRp1087
(dp1088
g62
(dp1089
g70
I4
ssg71
g1083
sg64
(lp1090
S'keep-alive'
p1091
asbasbasbag57
(g73
g59
NtRp1092
(dp1093
g62
(dp1094
sg71
g822
sg64
(lp1095
g57
(g78
g59
NtRp1096
(dp1097
g62
(dp1098
g82
g83
ssg71
g1092
sg64
(lp1099
S'http_cookie'
p1100
asbag57
(g78
g59
NtRp1101
(dp1102
g62
(dp1103
g89
g90
ssg71
g1092
sg64
(lp1104
S':'
asbag57
(g78
g59
NtRp1105
(dp1106
g62
(dp1107
sg71
g1092
sg64
(lp1108
g57
(g58
g59
NtRp1109
(dp1110
g62
(dp1111
g70
I4
ssg71
g1105
sg64
(lp1112
S'session_id_welcome=127.0.0.1-86a3bae0-9ce1-46de-b4d1-57b3672f2f5d; session_id_admin=127.0.0.1-68d4c57c-9ce2-48ee-b07a-7d93559d37cd; session_id_loja=127.0.0.1-fb75163a-73c4-449b-bfc7-9a2d3a807a23'
p1113
asbasbasbag57
(g73
g59
NtRp1114
(dp1115
g62
(dp1116
sg71
g822
sg64
(lp1117
g57
(g78
g59
NtRp1118
(dp1119
g62
(dp1120
g82
g83
ssg71
g1114
sg64
(lp1121
S'http_host'
p1122
asbag57
(g78
g59
NtRp1123
(dp1124
g62
(dp1125
g89
g90
ssg71
g1114
sg64
(lp1126
S':'
asbag57
(g78
g59
NtRp1127
(dp1128
g62
(dp1129
sg71
g1114
sg64
(lp1130
g57
(g58
g59
NtRp1131
(dp1132
g62
(dp1133
g70
I4
ssg71
g1127
sg64
(lp1134
S'localhost:8000'
p1135
asbasbasbag57
(g73
g59
NtRp1136
(dp1137
g62
(dp1138
sg71
g822
sg64
(lp1139
g57
(g78
g59
NtRp1140
(dp1141
g62
(dp1142
g82
g83
ssg71
g1136
sg64
(lp1143
S'http_user_agent'
p1144
asbag57
(g78
g59
NtRp1145
(dp1146
g62
(dp1147
g89
g90
ssg71
g1136
sg64
(lp1148
S':'
asbag57
(g78
g59
NtRp1149
(dp1150
g62
(dp1151
sg71
g1136
sg64
(lp1152
g57
(g58
g59
NtRp1153
(dp1154
g62
(dp1155
g70
I4
ssg71
g1149
sg64
(lp1156
S'Mozilla/5.0 (Windows NT 6.1; rv:11.0) Gecko/20100101 Firefox/11.0'
p1157
asbasbasbag57
(g73
g59
NtRp1158
(dp1159
g62
(dp1160
sg71
g822
sg64
(lp1161
g57
(g78
g59
NtRp1162
(dp1163
g62
(dp1164
g82
g83
ssg71
g1158
sg64
(lp1165
S'is_jython'
p1166
asbag57
(g78
g59
NtRp1167
(dp1168
g62
(dp1169
g89
g90
ssg71
g1158
sg64
(lp1170
S':'
asbag57
(g78
g59
NtRp1171
(dp1172
g62
(dp1173
sg71
g1158
sg64
(lp1174
g57
(g58
g59
NtRp1175
(dp1176
g62
(dp1177
g70
I4
ssg71
g1171
sg64
(lp1178
g100
asbasbasbag57
(g73
g59
NtRp1179
(dp1180
g62
(dp1181
sg71
g822
sg64
(lp1182
g57
(g78
g59
NtRp1183
(dp1184
g62
(dp1185
g82
g83
ssg71
g1179
sg64
(lp1186
S'is_pypy'
p1187
asbag57
(g78
g59
NtRp1188
(dp1189
g62
(dp1190
g89
g90
ssg71
g1179
sg64
(lp1191
S':'
asbag57
(g78
g59
NtRp1192
(dp1193
g62
(dp1194
sg71
g1179
sg64
(lp1195
g57
(g58
g59
NtRp1196
(dp1197
g62
(dp1198
g70
I4
ssg71
g1192
sg64
(lp1199
g100
asbasbasbag57
(g73
g59
NtRp1200
(dp1201
g62
(dp1202
sg71
g822
sg64
(lp1203
g57
(g78
g59
NtRp1204
(dp1205
g62
(dp1206
g82
g83
ssg71
g1200
sg64
(lp1207
S'path_info'
p1208
asbag57
(g78
g59
NtRp1209
(dp1210
g62
(dp1211
g89
g90
ssg71
g1200
sg64
(lp1212
S':'
asbag57
(g78
g59
NtRp1213
(dp1214
g62
(dp1215
sg71
g1200
sg64
(lp1216
g57
(g58
g59
NtRp1217
(dp1218
g62
(dp1219
g70
I4
ssg71
g1213
sg64
(lp1220
S'/loja/home/index'
p1221
asbasbasbag57
(g73
g59
NtRp1222
(dp1223
g62
(dp1224
sg71
g822
sg64
(lp1225
g57
(g78
g59
NtRp1226
(dp1227
g62
(dp1228
g82
g83
ssg71
g1222
sg64
(lp1229
S'query_string'
p1230
asbag57
(g78
g59
NtRp1231
(dp1232
g62
(dp1233
g89
g90
ssg71
g1222
sg64
(lp1234
S':'
asbag57
(g78
g59
NtRp1235
(dp1236
g62
(dp1237
sg71
g1222
sg64
(lp1238
g57
(g58
g59
NtRp1239
(dp1240
g62
(dp1241
g70
I4
ssg71
g1235
sg64
(lp1242
S''
asbasbasbag57
(g73
g59
NtRp1243
(dp1244
g62
(dp1245
sg71
g822
sg64
(lp1246
g57
(g78
g59
NtRp1247
(dp1248
g62
(dp1249
g82
g83
ssg71
g1243
sg64
(lp1250
S'remote_addr'
p1251
asbag57
(g78
g59
NtRp1252
(dp1253
g62
(dp1254
g89
g90
ssg71
g1243
sg64
(lp1255
S':'
asbag57
(g78
g59
NtRp1256
(dp1257
g62
(dp1258
sg71
g1243
sg64
(lp1259
g57
(g58
g59
NtRp1260
(dp1261
g62
(dp1262
g70
I4
ssg71
g1256
sg64
(lp1263
g190
asbasbasbag57
(g73
g59
NtRp1264
(dp1265
g62
(dp1266
sg71
g822
sg64
(lp1267
g57
(g78
g59
NtRp1268
(dp1269
g62
(dp1270
g82
g83
ssg71
g1264
sg64
(lp1271
S'remote_port'
p1272
asbag57
(g78
g59
NtRp1273
(dp1274
g62
(dp1275
g89
g90
ssg71
g1264
sg64
(lp1276
S':'
asbag57
(g78
g59
NtRp1277
(dp1278
g62
(dp1279
sg71
g1264
sg64
(lp1280
g57
(g58
g59
NtRp1281
(dp1282
g62
(dp1283
g70
I4
ssg71
g1277
sg64
(lp1284
S'49838'
p1285
asbasbasbag57
(g73
g59
NtRp1286
(dp1287
g62
(dp1288
sg71
g822
sg64
(lp1289
g57
(g78
g59
NtRp1290
(dp1291
g62
(dp1292
g82
g83
ssg71
g1286
sg64
(lp1293
S'request_method'
p1294
asbag57
(g78
g59
NtRp1295
(dp1296
g62
(dp1297
g89
g90
ssg71
g1286
sg64
(lp1298
S':'
asbag57
(g78
g59
NtRp1299
(dp1300
g62
(dp1301
sg71
g1286
sg64
(lp1302
g57
(g58
g59
NtRp1303
(dp1304
g62
(dp1305
g70
I4
ssg71
g1299
sg64
(lp1306
S'GET'
p1307
asbasbasbag57
(g73
g59
NtRp1308
(dp1309
g62
(dp1310
sg71
g822
sg64
(lp1311
g57
(g78
g59
NtRp1312
(dp1313
g62
(dp1314
g82
g83
ssg71
g1308
sg64
(lp1315
S'request_uri'
p1316
asbag57
(g78
g59
NtRp1317
(dp1318
g62
(dp1319
g89
g90
ssg71
g1308
sg64
(lp1320
S':'
asbag57
(g78
g59
NtRp1321
(dp1322
g62
(dp1323
sg71
g1308
sg64
(lp1324
g57
(g58
g59
NtRp1325
(dp1326
g62
(dp1327
g70
I4
ssg71
g1321
sg64
(lp1328
g1221
asbasbasbag57
(g73
g59
NtRp1329
(dp1330
g62
(dp1331
sg71
g822
sg64
(lp1332
g57
(g78
g59
NtRp1333
(dp1334
g62
(dp1335
g82
g83
ssg71
g1329
sg64
(lp1336
S'script_name'
p1337
asbag57
(g78
g59
NtRp1338
(dp1339
g62
(dp1340
g89
g90
ssg71
g1329
sg64
(lp1341
S':'
asbag57
(g78
g59
NtRp1342
(dp1343
g62
(dp1344
sg71
g1329
sg64
(lp1345
g57
(g58
g59
NtRp1346
(dp1347
g62
(dp1348
g70
I4
ssg71
g1342
sg64
(lp1349
S''
asbasbasbag57
(g73
g59
NtRp1350
(dp1351
g62
(dp1352
sg71
g822
sg64
(lp1353
g57
(g78
g59
NtRp1354
(dp1355
g62
(dp1356
g82
g83
ssg71
g1350
sg64
(lp1357
S'server_name'
p1358
asbag57
(g78
g59
NtRp1359
(dp1360
g62
(dp1361
g89
g90
ssg71
g1350
sg64
(lp1362
S':'
asbag57
(g78
g59
NtRp1363
(dp1364
g62
(dp1365
sg71
g1350
sg64
(lp1366
g57
(g58
g59
NtRp1367
(dp1368
g62
(dp1369
g70
I4
ssg71
g1363
sg64
(lp1370
S'rochacbruno-HP'
p1371
asbasbasbag57
(g73
g59
NtRp1372
(dp1373
g62
(dp1374
sg71
g822
sg64
(lp1375
g57
(g78
g59
NtRp1376
(dp1377
g62
(dp1378
g82
g83
ssg71
g1372
sg64
(lp1379
S'server_port'
p1380
asbag57
(g78
g59
NtRp1381
(dp1382
g62
(dp1383
g89
g90
ssg71
g1372
sg64
(lp1384
S':'
asbag57
(g78
g59
NtRp1385
(dp1386
g62
(dp1387
sg71
g1372
sg64
(lp1388
g57
(g58
g59
NtRp1389
(dp1390
g62
(dp1391
g70
I4
ssg71
g1385
sg64
(lp1392
S'8000'
p1393
asbasbasbag57
(g73
g59
NtRp1394
(dp1395
g62
(dp1396
sg71
g822
sg64
(lp1397
g57
(g78
g59
NtRp1398
(dp1399
g62
(dp1400
g82
g83
ssg71
g1394
sg64
(lp1401
S'server_protocol'
p1402
asbag57
(g78
g59
NtRp1403
(dp1404
g62
(dp1405
g89
g90
ssg71
g1394
sg64
(lp1406
S':'
asbag57
(g78
g59
NtRp1407
(dp1408
g62
(dp1409
sg71
g1394
sg64
(lp1410
g57
(g58
g59
NtRp1411
(dp1412
g62
(dp1413
g70
I4
ssg71
g1407
sg64
(lp1414
S'HTTP/1.1'
p1415
asbasbasbag57
(g73
g59
NtRp1416
(dp1417
g62
(dp1418
sg71
g822
sg64
(lp1419
g57
(g78
g59
NtRp1420
(dp1421
g62
(dp1422
g82
g83
ssg71
g1416
sg64
(lp1423
S'server_software'
p1424
asbag57
(g78
g59
NtRp1425
(dp1426
g62
(dp1427
g89
g90
ssg71
g1416
sg64
(lp1428
S':'
asbag57
(g78
g59
NtRp1429
(dp1430
g62
(dp1431
sg71
g1416
sg64
(lp1432
g57
(g58
g59
NtRp1433
(dp1434
g62
(dp1435
g70
I4
ssg71
g1429
sg64
(lp1436
S'Rocket 1.2.4'
p1437
asbasbasbag57
(g73
g59
NtRp1438
(dp1439
g62
(dp1440
sg71
g822
sg64
(lp1441
g57
(g78
g59
NtRp1442
(dp1443
g62
(dp1444
g82
g83
ssg71
g1438
sg64
(lp1445
S'web2py_original_uri'
p1446
asbag57
(g78
g59
NtRp1447
(dp1448
g62
(dp1449
g89
g90
ssg71
g1438
sg64
(lp1450
S':'
asbag57
(g78
g59
NtRp1451
(dp1452
g62
(dp1453
sg71
g1438
sg64
(lp1454
g57
(g58
g59
NtRp1455
(dp1456
g62
(dp1457
g70
I4
ssg71
g1451
sg64
(lp1458
g1221
asbasbasbag57
(g73
g59
NtRp1459
(dp1460
g62
(dp1461
sg71
g822
sg64
(lp1462
g57
(g78
g59
NtRp1463
(dp1464
g62
(dp1465
g82
g83
ssg71
g1459
sg64
(lp1466
S'web2py_path'
p1467
asbag57
(g78
g59
NtRp1468
(dp1469
g62
(dp1470
g89
g90
ssg71
g1459
sg64
(lp1471
S':'
asbag57
(g78
g59
NtRp1472
(dp1473
g62
(dp1474
sg71
g1459
sg64
(lp1475
g57
(g58
g59
NtRp1476
(dp1477
g62
(dp1478
g70
I4
ssg71
g1472
sg64
(lp1479
g869
asbasbasbag57
(g73
g59
NtRp1480
(dp1481
g62
(dp1482
sg71
g822
sg64
(lp1483
g57
(g78
g59
NtRp1484
(dp1485
g62
(dp1486
g82
g83
ssg71
g1480
sg64
(lp1487
S'web2py_version'
p1488
asbag57
(g78
g59
NtRp1489
(dp1490
g62
(dp1491
g89
g90
ssg71
g1480
sg64
(lp1492
S':'
asbag57
(g78
g59
NtRp1493
(dp1494
g62
(dp1495
sg71
g1480
sg64
(lp1496
g57
(g58
g59
NtRp1497
(dp1498
g62
(dp1499
g70
I4
ssg71
g1493
sg64
(lp1500
g57
(g66
g59
NtRp1501
(dp1502
g62
(dp1503
g70
I3
ssg71
Nsg64
(lp1504
g57
(g73
g59
NtRp1505
(dp1506
g62
(dp1507
sg71
g1501
sg64
(lp1508
g57
(g78
g59
NtRp1509
(dp1510
g62
(dp1511
sg71
g1505
sg64
(lp1512
g57
(g58
g59
NtRp1513
(dp1514
g62
(dp1515
g70
I3
ssg71
g1509
sg64
(lp1516
S'1'
asbasbasbag57
(g73
g59
NtRp1517
(dp1518
g62
(dp1519
sg71
g1501
sg64
(lp1520
g57
(g78
g59
NtRp1521
(dp1522
g62
(dp1523
sg71
g1517
sg64
(lp1524
g57
(g58
g59
NtRp1525
(dp1526
g62
(dp1527
g70
I3
ssg71
g1521
sg64
(lp1528
S'99'
p1529
asbasbasbag57
(g73
g59
NtRp1530
(dp1531
g62
(dp1532
sg71
g1501
sg64
(lp1533
g57
(g78
g59
NtRp1534
(dp1535
g62
(dp1536
sg71
g1530
sg64
(lp1537
g57
(g58
g59
NtRp1538
(dp1539
g62
(dp1540
g70
I3
ssg71
g1534
sg64
(lp1541
S'7'
asbasbasbag57
(g73
g59
NtRp1542
(dp1543
g62
(dp1544
sg71
g1501
sg64
(lp1545
g57
(g78
g59
NtRp1546
(dp1547
g62
(dp1548
sg71
g1542
sg64
(lp1549
g57
(g58
g59
NtRp1550
(dp1551
g62
(dp1552
g70
I3
ssg71
g1546
sg64
(lp1553
S'datetime.datetime(2012, 3, 4, 22, 12, 8)'
p1554
asbasbasbag57
(g73
g59
NtRp1555
(dp1556
g62
(dp1557
sg71
g1501
sg64
(lp1558
g57
(g78
g59
NtRp1559
(dp1560
g62
(dp1561
sg71
g1555
sg64
(lp1562
g57
(g58
g59
NtRp1563
(dp1564
g62
(dp1565
g70
I3
ssg71
g1559
sg64
(lp1566
S'stable'
p1567
asbasbasbasbasbasbasbag57
(g73
g59
NtRp1568
(dp1569
g62
(dp1570
sg71
g822
sg64
(lp1571
g57
(g78
g59
NtRp1572
(dp1573
g62
(dp1574
g82
g83
ssg71
g1568
sg64
(lp1575
S'wsgi_errors'
p1576
asbag57
(g78
g59
NtRp1577
(dp1578
g62
(dp1579
g89
g90
ssg71
g1568
sg64
(lp1580
S':'
asbag57
(g78
g59
NtRp1581
(dp1582
g62
(dp1583
sg71
g1568
sg64
(lp1584
g57
(g58
g59
NtRp1585
(dp1586
g62
(dp1587
g70
I4
ssg71
g1581
sg64
(lp1588
S"<open file '<stderr>', mode 'w' at 0x013650D0>"
p1589
asbasbasbag57
(g73
g59
NtRp1590
(dp1591
g62
(dp1592
sg71
g822
sg64
(lp1593
g57
(g78
g59
NtRp1594
(dp1595
g62
(dp1596
g82
g83
ssg71
g1590
sg64
(lp1597
S'wsgi_file_wrapper'
p1598
asbag57
(g78
g59
NtRp1599
(dp1600
g62
(dp1601
g89
g90
ssg71
g1590
sg64
(lp1602
S':'
asbag57
(g78
g59
NtRp1603
(dp1604
g62
(dp1605
sg71
g1590
sg64
(lp1606
g57
(g58
g59
NtRp1607
(dp1608
g62
(dp1609
g70
I4
ssg71
g1603
sg64
(lp1610
S'<class wsgiref.util.FileWrapper at 0x02596B20>'
p1611
asbasbasbag57
(g73
g59
NtRp1612
(dp1613
g62
(dp1614
sg71
g822
sg64
(lp1615
g57
(g78
g59
NtRp1616
(dp1617
g62
(dp1618
g82
g83
ssg71
g1612
sg64
(lp1619
S'wsgi_input'
p1620
asbag57
(g78
g59
NtRp1621
(dp1622
g62
(dp1623
g89
g90
ssg71
g1612
sg64
(lp1624
S':'
asbag57
(g78
g59
NtRp1625
(dp1626
g62
(dp1627
sg71
g1612
sg64
(lp1628
g57
(g58
g59
NtRp1629
(dp1630
g62
(dp1631
g70
I4
ssg71
g1625
sg64
(lp1632
S'<socket._fileobject object at 0x027C9AF0>'
p1633
asbasbasbag57
(g73
g59
NtRp1634
(dp1635
g62
(dp1636
sg71
g822
sg64
(lp1637
g57
(g78
g59
NtRp1638
(dp1639
g62
(dp1640
g82
g83
ssg71
g1634
sg64
(lp1641
S'wsgi_multiprocess'
p1642
asbag57
(g78
g59
NtRp1643
(dp1644
g62
(dp1645
g89
g90
ssg71
g1634
sg64
(lp1646
S':'
asbag57
(g78
g59
NtRp1647
(dp1648
g62
(dp1649
sg71
g1634
sg64
(lp1650
g57
(g58
g59
NtRp1651
(dp1652
g62
(dp1653
g70
I4
ssg71
g1647
sg64
(lp1654
g100
asbasbasbag57
(g73
g59
NtRp1655
(dp1656
g62
(dp1657
sg71
g822
sg64
(lp1658
g57
(g78
g59
NtRp1659
(dp1660
g62
(dp1661
g82
g83
ssg71
g1655
sg64
(lp1662
S'wsgi_multithread'
p1663
asbag57
(g78
g59
NtRp1664
(dp1665
g62
(dp1666
g89
g90
ssg71
g1655
sg64
(lp1667
S':'
asbag57
(g78
g59
NtRp1668
(dp1669
g62
(dp1670
sg71
g1655
sg64
(lp1671
g57
(g58
g59
NtRp1672
(dp1673
g62
(dp1674
g70
I4
ssg71
g1668
sg64
(lp1675
S'True'
p1676
asbasbasbag57
(g73
g59
NtRp1677
(dp1678
g62
(dp1679
sg71
g822
sg64
(lp1680
g57
(g78
g59
NtRp1681
(dp1682
g62
(dp1683
g82
g83
ssg71
g1677
sg64
(lp1684
S'wsgi_run_once'
p1685
asbag57
(g78
g59
NtRp1686
(dp1687
g62
(dp1688
g89
g90
ssg71
g1677
sg64
(lp1689
S':'
asbag57
(g78
g59
NtRp1690
(dp1691
g62
(dp1692
sg71
g1677
sg64
(lp1693
g57
(g58
g59
NtRp1694
(dp1695
g62
(dp1696
g70
I4
ssg71
g1690
sg64
(lp1697
g100
asbasbasbag57
(g73
g59
NtRp1698
(dp1699
g62
(dp1700
sg71
g822
sg64
(lp1701
g57
(g78
g59
NtRp1702
(dp1703
g62
(dp1704
g82
g83
ssg71
g1698
sg64
(lp1705
S'wsgi_url_scheme'
p1706
asbag57
(g78
g59
NtRp1707
(dp1708
g62
(dp1709
g89
g90
ssg71
g1698
sg64
(lp1710
S':'
asbag57
(g78
g59
NtRp1711
(dp1712
g62
(dp1713
sg71
g1698
sg64
(lp1714
g57
(g58
g59
NtRp1715
(dp1716
g62
(dp1717
g70
I4
ssg71
g1711
sg64
(lp1718
S'http'
p1719
asbasbasbag57
(g73
g59
NtRp1720
(dp1721
g62
(dp1722
sg71
g822
sg64
(lp1723
g57
(g78
g59
NtRp1724
(dp1725
g62
(dp1726
g82
g83
ssg71
g1720
sg64
(lp1727
S'wsgi_version'
p1728
asbag57
(g78
g59
NtRp1729
(dp1730
g62
(dp1731
g89
g90
ssg71
g1720
sg64
(lp1732
S':'
asbag57
(g78
g59
NtRp1733
(dp1734
g62
(dp1735
sg71
g1720
sg64
(lp1736
g57
(g58
g59
NtRp1737
(dp1738
g62
(dp1739
g70
I4
ssg71
g1733
sg64
(lp1740
g57
(g66
g59
NtRp1741
(dp1742
g62
(dp1743
g70
I3
ssg71
Nsg64
(lp1744
g57
(g73
g59
NtRp1745
(dp1746
g62
(dp1747
sg71
g1741
sg64
(lp1748
g57
(g78
g59
NtRp1749
(dp1750
g62
(dp1751
sg71
g1745
sg64
(lp1752
g57
(g58
g59
NtRp1753
(dp1754
g62
(dp1755
g70
I3
ssg71
g1749
sg64
(lp1756
S'1'
asbasbasbag57
(g73
g59
NtRp1757
(dp1758
g62
(dp1759
sg71
g1741
sg64
(lp1760
g57
(g78
g59
NtRp1761
(dp1762
g62
(dp1763
sg71
g1757
sg64
(lp1764
g57
(g58
g59
NtRp1765
(dp1766
g62
(dp1767
g70
I3
ssg71
g1761
sg64
(lp1768
S'0'
asbasbasbasbasbasbasbasbasbasbasbag57
(g73
g59
NtRp1769
(dp1770
g62
(dp1771
sg71
g67
sg64
(lp1772
g57
(g78
g59
NtRp1773
(dp1774
g62
(dp1775
g82
g83
ssg71
g1769
sg64
(lp1776
S'extension'
p1777
asbag57
(g78
g59
NtRp1778
(dp1779
g62
(dp1780
g89
g90
ssg71
g1769
sg64
(lp1781
S':'
asbag57
(g78
g59
NtRp1782
(dp1783
g62
(dp1784
sg71
g1769
sg64
(lp1785
g57
(g58
g59
NtRp1786
(dp1787
g62
(dp1788
g70
I5
ssg71
g1782
sg64
(lp1789
S'html'
p1790
asbasbasbag57
(g73
g59
NtRp1791
(dp1792
g62
(dp1793
sg71
g67
sg64
(lp1794
g57
(g78
g59
NtRp1795
(dp1796
g62
(dp1797
g82
g83
ssg71
g1791
sg64
(lp1798
S'folder'
p1799
asbag57
(g78
g59
NtRp1800
(dp1801
g62
(dp1802
g89
g90
ssg71
g1791
sg64
(lp1803
S':'
asbag57
(g78
g59
NtRp1804
(dp1805
g62
(dp1806
sg71
g1791
sg64
(lp1807
g57
(g58
g59
NtRp1808
(dp1809
g62
(dp1810
g70
I5
ssg71
g1804
sg64
(lp1811
S'c:\\Users\\rochacbruno\\aula7_mar12\\web2py\\applications\\loja\\'
p1812
asbasbasbag57
(g73
g59
NtRp1813
(dp1814
g62
(dp1815
sg71
g67
sg64
(lp1816
g57
(g78
g59
NtRp1817
(dp1818
g62
(dp1819
g82
g83
ssg71
g1813
sg64
(lp1820
S'function'
p1821
asbag57
(g78
g59
NtRp1822
(dp1823
g62
(dp1824
g89
g90
ssg71
g1813
sg64
(lp1825
S':'
asbag57
(g78
g59
NtRp1826
(dp1827
g62
(dp1828
sg71
g1813
sg64
(lp1829
g57
(g58
g59
NtRp1830
(dp1831
g62
(dp1832
g70
I5
ssg71
g1826
sg64
(lp1833
S'index'
p1834
asbasbasbag57
(g73
g59
NtRp1835
(dp1836
g62
(dp1837
sg71
g67
sg64
(lp1838
g57
(g78
g59
NtRp1839
(dp1840
g62
(dp1841
g82
g83
ssg71
g1835
sg64
(lp1842
S'get_vars'
p1843
asbag57
(g78
g59
NtRp1844
(dp1845
g62
(dp1846
g89
g90
ssg71
g1835
sg64
(lp1847
S':'
asbag57
(g78
g59
NtRp1848
(dp1849
g62
(dp1850
sg71
g1835
sg64
(lp1851
g57
(g58
g59
NtRp1852
(dp1853
g62
(dp1854
g70
I5
ssg71
g1848
sg64
(lp1855
g57
(g66
g59
NtRp1856
(dp1857
g62
(dp1858
g70
I4
ssg71
Nsg64
(lp1859
sbasbasbasbag57
(g73
g59
NtRp1860
(dp1861
g62
(dp1862
sg71
g67
sg64
(lp1863
g57
(g78
g59
NtRp1864
(dp1865
g62
(dp1866
g82
g83
ssg71
g1860
sg64
(lp1867
S'global_settings'
p1868
asbag57
(g78
g59
NtRp1869
(dp1870
g62
(dp1871
g89
g90
ssg71
g1860
sg64
(lp1872
S':'
asbag57
(g78
g59
NtRp1873
(dp1874
g62
(dp1875
sg71
g1860
sg64
(lp1876
g57
(g58
g59
NtRp1877
(dp1878
g62
(dp1879
g70
I5
ssg71
g1873
sg64
(lp1880
g57
(g66
g59
NtRp1881
(dp1882
g62
(dp1883
g70
I4
ssg71
Nsg64
(lp1884
g57
(g73
g59
NtRp1885
(dp1886
g62
(dp1887
sg71
g1881
sg64
(lp1888
g57
(g78
g59
NtRp1889
(dp1890
g62
(dp1891
g82
g83
ssg71
g1885
sg64
(lp1892
g834
asbag57
(g78
g59
NtRp1893
(dp1894
g62
(dp1895
g89
g90
ssg71
g1885
sg64
(lp1896
S':'
asbag57
(g78
g59
NtRp1897
(dp1898
g62
(dp1899
sg71
g1885
sg64
(lp1900
g57
(g58
g59
NtRp1901
(dp1902
g62
(dp1903
g70
I4
ssg71
g1897
sg64
(lp1904
S"set(['c:\\\\Users\\\\rochacbruno\\\\aula7_mar12\\\\web2py\\\\applications\\\\admin\\\\', 'c:\\\\Users\\\\rochacbruno\\\\aula7_mar12\\\\web2py\\\\applications\\\\loja\\\\'])"
p1905
asbasbasbag57
(g73
g59
NtRp1906
(dp1907
g62
(dp1908
sg71
g1881
sg64
(lp1909
g57
(g78
g59
NtRp1910
(dp1911
g62
(dp1912
g82
g83
ssg71
g1906
sg64
(lp1913
g856
asbag57
(g78
g59
NtRp1914
(dp1915
g62
(dp1916
g89
g90
ssg71
g1906
sg64
(lp1917
S':'
asbag57
(g78
g59
NtRp1918
(dp1919
g62
(dp1920
sg71
g1906
sg64
(lp1921
g57
(g58
g59
NtRp1922
(dp1923
g62
(dp1924
g70
I4
ssg71
g1918
sg64
(lp1925
g869
asbasbasbag57
(g73
g59
NtRp1926
(dp1927
g62
(dp1928
sg71
g1881
sg64
(lp1929
g57
(g78
g59
NtRp1930
(dp1931
g62
(dp1932
g82
g83
ssg71
g1926
sg64
(lp1933
g878
asbag57
(g78
g59
NtRp1934
(dp1935
g62
(dp1936
g89
g90
ssg71
g1926
sg64
(lp1937
S':'
asbag57
(g78
g59
NtRp1938
(dp1939
g62
(dp1940
sg71
g1926
sg64
(lp1941
g57
(g58
g59
NtRp1942
(dp1943
g62
(dp1944
g70
I4
ssg71
g1938
sg64
(lp1945
g57
(g66
g59
NtRp1946
(dp1947
g62
(dp1948
g70
I3
ssg71
Nsg64
(lp1949
sbasbasbasbag57
(g73
g59
NtRp1950
(dp1951
g62
(dp1952
sg71
g1881
sg64
(lp1953
g57
(g78
g59
NtRp1954
(dp1955
g62
(dp1956
g82
g83
ssg71
g1950
sg64
(lp1957
g903
asbag57
(g78
g59
NtRp1958
(dp1959
g62
(dp1960
g89
g90
ssg71
g1950
sg64
(lp1961
S':'
asbag57
(g78
g59
NtRp1962
(dp1963
g62
(dp1964
sg71
g1950
sg64
(lp1965
g57
(g58
g59
NtRp1966
(dp1967
g62
(dp1968
g70
I4
ssg71
g1962
sg64
(lp1969
S"<Values at 0x265e788: {'verbose': False, 'ip': '0.0.0.0', 'shutdown_timeout': 5, 'taskbar': False, 'nocron': True, 'pid_filename': 'httpserver.pid', 'maxthreads': None, 'softcron': False, 'server_name': 'rochacbruno-HP', 'bpython': False, 'nogui': False, 'port': 8000, 'extcron': False, 'debuglevel': 30, 'test': None, 'folder': 'c:\\\\Users\\\\rochacbruno\\\\aula7_mar12\\\\web2py', 'config': '', 'import_models': False, 'winservice': '', 'shell': None, 'run': '', 'log_filename': 'httpserver.log', 'args': [''], 'socket_timeout': 5, 'ssl_ca_certificate': None, 'scheduler': None, 'profiler_filename': None, 'ssl_private_key': '', 'password': '1234', 'request_queue_size': 5, 'ssl_certificate': '', 'cronjob': False, 'numthreads': None, 'quiet': False, 'interfaces': None, 'minthreads': None, 'timeout': 10, 'plain': False, 'nobanner': False}>"
p1970
asbasbasbag57
(g73
g59
NtRp1971
(dp1972
g62
(dp1973
sg71
g1881
sg64
(lp1974
g57
(g78
g59
NtRp1975
(dp1976
g62
(dp1977
g82
g83
ssg71
g1971
sg64
(lp1978
g925
asbag57
(g78
g59
NtRp1979
(dp1980
g62
(dp1981
g89
g90
ssg71
g1971
sg64
(lp1982
S':'
asbag57
(g78
g59
NtRp1983
(dp1984
g62
(dp1985
sg71
g1971
sg64
(lp1986
g57
(g58
g59
NtRp1987
(dp1988
g62
(dp1989
g70
I4
ssg71
g1983
sg64
(lp1990
S'set([])'
p1991
asbasbasbag57
(g73
g59
NtRp1992
(dp1993
g62
(dp1994
sg71
g1881
sg64
(lp1995
g57
(g78
g59
NtRp1996
(dp1997
g62
(dp1998
g82
g83
ssg71
g1992
sg64
(lp1999
g947
asbag57
(g78
g59
NtRp2000
(dp2001
g62
(dp2002
g89
g90
ssg71
g1992
sg64
(lp2003
S':'
asbag57
(g78
g59
NtRp2004
(dp2005
g62
(dp2006
sg71
g1992
sg64
(lp2007
g57
(g58
g59
NtRp2008
(dp2009
g62
(dp2010
g70
I4
ssg71
g2004
sg64
(lp2011
g100
asbasbasbag57
(g73
g59
NtRp2012
(dp2013
g62
(dp2014
sg71
g1881
sg64
(lp2015
g57
(g78
g59
NtRp2016
(dp2017
g62
(dp2018
g82
g83
ssg71
g2012
sg64
(lp2019
g968
asbag57
(g78
g59
NtRp2020
(dp2021
g62
(dp2022
g89
g90
ssg71
g2012
sg64
(lp2023
S':'
asbag57
(g78
g59
NtRp2024
(dp2025
g62
(dp2026
sg71
g2012
sg64
(lp2027
g57
(g58
g59
NtRp2028
(dp2029
g62
(dp2030
g70
I4
ssg71
g2024
sg64
(lp2031
g981
asbasbasbag57
(g73
g59
NtRp2032
(dp2033
g62
(dp2034
sg71
g1881
sg64
(lp2035
g57
(g78
g59
NtRp2036
(dp2037
g62
(dp2038
g82
g83
ssg71
g2032
sg64
(lp2039
g1166
asbag57
(g78
g59
NtRp2040
(dp2041
g62
(dp2042
g89
g90
ssg71
g2032
sg64
(lp2043
S':'
asbag57
(g78
g59
NtRp2044
(dp2045
g62
(dp2046
sg71
g2032
sg64
(lp2047
g57
(g58
g59
NtRp2048
(dp2049
g62
(dp2050
g70
I4
ssg71
g2044
sg64
(lp2051
g100
asbasbasbag57
(g73
g59
NtRp2052
(dp2053
g62
(dp2054
sg71
g1881
sg64
(lp2055
g57
(g78
g59
NtRp2056
(dp2057
g62
(dp2058
g82
g83
ssg71
g2052
sg64
(lp2059
g1187
asbag57
(g78
g59
NtRp2060
(dp2061
g62
(dp2062
g89
g90
ssg71
g2052
sg64
(lp2063
S':'
asbag57
(g78
g59
NtRp2064
(dp2065
g62
(dp2066
sg71
g2052
sg64
(lp2067
g57
(g58
g59
NtRp2068
(dp2069
g62
(dp2070
g70
I4
ssg71
g2064
sg64
(lp2071
g100
asbasbasbag57
(g73
g59
NtRp2072
(dp2073
g62
(dp2074
sg71
g1881
sg64
(lp2075
g57
(g78
g59
NtRp2076
(dp2077
g62
(dp2078
g82
g83
ssg71
g2072
sg64
(lp2079
g1488
asbag57
(g78
g59
NtRp2080
(dp2081
g62
(dp2082
g89
g90
ssg71
g2072
sg64
(lp2083
S':'
asbag57
(g78
g59
NtRp2084
(dp2085
g62
(dp2086
sg71
g2072
sg64
(lp2087
g57
(g58
g59
NtRp2088
(dp2089
g62
(dp2090
g70
I4
ssg71
g2084
sg64
(lp2091
g57
(g66
g59
NtRp2092
(dp2093
g62
(dp2094
g70
I3
ssg71
Nsg64
(lp2095
g57
(g73
g59
NtRp2096
(dp2097
g62
(dp2098
sg71
g2092
sg64
(lp2099
g57
(g78
g59
NtRp2100
(dp2101
g62
(dp2102
sg71
g2096
sg64
(lp2103
g57
(g58
g59
NtRp2104
(dp2105
g62
(dp2106
g70
I3
ssg71
g2100
sg64
(lp2107
S'1'
asbasbasbag57
(g73
g59
NtRp2108
(dp2109
g62
(dp2110
sg71
g2092
sg64
(lp2111
g57
(g78
g59
NtRp2112
(dp2113
g62
(dp2114
sg71
g2108
sg64
(lp2115
g57
(g58
g59
NtRp2116
(dp2117
g62
(dp2118
g70
I3
ssg71
g2112
sg64
(lp2119
S'99'
p2120
asbasbasbag57
(g73
g59
NtRp2121
(dp2122
g62
(dp2123
sg71
g2092
sg64
(lp2124
g57
(g78
g59
NtRp2125
(dp2126
g62
(dp2127
sg71
g2121
sg64
(lp2128
g57
(g58
g59
NtRp2129
(dp2130
g62
(dp2131
g70
I3
ssg71
g2125
sg64
(lp2132
S'7'
asbasbasbag57
(g73
g59
NtRp2133
(dp2134
g62
(dp2135
sg71
g2092
sg64
(lp2136
g57
(g78
g59
NtRp2137
(dp2138
g62
(dp2139
sg71
g2133
sg64
(lp2140
g57
(g58
g59
NtRp2141
(dp2142
g62
(dp2143
g70
I3
ssg71
g2137
sg64
(lp2144
S'datetime.datetime(2012, 3, 4, 22, 12, 8)'
p2145
asbasbasbag57
(g73
g59
NtRp2146
(dp2147
g62
(dp2148
sg71
g2092
sg64
(lp2149
g57
(g78
g59
NtRp2150
(dp2151
g62
(dp2152
sg71
g2146
sg64
(lp2153
g57
(g58
g59
NtRp2154
(dp2155
g62
(dp2156
g70
I3
ssg71
g2150
sg64
(lp2157
g1567
asbasbasbasbasbasbasbasbasbasbasbag57
(g73
g59
NtRp2158
(dp2159
g62
(dp2160
sg71
g67
sg64
(lp2161
g57
(g78
g59
NtRp2162
(dp2163
g62
(dp2164
g82
g83
ssg71
g2158
sg64
(lp2165
S'is_https'
p2166
asbag57
(g78
g59
NtRp2167
(dp2168
g62
(dp2169
g89
g90
ssg71
g2158
sg64
(lp2170
S':'
asbag57
(g78
g59
NtRp2171
(dp2172
g62
(dp2173
sg71
g2158
sg64
(lp2174
g57
(g58
g59
NtRp2175
(dp2176
g62
(dp2177
g70
I5
ssg71
g2171
sg64
(lp2178
g100
asbasbasbag57
(g73
g59
NtRp2179
(dp2180
g62
(dp2181
sg71
g67
sg64
(lp2182
g57
(g78
g59
NtRp2183
(dp2184
g62
(dp2185
g82
g83
ssg71
g2179
sg64
(lp2186
S'is_local'
p2187
asbag57
(g78
g59
NtRp2188
(dp2189
g62
(dp2190
g89
g90
ssg71
g2179
sg64
(lp2191
S':'
asbag57
(g78
g59
NtRp2192
(dp2193
g62
(dp2194
sg71
g2179
sg64
(lp2195
g57
(g58
g59
NtRp2196
(dp2197
g62
(dp2198
g70
I5
ssg71
g2192
sg64
(lp2199
g1676
asbasbasbag57
(g73
g59
NtRp2200
(dp2201
g62
(dp2202
sg71
g67
sg64
(lp2203
g57
(g78
g59
NtRp2204
(dp2205
g62
(dp2206
g82
g83
ssg71
g2200
sg64
(lp2207
S'is_restful'
p2208
asbag57
(g78
g59
NtRp2209
(dp2210
g62
(dp2211
g89
g90
ssg71
g2200
sg64
(lp2212
S':'
asbag57
(g78
g59
NtRp2213
(dp2214
g62
(dp2215
sg71
g2200
sg64
(lp2216
g57
(g58
g59
NtRp2217
(dp2218
g62
(dp2219
g70
I5
ssg71
g2213
sg64
(lp2220
g100
asbasbasbag57
(g73
g59
NtRp2221
(dp2222
g62
(dp2223
sg71
g67
sg64
(lp2224
g57
(g78
g59
NtRp2225
(dp2226
g62
(dp2227
g82
g83
ssg71
g2221
sg64
(lp2228
S'now'
p2229
asbag57
(g78
g59
NtRp2230
(dp2231
g62
(dp2232
g89
g90
ssg71
g2221
sg64
(lp2233
S':'
asbag57
(g78
g59
NtRp2234
(dp2235
g62
(dp2236
sg71
g2221
sg64
(lp2237
g57
(g58
g59
NtRp2238
(dp2239
g62
(dp2240
g70
I5
ssg71
g2234
sg64
(lp2241
S'datetime.datetime(2012, 4, 12, 21, 44, 25, 776000)'
p2242
asbasbasbag57
(g73
g59
NtRp2243
(dp2244
g62
(dp2245
sg71
g67
sg64
(lp2246
g57
(g78
g59
NtRp2247
(dp2248
g62
(dp2249
g82
g83
ssg71
g2243
sg64
(lp2250
S'post_vars'
p2251
asbag57
(g78
g59
NtRp2252
(dp2253
g62
(dp2254
g89
g90
ssg71
g2243
sg64
(lp2255
S':'
asbag57
(g78
g59
NtRp2256
(dp2257
g62
(dp2258
sg71
g2243
sg64
(lp2259
g57
(g58
g59
NtRp2260
(dp2261
g62
(dp2262
g70
I5
ssg71
g2256
sg64
(lp2263
g57
(g66
g59
NtRp2264
(dp2265
g62
(dp2266
g70
I4
ssg71
Nsg64
(lp2267
sbasbasbasbag57
(g73
g59
NtRp2268
(dp2269
g62
(dp2270
sg71
g67
sg64
(lp2271
g57
(g78
g59
NtRp2272
(dp2273
g62
(dp2274
g82
g83
ssg71
g2268
sg64
(lp2275
S'url'
p2276
asbag57
(g78
g59
NtRp2277
(dp2278
g62
(dp2279
g89
g90
ssg71
g2268
sg64
(lp2280
S':'
asbag57
(g78
g59
NtRp2281
(dp2282
g62
(dp2283
sg71
g2268
sg64
(lp2284
g57
(g58
g59
NtRp2285
(dp2286
g62
(dp2287
g70
I5
ssg71
g2281
sg64
(lp2288
S'/loja/home/index'
p2289
asbasbasbag57
(g73
g59
NtRp2290
(dp2291
g62
(dp2292
sg71
g67
sg64
(lp2293
g57
(g78
g59
NtRp2294
(dp2295
g62
(dp2296
g82
g83
ssg71
g2290
sg64
(lp2297
S'utcnow'
p2298
asbag57
(g78
g59
NtRp2299
(dp2300
g62
(dp2301
g89
g90
ssg71
g2290
sg64
(lp2302
S':'
asbag57
(g78
g59
NtRp2303
(dp2304
g62
(dp2305
sg71
g2290
sg64
(lp2306
g57
(g58
g59
NtRp2307
(dp2308
g62
(dp2309
g70
I5
ssg71
g2303
sg64
(lp2310
S'datetime.datetime(2012, 4, 13, 0, 44, 25, 776000)'
p2311
asbasbasbag57
(g73
g59
NtRp2312
(dp2313
g62
(dp2314
sg71
g67
sg64
(lp2315
g57
(g78
g59
NtRp2316
(dp2317
g62
(dp2318
g82
g83
ssg71
g2312
sg64
(lp2319
S'uuid'
p2320
asbag57
(g78
g59
NtRp2321
(dp2322
g62
(dp2323
g89
g90
ssg71
g2312
sg64
(lp2324
S':'
asbag57
(g78
g59
NtRp2325
(dp2326
g62
(dp2327
sg71
g2312
sg64
(lp2328
g57
(g58
g59
NtRp2329
(dp2330
g62
(dp2331
g70
I5
ssg71
g2325
sg64
(lp2332
S'loja/127.0.0.1.2012-04-12.21-44-25.5e151de3-b99d-4145-a0f0-e78a2b85d05a'
p2333
asbasbasbag57
(g73
g59
NtRp2334
(dp2335
g62
(dp2336
sg71
g67
sg64
(lp2337
g57
(g78
g59
NtRp2338
(dp2339
g62
(dp2340
g82
g83
ssg71
g2334
sg64
(lp2341
S'vars'
p2342
asbag57
(g78
g59
NtRp2343
(dp2344
g62
(dp2345
g89
g90
ssg71
g2334
sg64
(lp2346
S':'
asbag57
(g78
g59
NtRp2347
(dp2348
g62
(dp2349
sg71
g2334
sg64
(lp2350
g57
(g58
g59
NtRp2351
(dp2352
g62
(dp2353
g70
I5
ssg71
g2347
sg64
(lp2354
g57
(g66
g59
NtRp2355
(dp2356
g62
(dp2357
g70
I4
ssg71
Nsg64
(lp2358
sbasbasbasbag57
(g73
g59
NtRp2359
(dp2360
g62
(dp2361
sg71
g67
sg64
(lp2362
g57
(g78
g59
NtRp2363
(dp2364
g62
(dp2365
g82
g83
ssg71
g2359
sg64
(lp2366
S'wsgi'
p2367
asbag57
(g78
g59
NtRp2368
(dp2369
g62
(dp2370
g89
g90
ssg71
g2359
sg64
(lp2371
S':'
asbag57
(g78
g59
NtRp2372
(dp2373
g62
(dp2374
sg71
g2359
sg64
(lp2375
g57
(g58
g59
NtRp2376
(dp2377
g62
(dp2378
g70
I5
ssg71
g2372
sg64
(lp2379
g57
(g66
g59
NtRp2380
(dp2381
g62
(dp2382
g70
I4
ssg71
Nsg64
(lp2383
g57
(g73
g59
NtRp2384
(dp2385
g62
(dp2386
sg71
g2380
sg64
(lp2387
g57
(g78
g59
NtRp2388
(dp2389
g62
(dp2390
g82
g83
ssg71
g2384
sg64
(lp2391
S'environ'
p2392
asbag57
(g78
g59
NtRp2393
(dp2394
g62
(dp2395
g89
g90
ssg71
g2384
sg64
(lp2396
S':'
asbag57
(g78
g59
NtRp2397
(dp2398
g62
(dp2399
sg71
g2384
sg64
(lp2400
g57
(g58
g59
NtRp2401
(dp2402
g62
(dp2403
g70
I4
ssg71
g2397
sg64
(lp2404
g57
(g66
g59
NtRp2405
(dp2406
g62
(dp2407
g70
I3
ssg71
Nsg64
(lp2408
g57
(g73
g59
NtRp2409
(dp2410
g62
(dp2411
sg71
g2405
sg64
(lp2412
g57
(g78
g59
NtRp2413
(dp2414
g62
(dp2415
g82
g83
ssg71
g2409
sg64
(lp2416
S'HTTP_ACCEPT'
p2417
asbag57
(g78
g59
NtRp2418
(dp2419
g62
(dp2420
g89
g90
ssg71
g2409
sg64
(lp2421
S':'
asbag57
(g78
g59
NtRp2422
(dp2423
g62
(dp2424
sg71
g2409
sg64
(lp2425
g57
(g58
g59
NtRp2426
(dp2427
g62
(dp2428
g70
I3
ssg71
g2422
sg64
(lp2429
g1003
asbasbasbag57
(g73
g59
NtRp2430
(dp2431
g62
(dp2432
sg71
g2405
sg64
(lp2433
g57
(g78
g59
NtRp2434
(dp2435
g62
(dp2436
g82
g83
ssg71
g2430
sg64
(lp2437
S'HTTP_ACCEPT_ENCODING'
p2438
asbag57
(g78
g59
NtRp2439
(dp2440
g62
(dp2441
g89
g90
ssg71
g2430
sg64
(lp2442
S':'
asbag57
(g78
g59
NtRp2443
(dp2444
g62
(dp2445
sg71
g2430
sg64
(lp2446
g57
(g58
g59
NtRp2447
(dp2448
g62
(dp2449
g70
I3
ssg71
g2443
sg64
(lp2450
g1025
asbasbasbag57
(g73
g59
NtRp2451
(dp2452
g62
(dp2453
sg71
g2405
sg64
(lp2454
g57
(g78
g59
NtRp2455
(dp2456
g62
(dp2457
g82
g83
ssg71
g2451
sg64
(lp2458
S'HTTP_ACCEPT_LANGUAGE'
p2459
asbag57
(g78
g59
NtRp2460
(dp2461
g62
(dp2462
g89
g90
ssg71
g2451
sg64
(lp2463
S':'
asbag57
(g78
g59
NtRp2464
(dp2465
g62
(dp2466
sg71
g2451
sg64
(lp2467
g57
(g58
g59
NtRp2468
(dp2469
g62
(dp2470
g70
I3
ssg71
g2464
sg64
(lp2471
g1047
asbasbasbag57
(g73
g59
NtRp2472
(dp2473
g62
(dp2474
sg71
g2405
sg64
(lp2475
g57
(g78
g59
NtRp2476
(dp2477
g62
(dp2478
g82
g83
ssg71
g2472
sg64
(lp2479
S'HTTP_CACHE_CONTROL'
p2480
asbag57
(g78
g59
NtRp2481
(dp2482
g62
(dp2483
g89
g90
ssg71
g2472
sg64
(lp2484
S':'
asbag57
(g78
g59
NtRp2485
(dp2486
g62
(dp2487
sg71
g2472
sg64
(lp2488
g57
(g58
g59
NtRp2489
(dp2490
g62
(dp2491
g70
I3
ssg71
g2485
sg64
(lp2492
g1069
asbasbasbag57
(g73
g59
NtRp2493
(dp2494
g62
(dp2495
sg71
g2405
sg64
(lp2496
g57
(g78
g59
NtRp2497
(dp2498
g62
(dp2499
g82
g83
ssg71
g2493
sg64
(lp2500
S'HTTP_CONNECTION'
p2501
asbag57
(g78
g59
NtRp2502
(dp2503
g62
(dp2504
g89
g90
ssg71
g2493
sg64
(lp2505
S':'
asbag57
(g78
g59
NtRp2506
(dp2507
g62
(dp2508
sg71
g2493
sg64
(lp2509
g57
(g58
g59
NtRp2510
(dp2511
g62
(dp2512
g70
I3
ssg71
g2506
sg64
(lp2513
g1091
asbasbasbag57
(g73
g59
NtRp2514
(dp2515
g62
(dp2516
sg71
g2405
sg64
(lp2517
g57
(g78
g59
NtRp2518
(dp2519
g62
(dp2520
g82
g83
ssg71
g2514
sg64
(lp2521
S'HTTP_COOKIE'
p2522
asbag57
(g78
g59
NtRp2523
(dp2524
g62
(dp2525
g89
g90
ssg71
g2514
sg64
(lp2526
S':'
asbag57
(g78
g59
NtRp2527
(dp2528
g62
(dp2529
sg71
g2514
sg64
(lp2530
g57
(g58
g59
NtRp2531
(dp2532
g62
(dp2533
g70
I3
ssg71
g2527
sg64
(lp2534
g1113
asbasbasbag57
(g73
g59
NtRp2535
(dp2536
g62
(dp2537
sg71
g2405
sg64
(lp2538
g57
(g78
g59
NtRp2539
(dp2540
g62
(dp2541
g82
g83
ssg71
g2535
sg64
(lp2542
S'HTTP_HOST'
p2543
asbag57
(g78
g59
NtRp2544
(dp2545
g62
(dp2546
g89
g90
ssg71
g2535
sg64
(lp2547
S':'
asbag57
(g78
g59
NtRp2548
(dp2549
g62
(dp2550
sg71
g2535
sg64
(lp2551
g57
(g58
g59
NtRp2552
(dp2553
g62
(dp2554
g70
I3
ssg71
g2548
sg64
(lp2555
g1135
asbasbasbag57
(g73
g59
NtRp2556
(dp2557
g62
(dp2558
sg71
g2405
sg64
(lp2559
g57
(g78
g59
NtRp2560
(dp2561
g62
(dp2562
g82
g83
ssg71
g2556
sg64
(lp2563
S'HTTP_USER_AGENT'
p2564
asbag57
(g78
g59
NtRp2565
(dp2566
g62
(dp2567
g89
g90
ssg71
g2556
sg64
(lp2568
S':'
asbag57
(g78
g59
NtRp2569
(dp2570
g62
(dp2571
sg71
g2556
sg64
(lp2572
g57
(g58
g59
NtRp2573
(dp2574
g62
(dp2575
g70
I3
ssg71
g2569
sg64
(lp2576
g1157
asbasbasbag57
(g73
g59
NtRp2577
(dp2578
g62
(dp2579
sg71
g2405
sg64
(lp2580
g57
(g78
g59
NtRp2581
(dp2582
g62
(dp2583
g82
g83
ssg71
g2577
sg64
(lp2584
S'PATH_INFO'
p2585
asbag57
(g78
g59
NtRp2586
(dp2587
g62
(dp2588
g89
g90
ssg71
g2577
sg64
(lp2589
S':'
asbag57
(g78
g59
NtRp2590
(dp2591
g62
(dp2592
sg71
g2577
sg64
(lp2593
g57
(g58
g59
NtRp2594
(dp2595
g62
(dp2596
g70
I3
ssg71
g2590
sg64
(lp2597
g1221
asbasbasbag57
(g73
g59
NtRp2598
(dp2599
g62
(dp2600
sg71
g2405
sg64
(lp2601
g57
(g78
g59
NtRp2602
(dp2603
g62
(dp2604
g82
g83
ssg71
g2598
sg64
(lp2605
S'QUERY_STRING'
p2606
asbag57
(g78
g59
NtRp2607
(dp2608
g62
(dp2609
g89
g90
ssg71
g2598
sg64
(lp2610
S':'
asbag57
(g78
g59
NtRp2611
(dp2612
g62
(dp2613
sg71
g2598
sg64
(lp2614
g57
(g58
g59
NtRp2615
(dp2616
g62
(dp2617
g70
I3
ssg71
g2611
sg64
(lp2618
S''
asbasbasbag57
(g73
g59
NtRp2619
(dp2620
g62
(dp2621
sg71
g2405
sg64
(lp2622
g57
(g78
g59
NtRp2623
(dp2624
g62
(dp2625
g82
g83
ssg71
g2619
sg64
(lp2626
S'REMOTE_ADDR'
p2627
asbag57
(g78
g59
NtRp2628
(dp2629
g62
(dp2630
g89
g90
ssg71
g2619
sg64
(lp2631
S':'
asbag57
(g78
g59
NtRp2632
(dp2633
g62
(dp2634
sg71
g2619
sg64
(lp2635
g57
(g58
g59
NtRp2636
(dp2637
g62
(dp2638
g70
I3
ssg71
g2632
sg64
(lp2639
g190
asbasbasbag57
(g73
g59
NtRp2640
(dp2641
g62
(dp2642
sg71
g2405
sg64
(lp2643
g57
(g78
g59
NtRp2644
(dp2645
g62
(dp2646
g82
g83
ssg71
g2640
sg64
(lp2647
S'REMOTE_PORT'
p2648
asbag57
(g78
g59
NtRp2649
(dp2650
g62
(dp2651
g89
g90
ssg71
g2640
sg64
(lp2652
S':'
asbag57
(g78
g59
NtRp2653
(dp2654
g62
(dp2655
sg71
g2640
sg64
(lp2656
g57
(g58
g59
NtRp2657
(dp2658
g62
(dp2659
g70
I3
ssg71
g2653
sg64
(lp2660
g1285
asbasbasbag57
(g73
g59
NtRp2661
(dp2662
g62
(dp2663
sg71
g2405
sg64
(lp2664
g57
(g78
g59
NtRp2665
(dp2666
g62
(dp2667
g82
g83
ssg71
g2661
sg64
(lp2668
S'REQUEST_METHOD'
p2669
asbag57
(g78
g59
NtRp2670
(dp2671
g62
(dp2672
g89
g90
ssg71
g2661
sg64
(lp2673
S':'
asbag57
(g78
g59
NtRp2674
(dp2675
g62
(dp2676
sg71
g2661
sg64
(lp2677
g57
(g58
g59
NtRp2678
(dp2679
g62
(dp2680
g70
I3
ssg71
g2674
sg64
(lp2681
g1307
asbasbasbag57
(g73
g59
NtRp2682
(dp2683
g62
(dp2684
sg71
g2405
sg64
(lp2685
g57
(g78
g59
NtRp2686
(dp2687
g62
(dp2688
g82
g83
ssg71
g2682
sg64
(lp2689
S'REQUEST_URI'
p2690
asbag57
(g78
g59
NtRp2691
(dp2692
g62
(dp2693
g89
g90
ssg71
g2682
sg64
(lp2694
S':'
asbag57
(g78
g59
NtRp2695
(dp2696
g62
(dp2697
sg71
g2682
sg64
(lp2698
g57
(g58
g59
NtRp2699
(dp2700
g62
(dp2701
g70
I3
ssg71
g2695
sg64
(lp2702
g1221
asbasbasbag57
(g73
g59
NtRp2703
(dp2704
g62
(dp2705
sg71
g2405
sg64
(lp2706
g57
(g78
g59
NtRp2707
(dp2708
g62
(dp2709
g82
g83
ssg71
g2703
sg64
(lp2710
S'SCRIPT_NAME'
p2711
asbag57
(g78
g59
NtRp2712
(dp2713
g62
(dp2714
g89
g90
ssg71
g2703
sg64
(lp2715
S':'
asbag57
(g78
g59
NtRp2716
(dp2717
g62
(dp2718
sg71
g2703
sg64
(lp2719
g57
(g58
g59
NtRp2720
(dp2721
g62
(dp2722
g70
I3
ssg71
g2716
sg64
(lp2723
S''
asbasbasbag57
(g73
g59
NtRp2724
(dp2725
g62
(dp2726
sg71
g2405
sg64
(lp2727
g57
(g78
g59
NtRp2728
(dp2729
g62
(dp2730
g82
g83
ssg71
g2724
sg64
(lp2731
S'SERVER_NAME'
p2732
asbag57
(g78
g59
NtRp2733
(dp2734
g62
(dp2735
g89
g90
ssg71
g2724
sg64
(lp2736
S':'
asbag57
(g78
g59
NtRp2737
(dp2738
g62
(dp2739
sg71
g2724
sg64
(lp2740
g57
(g58
g59
NtRp2741
(dp2742
g62
(dp2743
g70
I3
ssg71
g2737
sg64
(lp2744
g1371
asbasbasbag57
(g73
g59
NtRp2745
(dp2746
g62
(dp2747
sg71
g2405
sg64
(lp2748
g57
(g78
g59
NtRp2749
(dp2750
g62
(dp2751
g82
g83
ssg71
g2745
sg64
(lp2752
S'SERVER_PORT'
p2753
asbag57
(g78
g59
NtRp2754
(dp2755
g62
(dp2756
g89
g90
ssg71
g2745
sg64
(lp2757
S':'
asbag57
(g78
g59
NtRp2758
(dp2759
g62
(dp2760
sg71
g2745
sg64
(lp2761
g57
(g58
g59
NtRp2762
(dp2763
g62
(dp2764
g70
I3
ssg71
g2758
sg64
(lp2765
g1393
asbasbasbag57
(g73
g59
NtRp2766
(dp2767
g62
(dp2768
sg71
g2405
sg64
(lp2769
g57
(g78
g59
NtRp2770
(dp2771
g62
(dp2772
g82
g83
ssg71
g2766
sg64
(lp2773
S'SERVER_PROTOCOL'
p2774
asbag57
(g78
g59
NtRp2775
(dp2776
g62
(dp2777
g89
g90
ssg71
g2766
sg64
(lp2778
S':'
asbag57
(g78
g59
NtRp2779
(dp2780
g62
(dp2781
sg71
g2766
sg64
(lp2782
g57
(g58
g59
NtRp2783
(dp2784
g62
(dp2785
g70
I3
ssg71
g2779
sg64
(lp2786
g1415
asbasbasbag57
(g73
g59
NtRp2787
(dp2788
g62
(dp2789
sg71
g2405
sg64
(lp2790
g57
(g78
g59
NtRp2791
(dp2792
g62
(dp2793
g82
g83
ssg71
g2787
sg64
(lp2794
S'SERVER_SOFTWARE'
p2795
asbag57
(g78
g59
NtRp2796
(dp2797
g62
(dp2798
g89
g90
ssg71
g2787
sg64
(lp2799
S':'
asbag57
(g78
g59
NtRp2800
(dp2801
g62
(dp2802
sg71
g2787
sg64
(lp2803
g57
(g58
g59
NtRp2804
(dp2805
g62
(dp2806
g70
I3
ssg71
g2800
sg64
(lp2807
g1437
asbasbasbag57
(g73
g59
NtRp2808
(dp2809
g62
(dp2810
sg71
g2405
sg64
(lp2811
g57
(g78
g59
NtRp2812
(dp2813
g62
(dp2814
g82
g83
ssg71
g2808
sg64
(lp2815
S'WEB2PY_ORIGINAL_URI'
p2816
asbag57
(g78
g59
NtRp2817
(dp2818
g62
(dp2819
g89
g90
ssg71
g2808
sg64
(lp2820
S':'
asbag57
(g78
g59
NtRp2821
(dp2822
g62
(dp2823
sg71
g2808
sg64
(lp2824
g57
(g58
g59
NtRp2825
(dp2826
g62
(dp2827
g70
I3
ssg71
g2821
sg64
(lp2828
g1221
asbasbasbag57
(g73
g59
NtRp2829
(dp2830
g62
(dp2831
sg71
g2405
sg64
(lp2832
g57
(g78
g59
NtRp2833
(dp2834
g62
(dp2835
g82
g83
ssg71
g2829
sg64
(lp2836
S'wsgi.errors'
p2837
asbag57
(g78
g59
NtRp2838
(dp2839
g62
(dp2840
g89
g90
ssg71
g2829
sg64
(lp2841
S':'
asbag57
(g78
g59
NtRp2842
(dp2843
g62
(dp2844
sg71
g2829
sg64
(lp2845
g57
(g58
g59
NtRp2846
(dp2847
g62
(dp2848
g70
I3
ssg71
g2842
sg64
(lp2849
S"<open file '<stderr>', mode 'w' at 0x013650D0>"
p2850
asbasbasbag57
(g73
g59
NtRp2851
(dp2852
g62
(dp2853
sg71
g2405
sg64
(lp2854
g57
(g78
g59
NtRp2855
(dp2856
g62
(dp2857
g82
g83
ssg71
g2851
sg64
(lp2858
S'wsgi.file_wrapper'
p2859
asbag57
(g78
g59
NtRp2860
(dp2861
g62
(dp2862
g89
g90
ssg71
g2851
sg64
(lp2863
S':'
asbag57
(g78
g59
NtRp2864
(dp2865
g62
(dp2866
sg71
g2851
sg64
(lp2867
g57
(g58
g59
NtRp2868
(dp2869
g62
(dp2870
g70
I3
ssg71
g2864
sg64
(lp2871
S'<class wsgiref.util.FileWrapper at 0x02596B20>'
p2872
asbasbasbag57
(g73
g59
NtRp2873
(dp2874
g62
(dp2875
sg71
g2405
sg64
(lp2876
g57
(g78
g59
NtRp2877
(dp2878
g62
(dp2879
g82
g83
ssg71
g2873
sg64
(lp2880
S'wsgi.input'
p2881
asbag57
(g78
g59
NtRp2882
(dp2883
g62
(dp2884
g89
g90
ssg71
g2873
sg64
(lp2885
S':'
asbag57
(g78
g59
NtRp2886
(dp2887
g62
(dp2888
sg71
g2873
sg64
(lp2889
g57
(g58
g59
NtRp2890
(dp2891
g62
(dp2892
g70
I3
ssg71
g2886
sg64
(lp2893
S'<cStringIO.StringO object at 0x04F47A40>'
p2894
asbasbasbag57
(g73
g59
NtRp2895
(dp2896
g62
(dp2897
sg71
g2405
sg64
(lp2898
g57
(g78
g59
NtRp2899
(dp2900
g62
(dp2901
g82
g83
ssg71
g2895
sg64
(lp2902
S'wsgi.multiprocess'
p2903
asbag57
(g78
g59
NtRp2904
(dp2905
g62
(dp2906
g89
g90
ssg71
g2895
sg64
(lp2907
S':'
asbag57
(g78
g59
NtRp2908
(dp2909
g62
(dp2910
sg71
g2895
sg64
(lp2911
g57
(g58
g59
NtRp2912
(dp2913
g62
(dp2914
g70
I3
ssg71
g2908
sg64
(lp2915
g100
asbasbasbag57
(g73
g59
NtRp2916
(dp2917
g62
(dp2918
sg71
g2405
sg64
(lp2919
g57
(g78
g59
NtRp2920
(dp2921
g62
(dp2922
g82
g83
ssg71
g2916
sg64
(lp2923
S'wsgi.multithread'
p2924
asbag57
(g78
g59
NtRp2925
(dp2926
g62
(dp2927
g89
g90
ssg71
g2916
sg64
(lp2928
S':'
asbag57
(g78
g59
NtRp2929
(dp2930
g62
(dp2931
sg71
g2916
sg64
(lp2932
g57
(g58
g59
NtRp2933
(dp2934
g62
(dp2935
g70
I3
ssg71
g2929
sg64
(lp2936
g1676
asbasbasbag57
(g73
g59
NtRp2937
(dp2938
g62
(dp2939
sg71
g2405
sg64
(lp2940
g57
(g78
g59
NtRp2941
(dp2942
g62
(dp2943
g82
g83
ssg71
g2937
sg64
(lp2944
S'wsgi.run_once'
p2945
asbag57
(g78
g59
NtRp2946
(dp2947
g62
(dp2948
g89
g90
ssg71
g2937
sg64
(lp2949
S':'
asbag57
(g78
g59
NtRp2950
(dp2951
g62
(dp2952
sg71
g2937
sg64
(lp2953
g57
(g58
g59
NtRp2954
(dp2955
g62
(dp2956
g70
I3
ssg71
g2950
sg64
(lp2957
g100
asbasbasbag57
(g73
g59
NtRp2958
(dp2959
g62
(dp2960
sg71
g2405
sg64
(lp2961
g57
(g78
g59
NtRp2962
(dp2963
g62
(dp2964
g82
g83
ssg71
g2958
sg64
(lp2965
S'wsgi.url_scheme'
p2966
asbag57
(g78
g59
NtRp2967
(dp2968
g62
(dp2969
g89
g90
ssg71
g2958
sg64
(lp2970
S':'
asbag57
(g78
g59
NtRp2971
(dp2972
g62
(dp2973
sg71
g2958
sg64
(lp2974
g57
(g58
g59
NtRp2975
(dp2976
g62
(dp2977
g70
I3
ssg71
g2971
sg64
(lp2978
g1719
asbasbasbag57
(g73
g59
NtRp2979
(dp2980
g62
(dp2981
sg71
g2405
sg64
(lp2982
g57
(g78
g59
NtRp2983
(dp2984
g62
(dp2985
g82
g83
ssg71
g2979
sg64
(lp2986
S'wsgi.version'
p2987
asbag57
(g78
g59
NtRp2988
(dp2989
g62
(dp2990
g89
g90
ssg71
g2979
sg64
(lp2991
S':'
asbag57
(g78
g59
NtRp2992
(dp2993
g62
(dp2994
sg71
g2979
sg64
(lp2995
g57
(g58
g59
NtRp2996
(dp2997
g62
(dp2998
g70
I3
ssg71
g2992
sg64
(lp2999
S'1'
asbasbasbasbasbasbasbasbasbasbasbasbasbsS'frames'
p3000
(lp3001
(dp3002
S'file'
p3003
S'c:\\Users\\rochacbruno\\aula7_mar12\\web2py\\gluon\\restricted.py'
p3004
sS'dump'
p3005
(dp3006
S'environment'
p3007
S"{'A': <class 'gluon.html.A'>, 'B': <class 'gluon.html.B'>, 'BEAUTIFY': <class 'gluon.html.BEAUTIFY'>, 'BODY': <class 'gluon.html.BODY'>, 'BR': <class 'gluon.html.BR'>, 'BUTTON': <class 'gluon.html.BUTTON'>, 'CAT': <class 'gluon.html.CAT'>, 'CENTER': <class 'gluon.html.CENTER'>, 'CLEANUP': <class 'gluon.validators.CLEANUP'>, 'CODE': <class 'gluon.html.CODE'>, ...}"
p3008
sS'ccode'
p3009
S'<code object <module> at 04EF1E30, file "c:\\User...applications\\loja\\views\\home/index.html", line 1>'
p3010
ssS'lnum'
p3011
I205
sS'lines'
p3012
(dp3013
I200
S'    try:'
p3014
sI201
S'        if type(code) == types.CodeType:'
p3015
sI202
S'            ccode = code'
p3016
sI203
S'        else:'
p3017
sI204
S'            ccode = compile2(code,layer)'
p3018
sI205
S'        exec ccode in environment'
p3019
sI206
S'    except HTTP:'
p3020
sI207
S'        raise'
p3021
sI208
S'    except RestrictedError:'
p3022
sI209
S'        # do not encapsulate (obfuscate) the original RestrictedError'
p3023
ssS'call'
p3024
S'(code="response.write(\'\\\\r\\\\n<h1> Minha app</h1>\\\\r\\\\n\\\\r\\\\n\'...agens]))\\nresponse.write(\'\\\\r\\\\n\\\\r\\\\n\', escape=False)", environment={\'A\': <class \'gluon.html.A\'>, \'B\': <class \'gluon.html.B\'>, \'BEAUTIFY\': <class \'gluon.html.BEAUTIFY\'>, \'BODY\': <class \'gluon.html.BODY\'>, \'BR\': <class \'gluon.html.BR\'>, \'BUTTON\': <class \'gluon.html.BUTTON\'>, \'CAT\': <class \'gluon.html.CAT\'>, \'CENTER\': <class \'gluon.html.CENTER\'>, \'CLEANUP\': <class \'gluon.validators.CLEANUP\'>, \'CODE\': <class \'gluon.html.CODE\'>, ...}, layer=r\'c:\\Users\\rochacbruno\\aula7_mar12\\web2py\\applications\\loja\\views\\home/index.html\')'
p3025
sS'func'
p3026
S'restricted'
p3027
sa(dp3028
g3003
S'c:\\Users\\rochacbruno\\aula7_mar12\\web2py\\applications\\loja\\views\\home\\index.html'
p3029
sg3005
(dp3030
sg3011
I14
sg3012
(dp3031
I5
S"response.write('\\r\\n\\r\\n\\r\\n', escape=False)"
p3032
sI6
S'response.write(usuario)'
p3033
sI7
S"response.write('\\r\\n\\r\\n<ul>\\r\\n', escape=False)"
p3034
sI8
S'for l in linguagens:'
p3035
sI9
S"    response.write('\\r\\n    <li>', escape=False)"
p3036
sI10
S'    response.write(l.upper())'
p3037
sI11
S"    response.write('</li>\\r\\n', escape=False)"
p3038
sI12
S'    pass'
p3039
sI13
S"response.write('\\r\\n</ul>\\r\\n\\r\\n', escape=False)"
p3040
sI14
S'response.write(UL(*[LI(item.capitelize()) for item in linguagens]))'
p3041
sI15
S"response.write('\\r\\n\\r\\n', escape=False)"
p3042
ssg3024
S'()'
p3043
sg3026
S'<module>'
p3044
sasS'pyver'
p3045
S'Python 2.7.2: c:\\Python27\\python.exe'
p3046
sS'session'
p3047
g57
(g58
g59
NtRp3048
(dp3049
g62
(dp3050
sg64
(lp3051
g57
(g66
g59
NtRp3052
(dp3053
g62
(dp3054
g70
I5
ssg71
Nsg64
(lp3055
sbasbsS'etype'
p3056
S"<type 'exceptions.AttributeError'>"
p3057
sS'date'
p3058
S'Thu Apr 12 21:44:25 2012'
p3059
sS'response'
p3060
g57
(g58
g59
NtRp3061
(dp3062
g62
(dp3063
sg64
(lp3064
g57
(g66
g59
NtRp3065
(dp3066
g62
(dp3067
g70
I5
ssg71
Nsg64
(lp3068
g57
(g73
g59
NtRp3069
(dp3070
g62
(dp3071
sg71
g3065
sg64
(lp3072
g57
(g78
g59
NtRp3073
(dp3074
g62
(dp3075
g82
g83
ssg71
g3069
sg64
(lp3076
g155
asbag57
(g78
g59
NtRp3077
(dp3078
g62
(dp3079
g89
g90
ssg71
g3069
sg64
(lp3080
S':'
asbag57
(g78
g59
NtRp3081
(dp3082
g62
(dp3083
sg71
g3069
sg64
(lp3084
g57
(g58
g59
NtRp3085
(dp3086
g62
(dp3087
g70
I5
ssg71
g3081
sg64
(lp3088
S'<cStringIO.StringO object at 0x04F47280>'
p3089
asbasbasbag57
(g73
g59
NtRp3090
(dp3091
g62
(dp3092
sg71
g3065
sg64
(lp3093
g57
(g78
g59
NtRp3094
(dp3095
g62
(dp3096
g82
g83
ssg71
g3090
sg64
(lp3097
g221
asbag57
(g78
g59
NtRp3098
(dp3099
g62
(dp3100
g89
g90
ssg71
g3090
sg64
(lp3101
S':'
asbag57
(g78
g59
NtRp3102
(dp3103
g62
(dp3104
sg71
g3090
sg64
(lp3105
g57
(g58
g59
NtRp3106
(dp3107
g62
(dp3108
g70
I5
ssg71
g3102
sg64
(lp3109
g57
(g66
g59
NtRp3110
(dp3111
g62
(dp3112
g70
I4
ssg71
Nsg64
(lp3113
g57
(g73
g59
NtRp3114
(dp3115
g62
(dp3116
sg71
g3110
sg64
(lp3117
g57
(g78
g59
NtRp3118
(dp3119
g62
(dp3120
g82
g83
ssg71
g3114
sg64
(lp3121
S'session_id_loja'
p3122
asbag57
(g78
g59
NtRp3123
(dp3124
g62
(dp3125
g89
g90
ssg71
g3114
sg64
(lp3126
S':'
asbag57
(g78
g59
NtRp3127
(dp3128
g62
(dp3129
sg71
g3114
sg64
(lp3130
g57
(g58
g59
NtRp3131
(dp3132
g62
(dp3133
g70
I4
ssg71
g3127
sg64
(lp3134
g57
(g66
g59
NtRp3135
(dp3136
g62
(dp3137
g70
I3
ssg71
Nsg64
(lp3138
g57
(g73
g59
NtRp3139
(dp3140
g62
(dp3141
sg71
g3135
sg64
(lp3142
g57
(g78
g59
NtRp3143
(dp3144
g62
(dp3145
g82
g83
ssg71
g3139
sg64
(lp3146
g271
asbag57
(g78
g59
NtRp3147
(dp3148
g62
(dp3149
g89
g90
ssg71
g3139
sg64
(lp3150
S':'
asbag57
(g78
g59
NtRp3151
(dp3152
g62
(dp3153
sg71
g3139
sg64
(lp3154
g57
(g58
g59
NtRp3155
(dp3156
g62
(dp3157
g70
I3
ssg71
g3151
sg64
(lp3158
S''
asbasbasbag57
(g73
g59
NtRp3159
(dp3160
g62
(dp3161
sg71
g3135
sg64
(lp3162
g57
(g78
g59
NtRp3163
(dp3164
g62
(dp3165
g82
g83
ssg71
g3159
sg64
(lp3166
g292
asbag57
(g78
g59
NtRp3167
(dp3168
g62
(dp3169
g89
g90
ssg71
g3159
sg64
(lp3170
S':'
asbag57
(g78
g59
NtRp3171
(dp3172
g62
(dp3173
sg71
g3159
sg64
(lp3174
g57
(g58
g59
NtRp3175
(dp3176
g62
(dp3177
g70
I3
ssg71
g3171
sg64
(lp3178
S''
asbasbasbag57
(g73
g59
NtRp3179
(dp3180
g62
(dp3181
sg71
g3135
sg64
(lp3182
g57
(g78
g59
NtRp3183
(dp3184
g62
(dp3185
g82
g83
ssg71
g3179
sg64
(lp3186
g313
asbag57
(g78
g59
NtRp3187
(dp3188
g62
(dp3189
g89
g90
ssg71
g3179
sg64
(lp3190
S':'
asbag57
(g78
g59
NtRp3191
(dp3192
g62
(dp3193
sg71
g3179
sg64
(lp3194
g57
(g58
g59
NtRp3195
(dp3196
g62
(dp3197
g70
I3
ssg71
g3191
sg64
(lp3198
S''
asbasbasbag57
(g73
g59
NtRp3199
(dp3200
g62
(dp3201
sg71
g3135
sg64
(lp3202
g57
(g78
g59
NtRp3203
(dp3204
g62
(dp3205
g82
g83
ssg71
g3199
sg64
(lp3206
g334
asbag57
(g78
g59
NtRp3207
(dp3208
g62
(dp3209
g89
g90
ssg71
g3199
sg64
(lp3210
S':'
asbag57
(g78
g59
NtRp3211
(dp3212
g62
(dp3213
sg71
g3199
sg64
(lp3214
g57
(g58
g59
NtRp3215
(dp3216
g62
(dp3217
g70
I3
ssg71
g3211
sg64
(lp3218
S''
asbasbasbag57
(g73
g59
NtRp3219
(dp3220
g62
(dp3221
sg71
g3135
sg64
(lp3222
g57
(g78
g59
NtRp3223
(dp3224
g62
(dp3225
g82
g83
ssg71
g3219
sg64
(lp3226
g355
asbag57
(g78
g59
NtRp3227
(dp3228
g62
(dp3229
g89
g90
ssg71
g3219
sg64
(lp3230
S':'
asbag57
(g78
g59
NtRp3231
(dp3232
g62
(dp3233
sg71
g3219
sg64
(lp3234
g57
(g58
g59
NtRp3235
(dp3236
g62
(dp3237
g70
I3
ssg71
g3231
sg64
(lp3238
S''
asbasbasbag57
(g73
g59
NtRp3239
(dp3240
g62
(dp3241
sg71
g3135
sg64
(lp3242
g57
(g78
g59
NtRp3243
(dp3244
g62
(dp3245
g82
g83
ssg71
g3239
sg64
(lp3246
g376
asbag57
(g78
g59
NtRp3247
(dp3248
g62
(dp3249
g89
g90
ssg71
g3239
sg64
(lp3250
S':'
asbag57
(g78
g59
NtRp3251
(dp3252
g62
(dp3253
sg71
g3239
sg64
(lp3254
g57
(g58
g59
NtRp3255
(dp3256
g62
(dp3257
g70
I3
ssg71
g3251
sg64
(lp3258
S'/'
asbasbasbag57
(g73
g59
NtRp3259
(dp3260
g62
(dp3261
sg71
g3135
sg64
(lp3262
g57
(g78
g59
NtRp3263
(dp3264
g62
(dp3265
g82
g83
ssg71
g3259
sg64
(lp3266
g397
asbag57
(g78
g59
NtRp3267
(dp3268
g62
(dp3269
g89
g90
ssg71
g3259
sg64
(lp3270
S':'
asbag57
(g78
g59
NtRp3271
(dp3272
g62
(dp3273
sg71
g3259
sg64
(lp3274
g57
(g58
g59
NtRp3275
(dp3276
g62
(dp3277
g70
I3
ssg71
g3271
sg64
(lp3278
S''
asbasbasbag57
(g73
g59
NtRp3279
(dp3280
g62
(dp3281
sg71
g3135
sg64
(lp3282
g57
(g78
g59
NtRp3283
(dp3284
g62
(dp3285
g82
g83
ssg71
g3279
sg64
(lp3286
g418
asbag57
(g78
g59
NtRp3287
(dp3288
g62
(dp3289
g89
g90
ssg71
g3279
sg64
(lp3290
S':'
asbag57
(g78
g59
NtRp3291
(dp3292
g62
(dp3293
sg71
g3279
sg64
(lp3294
g57
(g58
g59
NtRp3295
(dp3296
g62
(dp3297
g70
I3
ssg71
g3291
sg64
(lp3298
S''
asbasbasbasbasbasbasbasbasbasbasbag57
(g73
g59
NtRp3299
(dp3300
g62
(dp3301
sg71
g3065
sg64
(lp3302
g57
(g78
g59
NtRp3303
(dp3304
g62
(dp3305
g82
g83
ssg71
g3299
sg64
(lp3306
S'delimiters'
p3307
asbag57
(g78
g59
NtRp3308
(dp3309
g62
(dp3310
g89
g90
ssg71
g3299
sg64
(lp3311
S':'
asbag57
(g78
g59
NtRp3312
(dp3313
g62
(dp3314
sg71
g3299
sg64
(lp3315
g57
(g58
g59
NtRp3316
(dp3317
g62
(dp3318
g70
I5
ssg71
g3312
sg64
(lp3319
g57
(g66
g59
NtRp3320
(dp3321
g62
(dp3322
g70
I4
ssg71
Nsg64
(lp3323
g57
(g73
g59
NtRp3324
(dp3325
g62
(dp3326
sg71
g3320
sg64
(lp3327
g57
(g78
g59
NtRp3328
(dp3329
g62
(dp3330
sg71
g3324
sg64
(lp3331
g57
(g58
g59
NtRp3332
(dp3333
g62
(dp3334
g70
I4
ssg71
g3328
sg64
(lp3335
S'{{'
p3336
asbasbasbag57
(g73
g59
NtRp3337
(dp3338
g62
(dp3339
sg71
g3320
sg64
(lp3340
g57
(g78
g59
NtRp3341
(dp3342
g62
(dp3343
sg71
g3337
sg64
(lp3344
g57
(g58
g59
NtRp3345
(dp3346
g62
(dp3347
g70
I4
ssg71
g3341
sg64
(lp3348
S'}}'
p3349
asbasbasbasbasbasbasbag57
(g73
g59
NtRp3350
(dp3351
g62
(dp3352
sg71
g3065
sg64
(lp3353
g57
(g78
g59
NtRp3354
(dp3355
g62
(dp3356
g82
g83
ssg71
g3350
sg64
(lp3357
S'files'
p3358
asbag57
(g78
g59
NtRp3359
(dp3360
g62
(dp3361
g89
g90
ssg71
g3350
sg64
(lp3362
S':'
asbag57
(g78
g59
NtRp3363
(dp3364
g62
(dp3365
sg71
g3350
sg64
(lp3366
g57
(g58
g59
NtRp3367
(dp3368
g62
(dp3369
g70
I5
ssg71
g3363
sg64
(lp3370
g57
(g66
g59
NtRp3371
(dp3372
g62
(dp3373
g70
I4
ssg71
Nsg64
(lp3374
sbasbasbasbag57
(g73
g59
NtRp3375
(dp3376
g62
(dp3377
sg71
g3065
sg64
(lp3378
g57
(g78
g59
NtRp3379
(dp3380
g62
(dp3381
g82
g83
ssg71
g3375
sg64
(lp3382
S'flash'
p3383
asbag57
(g78
g59
NtRp3384
(dp3385
g62
(dp3386
g89
g90
ssg71
g3375
sg64
(lp3387
S':'
asbag57
(g78
g59
NtRp3388
(dp3389
g62
(dp3390
sg71
g3375
sg64
(lp3391
g57
(g58
g59
NtRp3392
(dp3393
g62
(dp3394
g70
I5
ssg71
g3388
sg64
(lp3395
S''
asbasbasbag57
(g73
g59
NtRp3396
(dp3397
g62
(dp3398
sg71
g3065
sg64
(lp3399
g57
(g78
g59
NtRp3400
(dp3401
g62
(dp3402
g82
g83
ssg71
g3396
sg64
(lp3403
S'generic_patterns'
p3404
asbag57
(g78
g59
NtRp3405
(dp3406
g62
(dp3407
g89
g90
ssg71
g3396
sg64
(lp3408
S':'
asbag57
(g78
g59
NtRp3409
(dp3410
g62
(dp3411
sg71
g3396
sg64
(lp3412
g57
(g58
g59
NtRp3413
(dp3414
g62
(dp3415
g70
I5
ssg71
g3409
sg64
(lp3416
g57
(g66
g59
NtRp3417
(dp3418
g62
(dp3419
g70
I4
ssg71
Nsg64
(lp3420
sbasbasbasbag57
(g73
g59
NtRp3421
(dp3422
g62
(dp3423
sg71
g3065
sg64
(lp3424
g57
(g78
g59
NtRp3425
(dp3426
g62
(dp3427
g82
g83
ssg71
g3421
sg64
(lp3428
S'headers'
p3429
asbag57
(g78
g59
NtRp3430
(dp3431
g62
(dp3432
g89
g90
ssg71
g3421
sg64
(lp3433
S':'
asbag57
(g78
g59
NtRp3434
(dp3435
g62
(dp3436
sg71
g3421
sg64
(lp3437
g57
(g58
g59
NtRp3438
(dp3439
g62
(dp3440
g70
I5
ssg71
g3434
sg64
(lp3441
g57
(g66
g59
NtRp3442
(dp3443
g62
(dp3444
g70
I4
ssg71
Nsg64
(lp3445
g57
(g73
g59
NtRp3446
(dp3447
g62
(dp3448
sg71
g3442
sg64
(lp3449
g57
(g78
g59
NtRp3450
(dp3451
g62
(dp3452
g82
g83
ssg71
g3446
sg64
(lp3453
S'Cache-Control'
p3454
asbag57
(g78
g59
NtRp3455
(dp3456
g62
(dp3457
g89
g90
ssg71
g3446
sg64
(lp3458
S':'
asbag57
(g78
g59
NtRp3459
(dp3460
g62
(dp3461
sg71
g3446
sg64
(lp3462
g57
(g58
g59
NtRp3463
(dp3464
g62
(dp3465
g70
I4
ssg71
g3459
sg64
(lp3466
S'no-store, no-cache, must-revalidate, post-check=0, pre-check=0'
p3467
asbasbasbag57
(g73
g59
NtRp3468
(dp3469
g62
(dp3470
sg71
g3442
sg64
(lp3471
g57
(g78
g59
NtRp3472
(dp3473
g62
(dp3474
g82
g83
ssg71
g3468
sg64
(lp3475
S'Content-Type'
p3476
asbag57
(g78
g59
NtRp3477
(dp3478
g62
(dp3479
g89
g90
ssg71
g3468
sg64
(lp3480
S':'
asbag57
(g78
g59
NtRp3481
(dp3482
g62
(dp3483
sg71
g3468
sg64
(lp3484
g57
(g58
g59
NtRp3485
(dp3486
g62
(dp3487
g70
I4
ssg71
g3481
sg64
(lp3488
S'text/html; charset=utf-8'
p3489
asbasbasbag57
(g73
g59
NtRp3490
(dp3491
g62
(dp3492
sg71
g3442
sg64
(lp3493
g57
(g78
g59
NtRp3494
(dp3495
g62
(dp3496
g82
g83
ssg71
g3490
sg64
(lp3497
S'Expires'
p3498
asbag57
(g78
g59
NtRp3499
(dp3500
g62
(dp3501
g89
g90
ssg71
g3490
sg64
(lp3502
S':'
asbag57
(g78
g59
NtRp3503
(dp3504
g62
(dp3505
sg71
g3490
sg64
(lp3506
g57
(g58
g59
NtRp3507
(dp3508
g62
(dp3509
g70
I4
ssg71
g3503
sg64
(lp3510
S'Fri, 13 Apr 2012 00:44:25 GMT'
p3511
asbasbasbag57
(g73
g59
NtRp3512
(dp3513
g62
(dp3514
sg71
g3442
sg64
(lp3515
g57
(g78
g59
NtRp3516
(dp3517
g62
(dp3518
g82
g83
ssg71
g3512
sg64
(lp3519
S'Pragma'
p3520
asbag57
(g78
g59
NtRp3521
(dp3522
g62
(dp3523
g89
g90
ssg71
g3512
sg64
(lp3524
S':'
asbag57
(g78
g59
NtRp3525
(dp3526
g62
(dp3527
sg71
g3512
sg64
(lp3528
g57
(g58
g59
NtRp3529
(dp3530
g62
(dp3531
g70
I4
ssg71
g3525
sg64
(lp3532
S'no-cache'
p3533
asbasbasbag57
(g73
g59
NtRp3534
(dp3535
g62
(dp3536
sg71
g3442
sg64
(lp3537
g57
(g78
g59
NtRp3538
(dp3539
g62
(dp3540
g82
g83
ssg71
g3534
sg64
(lp3541
S'X-Powered-By'
p3542
asbag57
(g78
g59
NtRp3543
(dp3544
g62
(dp3545
g89
g90
ssg71
g3534
sg64
(lp3546
S':'
asbag57
(g78
g59
NtRp3547
(dp3548
g62
(dp3549
sg71
g3534
sg64
(lp3550
g57
(g58
g59
NtRp3551
(dp3552
g62
(dp3553
g70
I4
ssg71
g3547
sg64
(lp3554
S'web2py'
p3555
asbasbasbasbasbasbasbag57
(g73
g59
NtRp3556
(dp3557
g62
(dp3558
sg71
g3065
sg64
(lp3559
g57
(g78
g59
NtRp3560
(dp3561
g62
(dp3562
g82
g83
ssg71
g3556
sg64
(lp3563
S'menu'
p3564
asbag57
(g78
g59
NtRp3565
(dp3566
g62
(dp3567
g89
g90
ssg71
g3556
sg64
(lp3568
S':'
asbag57
(g78
g59
NtRp3569
(dp3570
g62
(dp3571
sg71
g3556
sg64
(lp3572
g57
(g58
g59
NtRp3573
(dp3574
g62
(dp3575
g70
I5
ssg71
g3569
sg64
(lp3576
g57
(g66
g59
NtRp3577
(dp3578
g62
(dp3579
g70
I4
ssg71
Nsg64
(lp3580
sbasbasbasbag57
(g73
g59
NtRp3581
(dp3582
g62
(dp3583
sg71
g3065
sg64
(lp3584
g57
(g78
g59
NtRp3585
(dp3586
g62
(dp3587
g82
g83
ssg71
g3581
sg64
(lp3588
S'meta'
p3589
asbag57
(g78
g59
NtRp3590
(dp3591
g62
(dp3592
g89
g90
ssg71
g3581
sg64
(lp3593
S':'
asbag57
(g78
g59
NtRp3594
(dp3595
g62
(dp3596
sg71
g3581
sg64
(lp3597
g57
(g58
g59
NtRp3598
(dp3599
g62
(dp3600
g70
I5
ssg71
g3594
sg64
(lp3601
g57
(g66
g59
NtRp3602
(dp3603
g62
(dp3604
g70
I4
ssg71
Nsg64
(lp3605
sbasbasbasbag57
(g73
g59
NtRp3606
(dp3607
g62
(dp3608
sg71
g3065
sg64
(lp3609
g57
(g78
g59
NtRp3610
(dp3611
g62
(dp3612
g82
g83
ssg71
g3606
sg64
(lp3613
S'postprocessing'
p3614
asbag57
(g78
g59
NtRp3615
(dp3616
g62
(dp3617
g89
g90
ssg71
g3606
sg64
(lp3618
S':'
asbag57
(g78
g59
NtRp3619
(dp3620
g62
(dp3621
sg71
g3606
sg64
(lp3622
g57
(g58
g59
NtRp3623
(dp3624
g62
(dp3625
g70
I5
ssg71
g3619
sg64
(lp3626
g57
(g66
g59
NtRp3627
(dp3628
g62
(dp3629
g70
I4
ssg71
Nsg64
(lp3630
sbasbasbasbag57
(g73
g59
NtRp3631
(dp3632
g62
(dp3633
sg71
g3065
sg64
(lp3634
g57
(g78
g59
NtRp3635
(dp3636
g62
(dp3637
g82
g83
ssg71
g3631
sg64
(lp3638
S'session_filename'
p3639
asbag57
(g78
g59
NtRp3640
(dp3641
g62
(dp3642
g89
g90
ssg71
g3631
sg64
(lp3643
S':'
asbag57
(g78
g59
NtRp3644
(dp3645
g62
(dp3646
sg71
g3631
sg64
(lp3647
g57
(g58
g59
NtRp3648
(dp3649
g62
(dp3650
g70
I5
ssg71
g3644
sg64
(lp3651
S'c:\\Users\\rochacbruno\\aula7_mar12\\web2py\\applications\\loja\\sessions\\127.0.0.1-9c3acc33-dba4-4995-bd7c-b3ad28a1a404'
p3652
asbasbasbag57
(g73
g59
NtRp3653
(dp3654
g62
(dp3655
sg71
g3065
sg64
(lp3656
g57
(g78
g59
NtRp3657
(dp3658
g62
(dp3659
g82
g83
ssg71
g3653
sg64
(lp3660
S'session_id'
p3661
asbag57
(g78
g59
NtRp3662
(dp3663
g62
(dp3664
g89
g90
ssg71
g3653
sg64
(lp3665
S':'
asbag57
(g78
g59
NtRp3666
(dp3667
g62
(dp3668
sg71
g3653
sg64
(lp3669
g57
(g58
g59
NtRp3670
(dp3671
g62
(dp3672
g70
I5
ssg71
g3666
sg64
(lp3673
S'127.0.0.1-9c3acc33-dba4-4995-bd7c-b3ad28a1a404'
p3674
asbasbasbag57
(g73
g59
NtRp3675
(dp3676
g62
(dp3677
sg71
g3065
sg64
(lp3678
g57
(g78
g59
NtRp3679
(dp3680
g62
(dp3681
g82
g83
ssg71
g3675
sg64
(lp3682
S'session_id_name'
p3683
asbag57
(g78
g59
NtRp3684
(dp3685
g62
(dp3686
g89
g90
ssg71
g3675
sg64
(lp3687
S':'
asbag57
(g78
g59
NtRp3688
(dp3689
g62
(dp3690
sg71
g3675
sg64
(lp3691
g57
(g58
g59
NtRp3692
(dp3693
g62
(dp3694
g70
I5
ssg71
g3688
sg64
(lp3695
g3122
asbasbasbag57
(g73
g59
NtRp3696
(dp3697
g62
(dp3698
sg71
g3065
sg64
(lp3699
g57
(g78
g59
NtRp3700
(dp3701
g62
(dp3702
g82
g83
ssg71
g3696
sg64
(lp3703
S'session_new'
p3704
asbag57
(g78
g59
NtRp3705
(dp3706
g62
(dp3707
g89
g90
ssg71
g3696
sg64
(lp3708
S':'
asbag57
(g78
g59
NtRp3709
(dp3710
g62
(dp3711
sg71
g3696
sg64
(lp3712
g57
(g58
g59
NtRp3713
(dp3714
g62
(dp3715
g70
I5
ssg71
g3709
sg64
(lp3716
g1676
asbasbasbag57
(g73
g59
NtRp3717
(dp3718
g62
(dp3719
sg71
g3065
sg64
(lp3720
g57
(g78
g59
NtRp3721
(dp3722
g62
(dp3723
g82
g83
ssg71
g3717
sg64
(lp3724
S'status'
p3725
asbag57
(g78
g59
NtRp3726
(dp3727
g62
(dp3728
g89
g90
ssg71
g3717
sg64
(lp3729
S':'
asbag57
(g78
g59
NtRp3730
(dp3731
g62
(dp3732
sg71
g3717
sg64
(lp3733
g57
(g58
g59
NtRp3734
(dp3735
g62
(dp3736
g70
I5
ssg71
g3730
sg64
(lp3737
S'200'
p3738
asbasbasbag57
(g73
g59
NtRp3739
(dp3740
g62
(dp3741
sg71
g3065
sg64
(lp3742
g57
(g78
g59
NtRp3743
(dp3744
g62
(dp3745
g82
g83
ssg71
g3739
sg64
(lp3746
g2320
asbag57
(g78
g59
NtRp3747
(dp3748
g62
(dp3749
g89
g90
ssg71
g3739
sg64
(lp3750
S':'
asbag57
(g78
g59
NtRp3751
(dp3752
g62
(dp3753
sg71
g3739
sg64
(lp3754
g57
(g58
g59
NtRp3755
(dp3756
g62
(dp3757
g70
I5
ssg71
g3751
sg64
(lp3758
g2333
asbasbasbag57
(g73
g59
NtRp3759
(dp3760
g62
(dp3761
sg71
g3065
sg64
(lp3762
g57
(g78
g59
NtRp3763
(dp3764
g62
(dp3765
g82
g83
ssg71
g3759
sg64
(lp3766
S'view'
p3767
asbag57
(g78
g59
NtRp3768
(dp3769
g62
(dp3770
g89
g90
ssg71
g3759
sg64
(lp3771
S':'
asbag57
(g78
g59
NtRp3772
(dp3773
g62
(dp3774
sg71
g3759
sg64
(lp3775
g57
(g58
g59
NtRp3776
(dp3777
g62
(dp3778
g70
I5
ssg71
g3772
sg64
(lp3779
S'home/index.html'
p3780
asbasbasbasbasbsS'locals'
p3781
(dp3782
S'OBJECT'
p3783
S"<class 'gluon.html.OBJECT'>"
p3784
sS'SQLDB'
p3785
S"<class 'gluon.dal.DAL'>"
p3786
sg3047
S"<Storage {'_Session__hash': '\\xc8[\\xd5\\xc1#\\xd8e\\x10\\xe3\\x06\\x0ba\\xddT\\x92m'}>"
p3787
sS'LINK'
p3788
S"<class 'gluon.html.LINK'>"
p3789
sS'BR'
p3790
S"<class 'gluon.html.BR'>"
p3791
sS'local_import'
p3792
S'<function <lambda>>'
p3793
sS'OPTGROUP'
p3794
S"<class 'gluon.html.OPTGROUP'>"
p3795
sS'PRE'
p3796
S"<class 'gluon.html.PRE'>"
p3797
sS'IS_INT_IN_RANGE'
p3798
S"<class 'gluon.validators.IS_INT_IN_RANGE'>"
p3799
sS'IS_LOWER'
p3800
S"<class 'gluon.validators.IS_LOWER'>"
p3801
sS'IS_STRONG'
p3802
S"<class 'gluon.validators.IS_STRONG'>"
p3803
sS'cache'
p3804
S'<gluon.cache.Cache object>'
p3805
sS'IS_IN_DB'
p3806
S"<class 'gluon.validators.IS_IN_DB'>"
p3807
sS'TAG'
p3808
S'<gluon.html.__TAG__ object>'
p3809
sS'SQLField'
p3810
S"<class 'gluon.dal.Field'>"
p3811
sS'BODY'
p3812
S"<class 'gluon.html.BODY'>"
p3813
sS'IS_DATE_IN_RANGE'
p3814
S"<class 'gluon.validators.IS_DATE_IN_RANGE'>"
p3815
sS'TH'
p3816
S"<class 'gluon.html.TH'>"
p3817
sS'URL'
p3818
S'<function URL>'
p3819
sS'__file__'
p3820
S"r'c:\\Users\\rochacbruno\\aula7_mar12\\web2py\\applications\\loja\\views\\home/index.html'"
p3821
sS'linguagens'
p3822
S"['python', 'ruby', 'java']"
p3823
sS'P'
S"<class 'gluon.html.P'>"
p3824
sS'TFOOT'
p3825
S"<class 'gluon.html.TFOOT'>"
p3826
sS'XHTML'
p3827
S"<class 'gluon.html.XHTML'>"
p3828
sS'ON'
p3829
g1676
sS'OL'
p3830
S"<class 'gluon.html.OL'>"
p3831
sS'TEXTAREA'
p3832
S"<class 'gluon.html.TEXTAREA'>"
p3833
sS'MENU'
p3834
S"<class 'gluon.html.MENU'>"
p3835
sS'l'
S"'java'"
p3836
sS'item'
p3837
S"'python'"
p3838
sS'LOAD'
p3839
S'<function LOAD>'
p3840
sS'CODE'
p3841
S"<class 'gluon.html.CODE'>"
p3842
sS'HTTP'
p3843
S"<class 'gluon.http.HTTP'>"
p3844
sS'HR'
p3845
S"<class 'gluon.html.HR'>"
p3846
sS'IS_DATETIME'
p3847
S"<class 'gluon.validators.IS_DATETIME'>"
p3848
sS'HEAD'
p3849
S"<class 'gluon.html.HEAD'>"
p3850
sS'LABEL'
p3851
S"<class 'gluon.html.LABEL'>"
p3852
sS'soma1'
p3853
S'7'
sS'soma2'
p3854
S'75'
p3855
sS'SELECT'
p3856
S"<class 'gluon.html.SELECT'>"
p3857
sS'CENTER'
p3858
S"<class 'gluon.html.CENTER'>"
p3859
sS'__builtins__'
p3860
S"{'ArithmeticError': <type 'exceptions.ArithmeticError'>, 'AssertionError': <type 'exceptions.AssertionError'>, 'AttributeError': <type 'exceptions.AttributeError'>, 'BaseException': <type 'exceptions.BaseException'>, 'BufferError': <type 'exceptions.BufferError'>, 'BytesWarning': <type 'exceptions.BytesWarning'>, 'DeprecationWarning': <type 'exceptions.DeprecationWarning'>, 'EOFError': <type 'exceptions.EOFError'>, 'Ellipsis': Ellipsis, 'EnvironmentError': <type 'exceptions.EnvironmentError'>, ...}"
p3861
sS'BEAUTIFY'
p3862
S"<class 'gluon.html.BEAUTIFY'>"
p3863
sS'SQLFORM'
p3864
S"<class 'gluon.sqlhtml.SQLFORM'>"
p3865
sS'EM'
p3866
S"<class 'gluon.html.EM'>"
p3867
sS'redirect'
p3868
S'<function redirect>'
p3869
sS'FIELDSET'
p3870
S"<class 'gluon.html.FIELDSET'>"
p3871
sS'IS_EQUAL_TO'
p3872
S"<class 'gluon.validators.IS_EQUAL_TO'>"
p3873
sS'embed64'
p3874
S'<function embed64>'
p3875
sS'IS_LIST_OF'
p3876
S"<class 'gluon.validators.IS_LIST_OF'>"
p3877
sS'__name__'
p3878
S"'__restricted__'"
p3879
sS'EMBED'
p3880
S"<class 'gluon.html.EMBED'>"
p3881
sS'FORM'
p3882
S"<class 'gluon.html.FORM'>"
p3883
sS'H2'
p3884
S"<class 'gluon.html.H2'>"
p3885
sS'H3'
p3886
S"<class 'gluon.html.H3'>"
p3887
sS'BUTTON'
p3888
S"<class 'gluon.html.BUTTON'>"
p3889
sS'H1'
p3890
S"<class 'gluon.html.H1'>"
p3891
sS'H6'
p3892
S"<class 'gluon.html.H6'>"
p3893
sS'H4'
p3894
S"<class 'gluon.html.H4'>"
p3895
sS'H5'
p3896
S"<class 'gluon.html.H5'>"
p3897
sS'UL'
p3898
S"<class 'gluon.html.UL'>"
p3899
sS'IS_UPPER'
p3900
S"<class 'gluon.validators.IS_UPPER'>"
p3901
sS'xmlescape'
p3902
S'<function xmlescape>'
p3903
sS'IS_TIME'
p3904
S"<class 'gluon.validators.IS_TIME'>"
p3905
sS'OPTION'
p3906
S"<class 'gluon.html.OPTION'>"
p3907
sS'TITLE'
p3908
S"<class 'gluon.html.TITLE'>"
p3909
sS'CRYPT'
p3910
S"<class 'gluon.validators.CRYPT'>"
p3911
sS'IS_EMPTY_OR'
p3912
S"<class 'gluon.validators.IS_EMPTY_OR'>"
p3913
sS'MARKMIN'
p3914
S"<class 'gluon.html.MARKMIN'>"
p3915
sS'INPUT'
p3916
S"<class 'gluon.html.INPUT'>"
p3917
sS'COL'
p3918
S"<class 'gluon.html.COL'>"
p3919
sS'SCRIPT'
p3920
S"<class 'gluon.html.SCRIPT'>"
p3921
sS'TABLE'
p3922
S"<class 'gluon.html.TABLE'>"
p3923
sS'IS_IPV4'
p3924
S"<class 'gluon.validators.IS_IPV4'>"
p3925
sS'IS_LENGTH'
p3926
S"<class 'gluon.validators.IS_LENGTH'>"
p3927
sS'XML'
p3928
S"<class 'gluon.html.XML'>"
p3929
sS'B'
S"<class 'gluon.html.B'>"
p3930
sS'IMG'
p3931
S"<class 'gluon.html.IMG'>"
p3932
sS'SQLTABLE'
p3933
S"<class 'gluon.sqlhtml.SQLTABLE'>"
p3934
sS'IS_MATCH'
p3935
S"<class 'gluon.validators.IS_MATCH'>"
p3936
sS'IS_ALPHANUMERIC'
p3937
S"<class 'gluon.validators.IS_ALPHANUMERIC'>"
p3938
sS'SPAN'
p3939
S"<class 'gluon.html.SPAN'>"
p3940
sS'IS_SLUG'
p3941
S"<class 'gluon.validators.IS_SLUG'>"
p3942
sS'CLEANUP'
p3943
S"<class 'gluon.validators.CLEANUP'>"
p3944
sS'META'
p3945
S"<class 'gluon.html.META'>"
p3946
sS'IS_DATE'
p3947
S"<class 'gluon.validators.IS_DATE'>"
p3948
sS'IS_EMAIL'
p3949
S"<class 'gluon.validators.IS_EMAIL'>"
p3950
sS'IS_NOT_EMPTY'
p3951
S"<class 'gluon.validators.IS_NOT_EMPTY'>"
p3952
sg56
S"<Storage {'body': <cStringIO.StringO object at 0..._vars': <Storage {}>, 'post_vars': <Storage {}>}>"
p3953
sS'TBODY'
p3954
S"<class 'gluon.html.TBODY'>"
p3955
sS'CAT'
p3956
S"<class 'gluon.html.CAT'>"
p3957
sS'Field'
p3958
S"<class 'gluon.dal.Field'>"
p3959
sS'DIV'
p3960
S"<class 'gluon.html.DIV'>"
p3961
sS'LEGEND'
p3962
S"<class 'gluon.html.LEGEND'>"
p3963
sS'COLGROUP'
p3964
S"<class 'gluon.html.COLGROUP'>"
p3965
sS'DAL'
p3966
S"<class 'gluon.dal.DAL'>"
p3967
sS'TT'
p3968
S"<class 'gluon.html.TT'>"
p3969
sS'TR'
p3970
S"<class 'gluon.html.TR'>"
p3971
sS'LI'
p3972
S"<class 'gluon.html.LI'>"
p3973
sS'IFRAME'
p3974
S"<class 'gluon.html.IFRAME'>"
p3975
sS'TD'
p3976
S"<class 'gluon.html.TD'>"
p3977
sS'IS_URL'
p3978
S"<class 'gluon.validators.IS_URL'>"
p3979
sS'A'
S"<class 'gluon.html.A'>"
p3980
sS'STYLE'
p3981
S"<class 'gluon.html.STYLE'>"
p3982
sS'IS_DATETIME_IN_RANGE'
p3983
S"<class 'gluon.validators.IS_DATETIME_IN_RANGE'>"
p3984
sS'HTML'
p3985
S"<class 'gluon.html.HTML'>"
p3986
sS'IS_IMAGE'
p3987
S"<class 'gluon.validators.IS_IMAGE'>"
p3988
sS'I'
S"<class 'gluon.html.I'>"
p3989
sS'IS_NOT_IN_DB'
p3990
S"<class 'gluon.validators.IS_NOT_IN_DB'>"
p3991
sg3060
S"<Storage {'status': 200, 'body': <cStringIO.Stri...F6B030>, 'files': [], 'view': 'home/index.html'}>"
p3992
sS'THEAD'
p3993
S"<class 'gluon.html.THEAD'>"
p3994
sS'IS_NULL_OR'
p3995
S"<class 'gluon.validators.IS_EMPTY_OR'>"
p3996
sS'usuario'
p3997
S"'Bruno'"
p3998
sS'IS_FLOAT_IN_RANGE'
p3999
S"<class 'gluon.validators.IS_FLOAT_IN_RANGE'>"
p4000
sS'IS_EXPR'
p4001
S"<class 'gluon.validators.IS_EXPR'>"
p4002
sS'T'
S'<gluon.languages.translator object>'
p4003
sS'IS_IN_SET'
p4004
S"<class 'gluon.validators.IS_IN_SET'>"
p4005
sS'IS_UPLOAD_FILENAME'
p4006
S"<class 'gluon.validators.IS_UPLOAD_FILENAME'>"
p4007
sS'IS_DECIMAL_IN_RANGE'
p4008
S"<class 'gluon.validators.IS_DECIMAL_IN_RANGE'>"
p4009
sssS'traceback'
p4010
S'Traceback (most recent call last):\n  File "c:\\Users\\rochacbruno\\aula7_mar12\\web2py\\gluon\\restricted.py", line 205, in restricted\n    exec ccode in environment\n  File "c:\\Users\\rochacbruno\\aula7_mar12\\web2py\\applications\\loja\\views\\home/index.html", line 14, in <module>\n    {{pass}}\nAttributeError: \'str\' object has no attribute \'capitelize\'\n'
p4011
s.